---
triple:          'x86_64-apple-darwin'
binary-path:     'Problem60/problem60'
relocations:
  - { offsetInCU: 0x39, offset: 0x39, size: 0x8, addend: 0x0, symName: __ZN10primesieve8stepSizeE, symObjAddr: 0x4EA8, symBinAddr: 0x100010000, symSize: 0x0 }
  - { offsetInCU: 0x4FCB, offset: 0x4FCB, size: 0x8, addend: 0x0, symName: __ZNSt3__17advanceB8ue170006INS_11__wrap_iterIPlEEllvEEvRT_T0_, symObjAddr: 0x1780, symBinAddr: 0x100002CA0, symSize: 0x30 }
  - { offsetInCU: 0x6268, offset: 0x6268, size: 0x8, addend: 0x0, symName: __ZNSt3__113__fill_n_trueB8ue170006INS_6vectorIbNS_9allocatorIbEEEEEEvNS_14__bit_iteratorIT_Lb0EXLi0EEEENS6_9size_typeE, symObjAddr: 0x2140, symBinAddr: 0x100003660, symSize: 0x140 }
  - { offsetInCU: 0x632E, offset: 0x632E, size: 0x8, addend: 0x0, symName: __ZNSt3__114__fill_n_falseB8ue170006INS_6vectorIbNS_9allocatorIbEEEEEEvNS_14__bit_iteratorIT_Lb0EXLi0EEEENS6_9size_typeE, symObjAddr: 0x22B0, symBinAddr: 0x1000037D0, symSize: 0x140 }
  - { offsetInCU: 0x7523, offset: 0x7523, size: 0x8, addend: 0x0, symName: __ZNSt3__124__put_character_sequenceB8ue170006IcNS_11char_traitsIcEEEERNS_13basic_ostreamIT_T0_EES7_PKS4_m, symObjAddr: 0x3F80, symBinAddr: 0x1000054A0, symSize: 0x1F0 }
  - { offsetInCU: 0x9ACE, offset: 0x9ACE, size: 0x8, addend: 0x0, symName: __ZNSt3__14endlB8ue170006IcNS_11char_traitsIcEEEERNS_13basic_ostreamIT_T0_EES7_, symObjAddr: 0xD0, symBinAddr: 0x1000015F0, symSize: 0x50 }
  - { offsetInCU: 0x9B0E, offset: 0x9B0E, size: 0x8, addend: 0x0, symName: __ZNSt3__1lsB8ue170006INS_11char_traitsIcEEEERNS_13basic_ostreamIcT_EES6_c, symObjAddr: 0x120, symBinAddr: 0x100001640, symSize: 0x30 }
  - { offsetInCU: 0x9B54, offset: 0x9B54, size: 0x8, addend: 0x0, symName: __ZNSt3__113binary_searchB8ue170006INS_11__wrap_iterIPlEElEEbT_S4_RKT0_, symObjAddr: 0x6F0, symBinAddr: 0x100001C10, symSize: 0x40 }
  - { offsetInCU: 0x9BAE, offset: 0x9BAE, size: 0x8, addend: 0x0, symName: __ZNSt3__1neB8ue170006IPlEEbRKNS_11__wrap_iterIT_EES6_, symObjAddr: 0x7C0, symBinAddr: 0x100001CE0, symSize: 0x30 }
  - { offsetInCU: 0x9BF1, offset: 0x9BF1, size: 0x8, addend: 0x0, symName: __ZNSt3__1lsB8ue170006INS_11char_traitsIcEEEERNS_13basic_ostreamIcT_EES6_PKc, symObjAddr: 0xAE0, symBinAddr: 0x100002000, symSize: 0x40 }
  - { offsetInCU: 0x9C37, offset: 0x9C37, size: 0x8, addend: 0x0, symName: __ZNSt3__1neB8ue170006IPiEEbRKNS_11__wrap_iterIT_EES6_, symObjAddr: 0xB50, symBinAddr: 0x100002070, symSize: 0x30 }
  - { offsetInCU: 0xA473, offset: 0xA473, size: 0x8, addend: 0x0, symName: __ZNSt3__1neB8ue170006ERKNS_15__list_iteratorIiPvEES4_, symObjAddr: 0xD40, symBinAddr: 0x100002260, symSize: 0x30 }
  - { offsetInCU: 0xA4B0, offset: 0xA4B0, size: 0x8, addend: 0x0, symName: __ZNSt3__112__to_addressB8ue170006IlEEPT_S2_, symObjAddr: 0x1110, symBinAddr: 0x100002630, symSize: 0x10 }
  - { offsetInCU: 0xA4E5, offset: 0xA4E5, size: 0x8, addend: 0x0, symName: __ZNSt3__110destroy_atB8ue170006IlLi0EEEvPT_, symObjAddr: 0x1120, symBinAddr: 0x100002640, symSize: 0x20 }
  - { offsetInCU: 0xA51C, offset: 0xA51C, size: 0x8, addend: 0x0, symName: __ZNSt3__112__destroy_atB8ue170006IlLi0EEEvPT_, symObjAddr: 0x1140, symBinAddr: 0x100002660, symSize: 0x10 }
  - { offsetInCU: 0xA553, offset: 0xA553, size: 0x8, addend: 0x0, symName: __ZNSt3__119__libcpp_deallocateB8ue170006EPvmm, symObjAddr: 0x11F0, symBinAddr: 0x100002710, symSize: 0x60 }
  - { offsetInCU: 0xA5B8, offset: 0xA5B8, size: 0x8, addend: 0x0, symName: __ZNSt3__124__is_overaligned_for_newB8ue170006Em, symObjAddr: 0x1250, symBinAddr: 0x100002770, symSize: 0x20 }
  - { offsetInCU: 0xA5E6, offset: 0xA5E6, size: 0x8, addend: 0x0, symName: __ZNSt3__127__do_deallocate_handle_sizeB8ue170006IJSt11align_val_tEEEvPvmDpT_, symObjAddr: 0x1270, symBinAddr: 0x100002790, symSize: 0x30 }
  - { offsetInCU: 0xA639, offset: 0xA639, size: 0x8, addend: 0x0, symName: __ZNSt3__127__do_deallocate_handle_sizeB8ue170006IJEEEvPvmDpT_, symObjAddr: 0x12A0, symBinAddr: 0x1000027C0, symSize: 0x20 }
  - { offsetInCU: 0xA677, offset: 0xA677, size: 0x8, addend: 0x0, symName: __ZNSt3__124__libcpp_operator_deleteB8ue170006IJPvSt11align_val_tEEEvDpT_, symObjAddr: 0x12C0, symBinAddr: 0x1000027E0, symSize: 0x30 }
  - { offsetInCU: 0xA6C0, offset: 0xA6C0, size: 0x8, addend: 0x0, symName: __ZNSt3__124__libcpp_operator_deleteB8ue170006IJPvEEEvDpT_, symObjAddr: 0x12F0, symBinAddr: 0x100002810, symSize: 0x20 }
  - { offsetInCU: 0xA6F5, offset: 0xA6F5, size: 0x8, addend: 0x0, symName: __ZNSt3__113binary_searchB8ue170006INS_11__wrap_iterIPlEElNS_6__lessIvvEEEEbT_S6_RKT0_T1_, symObjAddr: 0x1390, symBinAddr: 0x1000028B0, symSize: 0xA0 }
  - { offsetInCU: 0xA766, offset: 0xA766, size: 0x8, addend: 0x0, symName: __ZNSt3__111lower_boundB8ue170006INS_11__wrap_iterIPlEElRNS_6__lessIvvEEEET_S7_S7_RKT0_T1_, symObjAddr: 0x1430, symBinAddr: 0x100002950, symSize: 0x60 }
  - { offsetInCU: 0xA85B, offset: 0xA85B, size: 0x8, addend: 0x0, symName: __ZNSt3__113__lower_boundB8ue170006INS_17_ClassicAlgPolicyENS_11__wrap_iterIPlEES4_lNS_10__identityENS_6__lessIvvEEEET0_S8_T1_RKT2_RT4_RT3_, symObjAddr: 0x14C0, symBinAddr: 0x1000029E0, symSize: 0x100 }
  - { offsetInCU: 0xA9C9, offset: 0xA9C9, size: 0x8, addend: 0x0, symName: __ZNSt3__115__half_positiveB8ue170006IlEENS_9enable_ifIXsr11is_integralIT_EE5valueES2_E4typeES2_, symObjAddr: 0x1600, symBinAddr: 0x100002B20, symSize: 0x20 }
  - { offsetInCU: 0xA9FE, offset: 0xA9FE, size: 0x8, addend: 0x0, symName: __ZNSt3__18__invokeB8ue170006IRNS_6__lessIvvEEJRlRKlEEEDTclclsr3stdE7declvalIT_EEspclsr3stdE7declvalIT0_EEEEOS7_DpOS8_, symObjAddr: 0x1650, symBinAddr: 0x100002B70, symSize: 0x30 }
  - { offsetInCU: 0xAA63, offset: 0xAA63, size: 0x8, addend: 0x0, symName: __ZNSt3__18__invokeB8ue170006IRNS_10__identityEJRlEEEDTclclsr3stdE7declvalIT_EEspclsr3stdE7declvalIT0_EEEEOS4_DpOS5_, symObjAddr: 0x1680, symBinAddr: 0x100002BA0, symSize: 0x30 }
  - { offsetInCU: 0xAAB4, offset: 0xAAB4, size: 0x8, addend: 0x0, symName: __ZNSt3__18distanceB8ue170006INS_11__wrap_iterIPlEEEENS_15iterator_traitsIT_E15difference_typeES5_S5_, symObjAddr: 0x16B0, symBinAddr: 0x100002BD0, symSize: 0x40 }
  - { offsetInCU: 0xAAF7, offset: 0xAAF7, size: 0x8, addend: 0x0, symName: __ZNSt3__110__distanceB8ue170006INS_11__wrap_iterIPlEEEENS_15iterator_traitsIT_E15difference_typeES5_S5_NS_26random_access_iterator_tagE, symObjAddr: 0x16F0, symBinAddr: 0x100002C10, symSize: 0x30 }
  - { offsetInCU: 0xAB44, offset: 0xAB44, size: 0x8, addend: 0x0, symName: __ZNSt3__1miB8ue170006IPlS1_EEDTmicldtfp_4baseEcldtfp0_4baseEERKNS_11__wrap_iterIT_EERKNS3_IT0_EE, symObjAddr: 0x1720, symBinAddr: 0x100002C40, symSize: 0x40 }
  - { offsetInCU: 0xAB90, offset: 0xAB90, size: 0x8, addend: 0x0, symName: __ZNSt3__121__convert_to_integralB8ue170006El, symObjAddr: 0x17B0, symBinAddr: 0x100002CD0, symSize: 0x10 }
  - { offsetInCU: 0xABBC, offset: 0xABBC, size: 0x8, addend: 0x0, symName: __ZNSt3__19__advanceB8ue170006INS_11__wrap_iterIPlEEEEvRT_NS_15iterator_traitsIS4_E15difference_typeENS_26random_access_iterator_tagE, symObjAddr: 0x17C0, symBinAddr: 0x100002CE0, symSize: 0x30 }
  - { offsetInCU: 0xAC32, offset: 0xAC32, size: 0x8, addend: 0x0, symName: __ZNSt3__119__allocate_at_leastB8ue170006INS_9allocatorImEEEEDaRT_m, symObjAddr: 0x1C20, symBinAddr: 0x100003140, symSize: 0x40 }
  - { offsetInCU: 0xAE61, offset: 0xAE61, size: 0x8, addend: 0x0, symName: __ZNSt3__120__throw_length_errorB8ue170006EPKc, symObjAddr: 0x1D70, symBinAddr: 0x100003290, symSize: 0x70 }
  - { offsetInCU: 0xAE8B, offset: 0xAE8B, size: 0x8, addend: 0x0, symName: __ZNSt3__117allocate_at_leastB8ue170006INS_9allocatorImEEEENS_17allocation_resultINS_16allocator_traitsIT_E7pointerEEERS5_m, symObjAddr: 0x1E50, symBinAddr: 0x100003370, symSize: 0x40 }
  - { offsetInCU: 0xAECE, offset: 0xAECE, size: 0x8, addend: 0x0, symName: __ZNSt3__117__libcpp_allocateB8ue170006Emm, symObjAddr: 0x1F60, symBinAddr: 0x100003480, symSize: 0x60 }
  - { offsetInCU: 0xAF28, offset: 0xAF28, size: 0x8, addend: 0x0, symName: __ZNSt3__121__libcpp_operator_newB8ue170006IJmSt11align_val_tEEEPvDpT_, symObjAddr: 0x1FC0, symBinAddr: 0x1000034E0, symSize: 0x30 }
  - { offsetInCU: 0xAF75, offset: 0xAF75, size: 0x8, addend: 0x0, symName: __ZNSt3__121__libcpp_operator_newB8ue170006IJmEEEPvDpT_, symObjAddr: 0x1FF0, symBinAddr: 0x100003510, symSize: 0x20 }
  - { offsetInCU: 0xAFAE, offset: 0xAFAE, size: 0x8, addend: 0x0, symName: __ZNSt3__16fill_nB8ue170006INS_6vectorIbNS_9allocatorIbEEEEEEvNS_14__bit_iteratorIT_Lb0EXLi0EEEENS6_9size_typeEb, symObjAddr: 0x2070, symBinAddr: 0x100003590, symSize: 0x80 }
  - { offsetInCU: 0xB000, offset: 0xB000, size: 0x8, addend: 0x0, symName: __ZNSt3__13minB8ue170006ImEERKT_S3_S3_, symObjAddr: 0x23F0, symBinAddr: 0x100003910, symSize: 0x30 }
  - { offsetInCU: 0xB043, offset: 0xB043, size: 0x8, addend: 0x0, symName: __ZNSt3__16fill_nB8ue170006IPmmmEET_S2_T0_RKT1_, symObjAddr: 0x2420, symBinAddr: 0x100003940, symSize: 0x40 }
  - { offsetInCU: 0xB0A6, offset: 0xB0A6, size: 0x8, addend: 0x0, symName: __ZNSt3__112__to_addressB8ue170006ImEEPT_S2_, symObjAddr: 0x2460, symBinAddr: 0x100003980, symSize: 0x10 }
  - { offsetInCU: 0xB0DB, offset: 0xB0DB, size: 0x8, addend: 0x0, symName: __ZNSt3__13minB8ue170006ImNS_6__lessIvvEEEERKT_S5_S5_T0_, symObjAddr: 0x2470, symBinAddr: 0x100003990, symSize: 0x50 }
  - { offsetInCU: 0xB135, offset: 0xB135, size: 0x8, addend: 0x0, symName: __ZNSt3__18__fill_nB8ue170006IPmmmEET_S2_T0_RKT1_, symObjAddr: 0x24F0, symBinAddr: 0x100003A10, symSize: 0x50 }
  - { offsetInCU: 0xB198, offset: 0xB198, size: 0x8, addend: 0x0, symName: __ZNSt3__121__convert_to_integralB8ue170006Em, symObjAddr: 0x2540, symBinAddr: 0x100003A60, symSize: 0x10 }
  - { offsetInCU: 0xB1C4, offset: 0xB1C4, size: 0x8, addend: 0x0, symName: __ZNSt3__16fill_nB8ue170006IPmmiEET_S2_T0_RKT1_, symObjAddr: 0x2580, symBinAddr: 0x100003AA0, symSize: 0x40 }
  - { offsetInCU: 0xB227, offset: 0xB227, size: 0x8, addend: 0x0, symName: __ZNSt3__18__fill_nB8ue170006IPmmiEET_S2_T0_RKT1_, symObjAddr: 0x25C0, symBinAddr: 0x100003AE0, symSize: 0x50 }
  - { offsetInCU: 0xB28A, offset: 0xB28A, size: 0x8, addend: 0x0, symName: __ZNSt3__1eqB8ue170006IPlEEbRKNS_11__wrap_iterIT_EES6_, symObjAddr: 0x2670, symBinAddr: 0x100003B90, symSize: 0x40 }
  - { offsetInCU: 0xB2F2, offset: 0xB2F2, size: 0x8, addend: 0x0, symName: __ZNSt3__112construct_atB8ue170006IlJlEPlEEPT_S3_DpOT0_, symObjAddr: 0x2920, symBinAddr: 0x100003E40, symSize: 0x30 }
  - { offsetInCU: 0xB362, offset: 0xB362, size: 0x8, addend: 0x0, symName: __ZNSt3__13maxB8ue170006ImEERKT_S3_S3_, symObjAddr: 0x2C10, symBinAddr: 0x100004130, symSize: 0x30 }
  - { offsetInCU: 0xB58F, offset: 0xB58F, size: 0x8, addend: 0x0, symName: __ZNSt3__13maxB8ue170006ImNS_6__lessIvvEEEERKT_S5_S5_T0_, symObjAddr: 0x2CD0, symBinAddr: 0x1000041F0, symSize: 0x50 }
  - { offsetInCU: 0xB5E9, offset: 0xB5E9, size: 0x8, addend: 0x0, symName: __ZNSt3__119__allocate_at_leastB8ue170006INS_9allocatorIlEEEEDaRT_m, symObjAddr: 0x2E20, symBinAddr: 0x100004340, symSize: 0x40 }
  - { offsetInCU: 0xB62C, offset: 0xB62C, size: 0x8, addend: 0x0, symName: __ZNSt3__117allocate_at_leastB8ue170006INS_9allocatorIlEEEENS_17allocation_resultINS_16allocator_traitsIT_E7pointerEEERS5_m, symObjAddr: 0x2F20, symBinAddr: 0x100004440, symSize: 0x40 }
  - { offsetInCU: 0xB66F, offset: 0xB66F, size: 0x8, addend: 0x0, symName: __ZNSt3__142__uninitialized_allocator_move_if_noexceptB8ue170006INS_9allocatorIlEENS_16reverse_iteratorIPlEES5_lvEET1_RT_T0_S9_S6_, symObjAddr: 0x3050, symBinAddr: 0x100004570, symSize: 0x70 }
  - { offsetInCU: 0xB6EB, offset: 0xB6EB, size: 0x8, addend: 0x0, symName: __ZNSt3__14swapB8ue170006IPlEENS_9enable_ifIXaasr21is_move_constructibleIT_EE5valuesr18is_move_assignableIS3_EE5valueEvE4typeERS3_S6_, symObjAddr: 0x3110, symBinAddr: 0x100004630, symSize: 0x40 }
  - { offsetInCU: 0xB73C, offset: 0xB73C, size: 0x8, addend: 0x0, symName: __ZNSt3__14moveB8ue170006INS_16reverse_iteratorIPlEES3_EET0_T_S5_S4_, symObjAddr: 0x3200, symBinAddr: 0x100004720, symSize: 0x80 }
  - { offsetInCU: 0xB796, offset: 0xB796, size: 0x8, addend: 0x0, symName: __ZNSt3__16__moveB8ue170006INS_17_ClassicAlgPolicyENS_16reverse_iteratorIPlEES4_S4_EENS_4pairIT0_T2_EES6_T1_S7_, symObjAddr: 0x3280, symBinAddr: 0x1000047A0, symSize: 0x90 }
  - { offsetInCU: 0xB802, offset: 0xB802, size: 0x8, addend: 0x0, symName: __ZNSt3__123__dispatch_copy_or_moveB8ue170006INS_17_ClassicAlgPolicyENS_11__move_loopIS1_EENS_14__move_trivialENS_16reverse_iteratorIPlEES7_S7_EENS_4pairIT2_T4_EES9_T3_SA_, symObjAddr: 0x3310, symBinAddr: 0x100004830, symSize: 0x90 }
  - { offsetInCU: 0xB880, offset: 0xB880, size: 0x8, addend: 0x0, symName: __ZNSt3__121__unwrap_and_dispatchB8ue170006INS_10__overloadINS_11__move_loopINS_17_ClassicAlgPolicyEEENS_14__move_trivialEEENS_16reverse_iteratorIPlEES9_S9_Li0EEENS_4pairIT0_T2_EESB_T1_SC_, symObjAddr: 0x33A0, symBinAddr: 0x1000048C0, symSize: 0x210 }
  - { offsetInCU: 0xB90F, offset: 0xB90F, size: 0x8, addend: 0x0, symName: __ZNSt3__114__unwrap_rangeB8ue170006INS_16reverse_iteratorIPlEES3_EEDaT_T0_, symObjAddr: 0x35B0, symBinAddr: 0x100004AD0, symSize: 0x60 }
  - { offsetInCU: 0xBACE, offset: 0xBACE, size: 0x8, addend: 0x0, symName: __ZNSt3__113__unwrap_iterB8ue170006INS_16reverse_iteratorIPlEENS_18__unwrap_iter_implIS3_Lb0EEELi0EEEDTclsrT0_8__unwrapclsr3stdE7declvalIT_EEEES7_, symObjAddr: 0x36B0, symBinAddr: 0x100004BD0, symSize: 0x40 }
  - { offsetInCU: 0xBB12, offset: 0xBB12, size: 0x8, addend: 0x0, symName: __ZNSt3__19make_pairB8ue170006INS_16reverse_iteratorIPlEES3_EENS_4pairINS_18__unwrap_ref_decayIT_E4typeENS5_IT0_E4typeEEEOS6_OS9_, symObjAddr: 0x36F0, symBinAddr: 0x100004C10, symSize: 0x30 }
  - { offsetInCU: 0xBB61, offset: 0xBB61, size: 0x8, addend: 0x0, symName: __ZNSt3__114__rewrap_rangeB8ue170006INS_16reverse_iteratorIPlEES3_S3_EET0_S4_T1_, symObjAddr: 0x3720, symBinAddr: 0x100004C40, symSize: 0x60 }
  - { offsetInCU: 0xBBB6, offset: 0xBBB6, size: 0x8, addend: 0x0, symName: __ZNSt3__113__rewrap_iterB8ue170006INS_16reverse_iteratorIPlEES3_NS_18__unwrap_iter_implIS3_Lb0EEEEET_S6_T0_, symObjAddr: 0x3780, symBinAddr: 0x100004CA0, symSize: 0x70 }
  - { offsetInCU: 0xBC5B, offset: 0xBC5B, size: 0x8, addend: 0x0, symName: __ZNSt3__1neB8ue170006IPlS1_EEbRKNS_16reverse_iteratorIT_EERKNS2_IT0_EE, symObjAddr: 0x38F0, symBinAddr: 0x100004E10, symSize: 0x40 }
  - { offsetInCU: 0xBD13, offset: 0xBD13, size: 0x8, addend: 0x0, symName: __ZNSt3__1eqB8ue170006IPiEEbRKNS_11__wrap_iterIT_EES6_, symObjAddr: 0x3E20, symBinAddr: 0x100005340, symSize: 0x40 }
  - { offsetInCU: 0xBD56, offset: 0xBD56, size: 0x8, addend: 0x0, symName: __ZNSt3__19use_facetB8ue170006INS_5ctypeIcEEEERKT_RKNS_6localeE, symObjAddr: 0x3F20, symBinAddr: 0x100005440, symSize: 0x30 }
  - { offsetInCU: 0xC223, offset: 0xC223, size: 0x8, addend: 0x0, symName: __ZNSt3__116__pad_and_outputB8ue170006IcNS_11char_traitsIcEEEENS_19ostreambuf_iteratorIT_T0_EES6_PKS4_S8_S8_RNS_8ios_baseES4_, symObjAddr: 0x4190, symBinAddr: 0x1000056B0, symSize: 0x220 }
  - { offsetInCU: 0xC2F3, offset: 0xC2F3, size: 0x8, addend: 0x0, symName: __ZNSt3__112__to_addressB8ue170006IcEEPT_S2_, symObjAddr: 0x46B0, symBinAddr: 0x100005BD0, symSize: 0x10 }
  - { offsetInCU: 0xC328, offset: 0xC328, size: 0x8, addend: 0x0, symName: __ZNSt3__120__throw_out_of_rangeB8ue170006EPKc, symObjAddr: 0x4970, symBinAddr: 0x100005E90, symSize: 0x70 }
  - { offsetInCU: 0xC352, offset: 0xC352, size: 0x8, addend: 0x0, symName: __ZNSt3__118__constexpr_strlenB8ue170006EPKc, symObjAddr: 0x4B30, symBinAddr: 0x100006050, symSize: 0x20 }
  - { offsetInCU: 0xC3B1, offset: 0xC3B1, size: 0x8, addend: 0x0, symName: __ZNSt3__1eqB8ue170006ERKNS_15__list_iteratorIiPvEES4_, symObjAddr: 0x4C90, symBinAddr: 0x1000061B0, symSize: 0x30 }
  - { offsetInCU: 0xC83F, offset: 0xC83F, size: 0x8, addend: 0x0, symName: __ZSt28__throw_bad_array_new_lengthB8ue170006v, symObjAddr: 0x1F20, symBinAddr: 0x100003440, symSize: 0x40 }
  - { offsetInCU: 0xCA2F, offset: 0xCA2F, size: 0x8, addend: 0x0, symName: __ZN10primesieve5limitE, symObjAddr: 0x4EB0, symBinAddr: 0x100010008, symSize: 0x0 }
  - { offsetInCU: 0xCA42, offset: 0xCA42, size: 0x8, addend: 0x0, symName: __ZN10primesieve6primesE, symObjAddr: 0x3F7A0, symBinAddr: 0x100010010, symSize: 0x0 }
  - { offsetInCU: 0xCEA6, offset: 0xCEA6, size: 0x8, addend: 0x0, symName: __ZNSt3__16vectorIlNS_9allocatorIlEEE26__swap_out_circular_bufferERNS_14__split_bufferIlRS2_EE, symObjAddr: 0x2A50, symBinAddr: 0x100003F70, symSize: 0x120 }
  - { offsetInCU: 0xF552, offset: 0xF552, size: 0x8, addend: 0x0, symName: __Z6spaceri, symObjAddr: 0x0, symBinAddr: 0x100001520, symSize: 0xB0 }
  - { offsetInCU: 0xF5CF, offset: 0xF5CF, size: 0x8, addend: 0x0, symName: __ZNSt3__113basic_ostreamIcNS_11char_traitsIcEEElsB8ue170006EPFRS3_S4_E, symObjAddr: 0xB0, symBinAddr: 0x1000015D0, symSize: 0x20 }
  - { offsetInCU: 0xF602, offset: 0xF602, size: 0x8, addend: 0x0, symName: __Z7isPrimei, symObjAddr: 0x150, symBinAddr: 0x100001670, symSize: 0xC0 }
  - { offsetInCU: 0xF658, offset: 0xF658, size: 0x8, addend: 0x0, symName: __Z4sqrtB8ue170006IiENSt3__19enable_ifIXsr3std11is_integralIT_EE5valueEdE4typeES2_, symObjAddr: 0x210, symBinAddr: 0x100001730, symSize: 0x20 }
  - { offsetInCU: 0xF690, offset: 0xF690, size: 0x8, addend: 0x0, symName: __ZNSt3__16vectorIlNS_9allocatorIlEEED1B8ue170006Ev, symObjAddr: 0x230, symBinAddr: 0x100001750, symSize: 0x20 }
  - { offsetInCU: 0xF6BA, offset: 0xF6BA, size: 0x8, addend: 0x0, symName: __ZN10primesieve7isPrimeEl, symObjAddr: 0x250, symBinAddr: 0x100001770, symSize: 0x4A0 }
  - { offsetInCU: 0xF7EE, offset: 0xF7EE, size: 0x8, addend: 0x0, symName: __ZNSt3__16vectorIlNS_9allocatorIlEEE5beginB8ue170006Ev, symObjAddr: 0x730, symBinAddr: 0x100001C50, symSize: 0x30 }
  - { offsetInCU: 0xF816, offset: 0xF816, size: 0x8, addend: 0x0, symName: __ZNSt3__16vectorIlNS_9allocatorIlEEE3endB8ue170006Ev, symObjAddr: 0x760, symBinAddr: 0x100001C80, symSize: 0x30 }
  - { offsetInCU: 0xF83E, offset: 0xF83E, size: 0x8, addend: 0x0, symName: __ZNSt3__16vectorIbNS_9allocatorIbEEEC1EmRKb, symObjAddr: 0x790, symBinAddr: 0x100001CB0, symSize: 0x30 }
  - { offsetInCU: 0xF888, offset: 0xF888, size: 0x8, addend: 0x0, symName: __ZNKSt3__111__wrap_iterIPlEdeB8ue170006Ev, symObjAddr: 0x7F0, symBinAddr: 0x100001D10, symSize: 0x20 }
  - { offsetInCU: 0xF8AE, offset: 0xF8AE, size: 0x8, addend: 0x0, symName: __ZNSt3__16vectorIbNS_9allocatorIbEEE2atEm, symObjAddr: 0x810, symBinAddr: 0x100001D30, symSize: 0x70 }
  - { offsetInCU: 0xF8E5, offset: 0xF8E5, size: 0x8, addend: 0x0, symName: __ZNSt3__115__bit_referenceINS_6vectorIbNS_9allocatorIbEEEELb1EEaSB8ue170006Eb, symObjAddr: 0x880, symBinAddr: 0x100001DA0, symSize: 0x60 }
  - { offsetInCU: 0xF919, offset: 0xF919, size: 0x8, addend: 0x0, symName: __ZNSt3__111__wrap_iterIPlEppB8ue170006Ev, symObjAddr: 0x8E0, symBinAddr: 0x100001E00, symSize: 0x20 }
  - { offsetInCU: 0xF93F, offset: 0xF93F, size: 0x8, addend: 0x0, symName: __ZNKSt3__115__bit_referenceINS_6vectorIbNS_9allocatorIbEEEELb1EEcvbB8ue170006Ev, symObjAddr: 0x900, symBinAddr: 0x100001E20, symSize: 0x30 }
  - { offsetInCU: 0xF965, offset: 0xF965, size: 0x8, addend: 0x0, symName: __ZNSt3__16vectorIlNS_9allocatorIlEEE9push_backB8ue170006EOl, symObjAddr: 0x930, symBinAddr: 0x100001E50, symSize: 0x60 }
  - { offsetInCU: 0xF99C, offset: 0xF99C, size: 0x8, addend: 0x0, symName: __ZNSt3__16vectorIbNS_9allocatorIbEEED1B8ue170006Ev, symObjAddr: 0x990, symBinAddr: 0x100001EB0, symSize: 0x20 }
  - { offsetInCU: 0xF9C6, offset: 0xF9C6, size: 0x8, addend: 0x0, symName: __ZN10primesieve11setStepsizeEl, symObjAddr: 0x9B0, symBinAddr: 0x100001ED0, symSize: 0x20 }
  - { offsetInCU: 0xF9EA, offset: 0xF9EA, size: 0x8, addend: 0x0, symName: __ZlsINSt3__16vectorIiNS0_9allocatorIiEEEEERNS0_13basic_ostreamIcNS0_11char_traitsIcEEEES9_T_, symObjAddr: 0x9D0, symBinAddr: 0x100001EF0, symSize: 0x110 }
  - { offsetInCU: 0xFA3D, offset: 0xFA3D, size: 0x8, addend: 0x0, symName: __ZNSt3__16vectorIiNS_9allocatorIiEEE5beginB8ue170006Ev, symObjAddr: 0xB20, symBinAddr: 0x100002040, symSize: 0x30 }
  - { offsetInCU: 0xFA65, offset: 0xFA65, size: 0x8, addend: 0x0, symName: __ZNSt3__16vectorIiNS_9allocatorIiEEE3endB8ue170006Ev, symObjAddr: 0xB80, symBinAddr: 0x1000020A0, symSize: 0x30 }
  - { offsetInCU: 0xFA8D, offset: 0xFA8D, size: 0x8, addend: 0x0, symName: __ZNSt3__111__wrap_iterIPiEppB8ue170006Ei, symObjAddr: 0xBB0, symBinAddr: 0x1000020D0, symSize: 0x30 }
  - { offsetInCU: 0xFACB, offset: 0xFACB, size: 0x8, addend: 0x0, symName: __ZNKSt3__111__wrap_iterIPiEdeB8ue170006Ev, symObjAddr: 0xBE0, symBinAddr: 0x100002100, symSize: 0x20 }
  - { offsetInCU: 0xFAF0, offset: 0xFAF0, size: 0x8, addend: 0x0, symName: __ZlsINSt3__14listIiNS0_9allocatorIiEEEEERNS0_13basic_ostreamIcNS0_11char_traitsIcEEEES9_T_, symObjAddr: 0xC00, symBinAddr: 0x100002120, symSize: 0x110 }
  - { offsetInCU: 0xFB84, offset: 0xFB84, size: 0x8, addend: 0x0, symName: __ZNSt3__14listIiNS_9allocatorIiEEE5beginB8ue170006Ev, symObjAddr: 0xD10, symBinAddr: 0x100002230, symSize: 0x30 }
  - { offsetInCU: 0xFBAA, offset: 0xFBAA, size: 0x8, addend: 0x0, symName: __ZNSt3__14listIiNS_9allocatorIiEEE3endB8ue170006Ev, symObjAddr: 0xD70, symBinAddr: 0x100002290, symSize: 0x30 }
  - { offsetInCU: 0xFBD0, offset: 0xFBD0, size: 0x8, addend: 0x0, symName: __ZNSt3__115__list_iteratorIiPvEppB8ue170006Ei, symObjAddr: 0xDA0, symBinAddr: 0x1000022C0, symSize: 0x30 }
  - { offsetInCU: 0xFC10, offset: 0xFC10, size: 0x8, addend: 0x0, symName: __ZNKSt3__115__list_iteratorIiPvEdeB8ue170006Ev, symObjAddr: 0xDD0, symBinAddr: 0x1000022F0, symSize: 0x30 }
  - { offsetInCU: 0xFC36, offset: 0xFC36, size: 0x8, addend: 0x0, symName: __ZNSt3__16vectorIlNS_9allocatorIlEEED2B8ue170006Ev, symObjAddr: 0xE00, symBinAddr: 0x100002320, symSize: 0x40 }
  - { offsetInCU: 0xFC60, offset: 0xFC60, size: 0x8, addend: 0x0, symName: __ZNSt3__16vectorIlNS_9allocatorIlEEE16__destroy_vectorC1B8ue170006ERS3_, symObjAddr: 0xE40, symBinAddr: 0x100002360, symSize: 0x30 }
  - { offsetInCU: 0xFC99, offset: 0xFC99, size: 0x8, addend: 0x0, symName: __ZNSt3__16vectorIlNS_9allocatorIlEEE16__destroy_vectorclB8ue170006Ev, symObjAddr: 0xE80, symBinAddr: 0x1000023A0, symSize: 0x80 }
  - { offsetInCU: 0xFCBF, offset: 0xFCBF, size: 0x8, addend: 0x0, symName: __ZNSt3__16vectorIlNS_9allocatorIlEEE16__destroy_vectorC2B8ue170006ERS3_, symObjAddr: 0xF00, symBinAddr: 0x100002420, symSize: 0x20 }
  - { offsetInCU: 0xFCF8, offset: 0xFCF8, size: 0x8, addend: 0x0, symName: __ZNSt3__16vectorIlNS_9allocatorIlEEE7__clearB8ue170006Ev, symObjAddr: 0xF20, symBinAddr: 0x100002440, symSize: 0x20 }
  - { offsetInCU: 0xFD1E, offset: 0xFD1E, size: 0x8, addend: 0x0, symName: __ZNKSt3__16vectorIlNS_9allocatorIlEEE17__annotate_deleteB8ue170006Ev, symObjAddr: 0xF40, symBinAddr: 0x100002460, symSize: 0xB0 }
  - { offsetInCU: 0xFD44, offset: 0xFD44, size: 0x8, addend: 0x0, symName: __ZNSt3__116allocator_traitsINS_9allocatorIlEEE10deallocateB8ue170006ERS2_Plm, symObjAddr: 0xFF0, symBinAddr: 0x100002510, symSize: 0x30 }
  - { offsetInCU: 0xFD86, offset: 0xFD86, size: 0x8, addend: 0x0, symName: __ZNSt3__16vectorIlNS_9allocatorIlEEE7__allocB8ue170006Ev, symObjAddr: 0x1020, symBinAddr: 0x100002540, symSize: 0x20 }
  - { offsetInCU: 0xFDAC, offset: 0xFDAC, size: 0x8, addend: 0x0, symName: __ZNKSt3__16vectorIlNS_9allocatorIlEEE8capacityB8ue170006Ev, symObjAddr: 0x1040, symBinAddr: 0x100002560, symSize: 0x30 }
  - { offsetInCU: 0xFDD2, offset: 0xFDD2, size: 0x8, addend: 0x0, symName: __ZNSt3__16vectorIlNS_9allocatorIlEEE22__base_destruct_at_endB8ue170006EPl, symObjAddr: 0x1070, symBinAddr: 0x100002590, symSize: 0x80 }
  - { offsetInCU: 0xFE16, offset: 0xFE16, size: 0x8, addend: 0x0, symName: __ZNSt3__116allocator_traitsINS_9allocatorIlEEE7destroyB8ue170006IlvvEEvRS2_PT_, symObjAddr: 0x10F0, symBinAddr: 0x100002610, symSize: 0x20 }
  - { offsetInCU: 0xFE50, offset: 0xFE50, size: 0x8, addend: 0x0, symName: __ZNKSt3__16vectorIlNS_9allocatorIlEEE31__annotate_contiguous_containerB8ue170006EPKvS5_S5_S5_, symObjAddr: 0x1150, symBinAddr: 0x100002670, symSize: 0x20 }
  - { offsetInCU: 0xFEA2, offset: 0xFEA2, size: 0x8, addend: 0x0, symName: __ZNKSt3__16vectorIlNS_9allocatorIlEEE4dataB8ue170006Ev, symObjAddr: 0x1170, symBinAddr: 0x100002690, symSize: 0x20 }
  - { offsetInCU: 0xFEC8, offset: 0xFEC8, size: 0x8, addend: 0x0, symName: __ZNKSt3__16vectorIlNS_9allocatorIlEEE4sizeB8ue170006Ev, symObjAddr: 0x1190, symBinAddr: 0x1000026B0, symSize: 0x20 }
  - { offsetInCU: 0xFEEE, offset: 0xFEEE, size: 0x8, addend: 0x0, symName: __ZNSt3__19allocatorIlE10deallocateB8ue170006EPlm, symObjAddr: 0x11B0, symBinAddr: 0x1000026D0, symSize: 0x40 }
  - { offsetInCU: 0xFF30, offset: 0xFF30, size: 0x8, addend: 0x0, symName: __ZNSt3__117__compressed_pairIPlNS_9allocatorIlEEE6secondB8ue170006Ev, symObjAddr: 0x1310, symBinAddr: 0x100002830, symSize: 0x20 }
  - { offsetInCU: 0xFF56, offset: 0xFF56, size: 0x8, addend: 0x0, symName: __ZNSt3__122__compressed_pair_elemINS_9allocatorIlEELi1ELb1EE5__getB8ue170006Ev, symObjAddr: 0x1330, symBinAddr: 0x100002850, symSize: 0x10 }
  - { offsetInCU: 0xFF7C, offset: 0xFF7C, size: 0x8, addend: 0x0, symName: __ZNKSt3__16vectorIlNS_9allocatorIlEEE9__end_capB8ue170006Ev, symObjAddr: 0x1340, symBinAddr: 0x100002860, symSize: 0x20 }
  - { offsetInCU: 0xFFA2, offset: 0xFFA2, size: 0x8, addend: 0x0, symName: __ZNKSt3__117__compressed_pairIPlNS_9allocatorIlEEE5firstB8ue170006Ev, symObjAddr: 0x1360, symBinAddr: 0x100002880, symSize: 0x20 }
  - { offsetInCU: 0xFFC8, offset: 0xFFC8, size: 0x8, addend: 0x0, symName: __ZNKSt3__122__compressed_pair_elemIPlLi0ELb0EE5__getB8ue170006Ev, symObjAddr: 0x1380, symBinAddr: 0x1000028A0, symSize: 0x10 }
  - { offsetInCU: 0xFFFD, offset: 0xFFFD, size: 0x8, addend: 0x0, symName: __ZNKSt3__16__lessIvvEclB8ue170006IllEEbRKT_RKT0_, symObjAddr: 0x1490, symBinAddr: 0x1000029B0, symSize: 0x30 }
  - { offsetInCU: 0x10051, offset: 0x10051, size: 0x8, addend: 0x0, symName: __ZNSt3__18_IterOpsINS_17_ClassicAlgPolicyEE8distanceB8ue170006INS_11__wrap_iterIPlEEEENS_15iterator_traitsIT_E15difference_typeES8_S8_, symObjAddr: 0x15C0, symBinAddr: 0x100002AE0, symSize: 0x40 }
  - { offsetInCU: 0x1008B, offset: 0x1008B, size: 0x8, addend: 0x0, symName: __ZNSt3__18_IterOpsINS_17_ClassicAlgPolicyEE7advanceB8ue170006INS_11__wrap_iterIPlEElEEvRT_T0_, symObjAddr: 0x1620, symBinAddr: 0x100002B40, symSize: 0x30 }
  - { offsetInCU: 0x100CE, offset: 0x100CE, size: 0x8, addend: 0x0, symName: __ZNKSt3__111__wrap_iterIPlE4baseB8ue170006Ev, symObjAddr: 0x1760, symBinAddr: 0x100002C80, symSize: 0x20 }
  - { offsetInCU: 0x100F4, offset: 0x100F4, size: 0x8, addend: 0x0, symName: __ZNSt3__111__wrap_iterIPlEpLB8ue170006El, symObjAddr: 0x17F0, symBinAddr: 0x100002D10, symSize: 0x20 }
  - { offsetInCU: 0x10132, offset: 0x10132, size: 0x8, addend: 0x0, symName: __ZNKSt3__110__identityclB8ue170006IRlEEOT_S4_, symObjAddr: 0x1810, symBinAddr: 0x100002D30, symSize: 0x20 }
  - { offsetInCU: 0x1016F, offset: 0x1016F, size: 0x8, addend: 0x0, symName: __ZNSt3__16vectorIlNS_9allocatorIlEEE11__make_iterB8ue170006EPl, symObjAddr: 0x1830, symBinAddr: 0x100002D50, symSize: 0x30 }
  - { offsetInCU: 0x101A4, offset: 0x101A4, size: 0x8, addend: 0x0, symName: __ZNSt3__111__wrap_iterIPlEC1B8ue170006ES1_, symObjAddr: 0x1860, symBinAddr: 0x100002D80, symSize: 0x30 }
  - { offsetInCU: 0x101DC, offset: 0x101DC, size: 0x8, addend: 0x0, symName: __ZNSt3__111__wrap_iterIPlEC2B8ue170006ES1_, symObjAddr: 0x1890, symBinAddr: 0x100002DB0, symSize: 0x20 }
  - { offsetInCU: 0x10214, offset: 0x10214, size: 0x8, addend: 0x0, symName: __ZNSt3__16vectorIbNS_9allocatorIbEEEC2EmRKb, symObjAddr: 0x18B0, symBinAddr: 0x100002DD0, symSize: 0x80 }
  - { offsetInCU: 0x10268, offset: 0x10268, size: 0x8, addend: 0x0, symName: __ZNSt3__117__compressed_pairImNS_9allocatorImEEEC1B8ue170006IiNS_18__default_init_tagEEEOT_OT0_, symObjAddr: 0x1930, symBinAddr: 0x100002E50, symSize: 0x30 }
  - { offsetInCU: 0x102C0, offset: 0x102C0, size: 0x8, addend: 0x0, symName: __ZNSt3__16vectorIbNS_9allocatorIbEEE11__vallocateB8ue170006Em, symObjAddr: 0x1960, symBinAddr: 0x100002E80, symSize: 0xA0 }
  - { offsetInCU: 0x10304, offset: 0x10304, size: 0x8, addend: 0x0, symName: __ZNSt3__16vectorIbNS_9allocatorIbEEE18__construct_at_endB8ue170006Emb, symObjAddr: 0x1A00, symBinAddr: 0x100002F20, symSize: 0xE0 }
  - { offsetInCU: 0x10359, offset: 0x10359, size: 0x8, addend: 0x0, symName: __ZNSt3__117__compressed_pairImNS_9allocatorImEEEC2B8ue170006IiNS_18__default_init_tagEEEOT_OT0_, symObjAddr: 0x1AE0, symBinAddr: 0x100003000, symSize: 0x40 }
  - { offsetInCU: 0x103B1, offset: 0x103B1, size: 0x8, addend: 0x0, symName: __ZNSt3__122__compressed_pair_elemImLi0ELb0EEC2B8ue170006IivEEOT_, symObjAddr: 0x1B20, symBinAddr: 0x100003040, symSize: 0x20 }
  - { offsetInCU: 0x103F3, offset: 0x103F3, size: 0x8, addend: 0x0, symName: __ZNSt3__122__compressed_pair_elemINS_9allocatorImEELi1ELb1EEC2B8ue170006ENS_18__default_init_tagE, symObjAddr: 0x1B40, symBinAddr: 0x100003060, symSize: 0x20 }
  - { offsetInCU: 0x10427, offset: 0x10427, size: 0x8, addend: 0x0, symName: __ZNSt3__19allocatorImEC2B8ue170006Ev, symObjAddr: 0x1B60, symBinAddr: 0x100003080, symSize: 0x20 }
  - { offsetInCU: 0x10451, offset: 0x10451, size: 0x8, addend: 0x0, symName: __ZNSt3__116__non_trivial_ifILb1ENS_9allocatorImEEEC2B8ue170006Ev, symObjAddr: 0x1B80, symBinAddr: 0x1000030A0, symSize: 0x10 }
  - { offsetInCU: 0x1047B, offset: 0x1047B, size: 0x8, addend: 0x0, symName: __ZNKSt3__16vectorIbNS_9allocatorIbEEE8max_sizeEv, symObjAddr: 0x1B90, symBinAddr: 0x1000030B0, symSize: 0x70 }
  - { offsetInCU: 0x104C1, offset: 0x104C1, size: 0x8, addend: 0x0, symName: __ZNKSt3__16vectorIbNS_9allocatorIbEEE20__throw_length_errorB8ue170006Ev, symObjAddr: 0x1C00, symBinAddr: 0x100003120, symSize: 0x20 }
  - { offsetInCU: 0x104E7, offset: 0x104E7, size: 0x8, addend: 0x0, symName: __ZNSt3__16vectorIbNS_9allocatorIbEEE7__allocB8ue170006Ev, symObjAddr: 0x1C60, symBinAddr: 0x100003180, symSize: 0x20 }
  - { offsetInCU: 0x1050D, offset: 0x1050D, size: 0x8, addend: 0x0, symName: __ZNSt3__16vectorIbNS_9allocatorIbEEE26__external_cap_to_internalB8ue170006Em, symObjAddr: 0x1C80, symBinAddr: 0x1000031A0, symSize: 0x20 }
  - { offsetInCU: 0x10531, offset: 0x10531, size: 0x8, addend: 0x0, symName: __ZNSt3__16vectorIbNS_9allocatorIbEEE5__capB8ue170006Ev, symObjAddr: 0x1CA0, symBinAddr: 0x1000031C0, symSize: 0x20 }
  - { offsetInCU: 0x10561, offset: 0x10561, size: 0x8, addend: 0x0, symName: __ZNSt3__116allocator_traitsINS_9allocatorImEEE8max_sizeB8ue170006IS2_vvEEmRKS2_, symObjAddr: 0x1CC0, symBinAddr: 0x1000031E0, symSize: 0x20 }
  - { offsetInCU: 0x1058C, offset: 0x1058C, size: 0x8, addend: 0x0, symName: __ZNKSt3__16vectorIbNS_9allocatorIbEEE7__allocB8ue170006Ev, symObjAddr: 0x1CE0, symBinAddr: 0x100003200, symSize: 0x20 }
  - { offsetInCU: 0x105B2, offset: 0x105B2, size: 0x8, addend: 0x0, symName: __ZNSt3__114numeric_limitsImE3maxB8ue170006Ev, symObjAddr: 0x1D00, symBinAddr: 0x100003220, symSize: 0x10 }
  - { offsetInCU: 0x105C6, offset: 0x105C6, size: 0x8, addend: 0x0, symName: __ZNSt3__16vectorIbNS_9allocatorIbEEE26__internal_cap_to_externalB8ue170006Em, symObjAddr: 0x1D10, symBinAddr: 0x100003230, symSize: 0x20 }
  - { offsetInCU: 0x105EA, offset: 0x105EA, size: 0x8, addend: 0x0, symName: __ZNKSt3__117__compressed_pairImNS_9allocatorImEEE6secondB8ue170006Ev, symObjAddr: 0x1D30, symBinAddr: 0x100003250, symSize: 0x20 }
  - { offsetInCU: 0x10610, offset: 0x10610, size: 0x8, addend: 0x0, symName: __ZNKSt3__122__compressed_pair_elemINS_9allocatorImEELi1ELb1EE5__getB8ue170006Ev, symObjAddr: 0x1D50, symBinAddr: 0x100003270, symSize: 0x10 }
  - { offsetInCU: 0x10636, offset: 0x10636, size: 0x8, addend: 0x0, symName: __ZNSt3__123__libcpp_numeric_limitsImLb1EE3maxB8ue170006Ev, symObjAddr: 0x1D60, symBinAddr: 0x100003280, symSize: 0x10 }
  - { offsetInCU: 0x1064A, offset: 0x1064A, size: 0x8, addend: 0x0, symName: __ZNSt12length_errorC1B8ue170006EPKc, symObjAddr: 0x1DE0, symBinAddr: 0x100003300, symSize: 0x30 }
  - { offsetInCU: 0x10682, offset: 0x10682, size: 0x8, addend: 0x0, symName: __ZNSt12length_errorC2B8ue170006EPKc, symObjAddr: 0x1E10, symBinAddr: 0x100003330, symSize: 0x40 }
  - { offsetInCU: 0x106BA, offset: 0x106BA, size: 0x8, addend: 0x0, symName: __ZNSt3__19allocatorImE17allocate_at_leastB8ue170006Em, symObjAddr: 0x1E90, symBinAddr: 0x1000033B0, symSize: 0x40 }
  - { offsetInCU: 0x106EE, offset: 0x106EE, size: 0x8, addend: 0x0, symName: __ZNSt3__19allocatorImE8allocateB8ue170006Em, symObjAddr: 0x1ED0, symBinAddr: 0x1000033F0, symSize: 0x50 }
  - { offsetInCU: 0x10722, offset: 0x10722, size: 0x8, addend: 0x0, symName: __ZNSt3__117__compressed_pairImNS_9allocatorImEEE6secondB8ue170006Ev, symObjAddr: 0x2010, symBinAddr: 0x100003530, symSize: 0x20 }
  - { offsetInCU: 0x10748, offset: 0x10748, size: 0x8, addend: 0x0, symName: __ZNSt3__122__compressed_pair_elemINS_9allocatorImEELi1ELb1EE5__getB8ue170006Ev, symObjAddr: 0x2030, symBinAddr: 0x100003550, symSize: 0x10 }
  - { offsetInCU: 0x1076E, offset: 0x1076E, size: 0x8, addend: 0x0, symName: __ZNSt3__117__compressed_pairImNS_9allocatorImEEE5firstB8ue170006Ev, symObjAddr: 0x2040, symBinAddr: 0x100003560, symSize: 0x20 }
  - { offsetInCU: 0x10794, offset: 0x10794, size: 0x8, addend: 0x0, symName: __ZNSt3__122__compressed_pair_elemImLi0ELb0EE5__getB8ue170006Ev, symObjAddr: 0x2060, symBinAddr: 0x100003580, symSize: 0x10 }
  - { offsetInCU: 0x107BA, offset: 0x107BA, size: 0x8, addend: 0x0, symName: __ZNSt3__16vectorIbNS_9allocatorIbEEE11__make_iterB8ue170006Em, symObjAddr: 0x20F0, symBinAddr: 0x100003610, symSize: 0x50 }
  - { offsetInCU: 0x107EF, offset: 0x107EF, size: 0x8, addend: 0x0, symName: __ZNSt3__114__bit_iteratorINS_6vectorIbNS_9allocatorIbEEEELb0ELm0EEC1B8ue170006ERKS5_, symObjAddr: 0x2280, symBinAddr: 0x1000037A0, symSize: 0x30 }
  - { offsetInCU: 0x10828, offset: 0x10828, size: 0x8, addend: 0x0, symName: __ZNKSt3__16__lessIvvEclB8ue170006ImmEEbRKT_RKT0_, symObjAddr: 0x24C0, symBinAddr: 0x1000039E0, symSize: 0x30 }
  - { offsetInCU: 0x1087C, offset: 0x1087C, size: 0x8, addend: 0x0, symName: __ZNSt3__114__bit_iteratorINS_6vectorIbNS_9allocatorIbEEEELb0ELm0EEC2B8ue170006ERKS5_, symObjAddr: 0x2550, symBinAddr: 0x100003A70, symSize: 0x30 }
  - { offsetInCU: 0x108B5, offset: 0x108B5, size: 0x8, addend: 0x0, symName: __ZNSt3__114__bit_iteratorINS_6vectorIbNS_9allocatorIbEEEELb0ELm0EEC1B8ue170006EPmj, symObjAddr: 0x2610, symBinAddr: 0x100003B30, symSize: 0x30 }
  - { offsetInCU: 0x108FD, offset: 0x108FD, size: 0x8, addend: 0x0, symName: __ZNSt3__114__bit_iteratorINS_6vectorIbNS_9allocatorIbEEEELb0ELm0EEC2B8ue170006EPmj, symObjAddr: 0x2640, symBinAddr: 0x100003B60, symSize: 0x30 }
  - { offsetInCU: 0x10945, offset: 0x10945, size: 0x8, addend: 0x0, symName: __ZNSt3__16vectorIlNS_9allocatorIlEEE9__end_capB8ue170006Ev, symObjAddr: 0x26B0, symBinAddr: 0x100003BD0, symSize: 0x20 }
  - { offsetInCU: 0x10970, offset: 0x10970, size: 0x8, addend: 0x0, symName: __ZNSt3__16vectorIlNS_9allocatorIlEEE22__construct_one_at_endB8ue170006IJlEEEvDpOT_, symObjAddr: 0x26D0, symBinAddr: 0x100003BF0, symSize: 0x90 }
  - { offsetInCU: 0x109BF, offset: 0x109BF, size: 0x8, addend: 0x0, symName: __ZNSt3__16vectorIlNS_9allocatorIlEEE21__push_back_slow_pathIlEEvOT_, symObjAddr: 0x2760, symBinAddr: 0x100003C80, symSize: 0xD0 }
  - { offsetInCU: 0x10A1D, offset: 0x10A1D, size: 0x8, addend: 0x0, symName: __ZNSt3__117__compressed_pairIPlNS_9allocatorIlEEE5firstB8ue170006Ev, symObjAddr: 0x2830, symBinAddr: 0x100003D50, symSize: 0x20 }
  - { offsetInCU: 0x10A43, offset: 0x10A43, size: 0x8, addend: 0x0, symName: __ZNSt3__122__compressed_pair_elemIPlLi0ELb0EE5__getB8ue170006Ev, symObjAddr: 0x2850, symBinAddr: 0x100003D70, symSize: 0x10 }
  - { offsetInCU: 0x10A82, offset: 0x10A82, size: 0x8, addend: 0x0, symName: __ZNSt3__16vectorIlNS_9allocatorIlEEE21_ConstructTransactionC1B8ue170006ERS3_m, symObjAddr: 0x2860, symBinAddr: 0x100003D80, symSize: 0x30 }
  - { offsetInCU: 0x10ACA, offset: 0x10ACA, size: 0x8, addend: 0x0, symName: __ZNSt3__116allocator_traitsINS_9allocatorIlEEE9constructB8ue170006IlJlEvvEEvRS2_PT_DpOT0_, symObjAddr: 0x2890, symBinAddr: 0x100003DB0, symSize: 0x30 }
  - { offsetInCU: 0x10B1E, offset: 0x10B1E, size: 0x8, addend: 0x0, symName: __ZNSt3__16vectorIlNS_9allocatorIlEEE21_ConstructTransactionD1B8ue170006Ev, symObjAddr: 0x28C0, symBinAddr: 0x100003DE0, symSize: 0x20 }
  - { offsetInCU: 0x10B48, offset: 0x10B48, size: 0x8, addend: 0x0, symName: __ZNSt3__16vectorIlNS_9allocatorIlEEE21_ConstructTransactionC2B8ue170006ERS3_m, symObjAddr: 0x28E0, symBinAddr: 0x100003E00, symSize: 0x40 }
  - { offsetInCU: 0x10B90, offset: 0x10B90, size: 0x8, addend: 0x0, symName: __ZNSt3__16vectorIlNS_9allocatorIlEEE21_ConstructTransactionD2B8ue170006Ev, symObjAddr: 0x2950, symBinAddr: 0x100003E70, symSize: 0x20 }
  - { offsetInCU: 0x10BBA, offset: 0x10BBA, size: 0x8, addend: 0x0, symName: __ZNKSt3__16vectorIlNS_9allocatorIlEEE11__recommendB8ue170006Em, symObjAddr: 0x2970, symBinAddr: 0x100003E90, symSize: 0xA0 }
  - { offsetInCU: 0x10C0F, offset: 0x10C0F, size: 0x8, addend: 0x0, symName: __ZNSt3__114__split_bufferIlRNS_9allocatorIlEEEC1EmmS3_, symObjAddr: 0x2A10, symBinAddr: 0x100003F30, symSize: 0x40 }
  - { offsetInCU: 0x10C65, offset: 0x10C65, size: 0x8, addend: 0x0, symName: __ZNSt3__114__split_bufferIlRNS_9allocatorIlEEED1Ev, symObjAddr: 0x2B70, symBinAddr: 0x100004090, symSize: 0x20 }
  - { offsetInCU: 0x10C91, offset: 0x10C91, size: 0x8, addend: 0x0, symName: __ZNKSt3__16vectorIlNS_9allocatorIlEEE8max_sizeEv, symObjAddr: 0x2B90, symBinAddr: 0x1000040B0, symSize: 0x60 }
  - { offsetInCU: 0x10CB9, offset: 0x10CB9, size: 0x8, addend: 0x0, symName: __ZNKSt3__16vectorIlNS_9allocatorIlEEE20__throw_length_errorB8ue170006Ev, symObjAddr: 0x2BF0, symBinAddr: 0x100004110, symSize: 0x20 }
  - { offsetInCU: 0x10CE9, offset: 0x10CE9, size: 0x8, addend: 0x0, symName: __ZNSt3__116allocator_traitsINS_9allocatorIlEEE8max_sizeB8ue170006IS2_vvEEmRKS2_, symObjAddr: 0x2C40, symBinAddr: 0x100004160, symSize: 0x20 }
  - { offsetInCU: 0x10D14, offset: 0x10D14, size: 0x8, addend: 0x0, symName: __ZNKSt3__16vectorIlNS_9allocatorIlEEE7__allocB8ue170006Ev, symObjAddr: 0x2C60, symBinAddr: 0x100004180, symSize: 0x20 }
  - { offsetInCU: 0x10D3A, offset: 0x10D3A, size: 0x8, addend: 0x0, symName: __ZNSt3__114numeric_limitsIlE3maxB8ue170006Ev, symObjAddr: 0x2C80, symBinAddr: 0x1000041A0, symSize: 0x10 }
  - { offsetInCU: 0x10D4E, offset: 0x10D4E, size: 0x8, addend: 0x0, symName: __ZNKSt3__117__compressed_pairIPlNS_9allocatorIlEEE6secondB8ue170006Ev, symObjAddr: 0x2C90, symBinAddr: 0x1000041B0, symSize: 0x20 }
  - { offsetInCU: 0x10D74, offset: 0x10D74, size: 0x8, addend: 0x0, symName: __ZNKSt3__122__compressed_pair_elemINS_9allocatorIlEELi1ELb1EE5__getB8ue170006Ev, symObjAddr: 0x2CB0, symBinAddr: 0x1000041D0, symSize: 0x10 }
  - { offsetInCU: 0x10D9A, offset: 0x10D9A, size: 0x8, addend: 0x0, symName: __ZNSt3__123__libcpp_numeric_limitsIlLb1EE3maxB8ue170006Ev, symObjAddr: 0x2CC0, symBinAddr: 0x1000041E0, symSize: 0x10 }
  - { offsetInCU: 0x10DAE, offset: 0x10DAE, size: 0x8, addend: 0x0, symName: __ZNSt3__114__split_bufferIlRNS_9allocatorIlEEEC2EmmS3_, symObjAddr: 0x2D20, symBinAddr: 0x100004240, symSize: 0xD0 }
  - { offsetInCU: 0x10E26, offset: 0x10E26, size: 0x8, addend: 0x0, symName: __ZNSt3__117__compressed_pairIPlRNS_9allocatorIlEEEC1B8ue170006IDnS4_EEOT_OT0_, symObjAddr: 0x2DF0, symBinAddr: 0x100004310, symSize: 0x30 }
  - { offsetInCU: 0x10E7E, offset: 0x10E7E, size: 0x8, addend: 0x0, symName: __ZNSt3__114__split_bufferIlRNS_9allocatorIlEEE7__allocB8ue170006Ev, symObjAddr: 0x2E60, symBinAddr: 0x100004380, symSize: 0x20 }
  - { offsetInCU: 0x10EA4, offset: 0x10EA4, size: 0x8, addend: 0x0, symName: __ZNSt3__114__split_bufferIlRNS_9allocatorIlEEE9__end_capB8ue170006Ev, symObjAddr: 0x2E80, symBinAddr: 0x1000043A0, symSize: 0x20 }
  - { offsetInCU: 0x10ECA, offset: 0x10ECA, size: 0x8, addend: 0x0, symName: __ZNSt3__117__compressed_pairIPlRNS_9allocatorIlEEEC2B8ue170006IDnS4_EEOT_OT0_, symObjAddr: 0x2EA0, symBinAddr: 0x1000043C0, symSize: 0x40 }
  - { offsetInCU: 0x10F22, offset: 0x10F22, size: 0x8, addend: 0x0, symName: __ZNSt3__122__compressed_pair_elemIPlLi0ELb0EEC2B8ue170006IDnvEEOT_, symObjAddr: 0x2EE0, symBinAddr: 0x100004400, symSize: 0x20 }
  - { offsetInCU: 0x10F64, offset: 0x10F64, size: 0x8, addend: 0x0, symName: __ZNSt3__122__compressed_pair_elemIRNS_9allocatorIlEELi1ELb0EEC2B8ue170006IS3_vEEOT_, symObjAddr: 0x2F00, symBinAddr: 0x100004420, symSize: 0x20 }
  - { offsetInCU: 0x10FA6, offset: 0x10FA6, size: 0x8, addend: 0x0, symName: __ZNSt3__19allocatorIlE17allocate_at_leastB8ue170006Em, symObjAddr: 0x2F60, symBinAddr: 0x100004480, symSize: 0x40 }
  - { offsetInCU: 0x10FDA, offset: 0x10FDA, size: 0x8, addend: 0x0, symName: __ZNSt3__19allocatorIlE8allocateB8ue170006Em, symObjAddr: 0x2FA0, symBinAddr: 0x1000044C0, symSize: 0x50 }
  - { offsetInCU: 0x1100E, offset: 0x1100E, size: 0x8, addend: 0x0, symName: __ZNSt3__117__compressed_pairIPlRNS_9allocatorIlEEE6secondB8ue170006Ev, symObjAddr: 0x2FF0, symBinAddr: 0x100004510, symSize: 0x20 }
  - { offsetInCU: 0x11034, offset: 0x11034, size: 0x8, addend: 0x0, symName: __ZNSt3__122__compressed_pair_elemIRNS_9allocatorIlEELi1ELb0EE5__getB8ue170006Ev, symObjAddr: 0x3010, symBinAddr: 0x100004530, symSize: 0x20 }
  - { offsetInCU: 0x1105A, offset: 0x1105A, size: 0x8, addend: 0x0, symName: __ZNSt3__117__compressed_pairIPlRNS_9allocatorIlEEE5firstB8ue170006Ev, symObjAddr: 0x3030, symBinAddr: 0x100004550, symSize: 0x20 }
  - { offsetInCU: 0x11080, offset: 0x11080, size: 0x8, addend: 0x0, symName: __ZNSt3__116reverse_iteratorIPlEC1B8ue170006ES1_, symObjAddr: 0x30C0, symBinAddr: 0x1000045E0, symSize: 0x30 }
  - { offsetInCU: 0x110B8, offset: 0x110B8, size: 0x8, addend: 0x0, symName: __ZNKSt3__116reverse_iteratorIPlE4baseB8ue170006Ev, symObjAddr: 0x30F0, symBinAddr: 0x100004610, symSize: 0x20 }
  - { offsetInCU: 0x110DE, offset: 0x110DE, size: 0x8, addend: 0x0, symName: __ZNKSt3__16vectorIlNS_9allocatorIlEEE14__annotate_newB8ue170006Em, symObjAddr: 0x3150, symBinAddr: 0x100004670, symSize: 0xB0 }
  - { offsetInCU: 0x1113B, offset: 0x1113B, size: 0x8, addend: 0x0, symName: __ZNKSt3__111__move_loopINS_17_ClassicAlgPolicyEEclB8ue170006INS_16reverse_iteratorIPlEES6_S6_EENS_4pairIT_T1_EES8_T0_S9_, symObjAddr: 0x3610, symBinAddr: 0x100004B30, symSize: 0xA0 }
  - { offsetInCU: 0x111A6, offset: 0x111A6, size: 0x8, addend: 0x0, symName: __ZNSt3__119__unwrap_range_implINS_16reverse_iteratorIPlEES3_E8__unwrapB8ue170006ES3_S3_, symObjAddr: 0x37F0, symBinAddr: 0x100004D10, symSize: 0x90 }
  - { offsetInCU: 0x111DC, offset: 0x111DC, size: 0x8, addend: 0x0, symName: __ZNSt3__14pairINS_16reverse_iteratorIPlEES3_EC1B8ue170006IS3_S3_LPv0EEEOT_OT0_, symObjAddr: 0x3880, symBinAddr: 0x100004DA0, symSize: 0x30 }
  - { offsetInCU: 0x1123A, offset: 0x1123A, size: 0x8, addend: 0x0, symName: __ZNSt3__14pairINS_16reverse_iteratorIPlEES3_EC2B8ue170006IS3_S3_LPv0EEEOT_OT0_, symObjAddr: 0x38B0, symBinAddr: 0x100004DD0, symSize: 0x40 }
  - { offsetInCU: 0x11298, offset: 0x11298, size: 0x8, addend: 0x0, symName: __ZNSt3__18_IterOpsINS_17_ClassicAlgPolicyEE11__iter_moveB8ue170006IRNS_16reverse_iteratorIPlEEEENS_9enable_ifIXsr12is_referenceIDTdeclsr3stdE7declvalIRT_EEEEE5valueEDTclsr3stdE4movedeclsr3stdE7declvalISA_EEEEE4typeEOS9_, symObjAddr: 0x3930, symBinAddr: 0x100004E50, symSize: 0x20 }
  - { offsetInCU: 0x112C4, offset: 0x112C4, size: 0x8, addend: 0x0, symName: __ZNKSt3__116reverse_iteratorIPlEdeB8ue170006Ev, symObjAddr: 0x3950, symBinAddr: 0x100004E70, symSize: 0x30 }
  - { offsetInCU: 0x112F8, offset: 0x112F8, size: 0x8, addend: 0x0, symName: __ZNSt3__116reverse_iteratorIPlEppB8ue170006Ev, symObjAddr: 0x3980, symBinAddr: 0x100004EA0, symSize: 0x20 }
  - { offsetInCU: 0x1131E, offset: 0x1131E, size: 0x8, addend: 0x0, symName: __ZNSt3__18_IterOpsINS_17_ClassicAlgPolicyEE25__validate_iter_referenceB8ue170006IRNS_16reverse_iteratorIPlEEEEvv, symObjAddr: 0x39A0, symBinAddr: 0x100004EC0, symSize: 0x10 }
  - { offsetInCU: 0x1133C, offset: 0x1133C, size: 0x8, addend: 0x0, symName: __ZNSt3__118__unwrap_iter_implINS_16reverse_iteratorIPlEELb0EE8__unwrapB8ue170006ES3_, symObjAddr: 0x39B0, symBinAddr: 0x100004ED0, symSize: 0x20 }
  - { offsetInCU: 0x1135F, offset: 0x1135F, size: 0x8, addend: 0x0, symName: __ZNSt3__119__unwrap_range_implINS_16reverse_iteratorIPlEES3_E8__rewrapB8ue170006ES3_S3_, symObjAddr: 0x39D0, symBinAddr: 0x100004EF0, symSize: 0x60 }
  - { offsetInCU: 0x11390, offset: 0x11390, size: 0x8, addend: 0x0, symName: __ZNSt3__118__unwrap_iter_implINS_16reverse_iteratorIPlEELb0EE8__rewrapB8ue170006ES3_S3_, symObjAddr: 0x3A30, symBinAddr: 0x100004F50, symSize: 0x30 }
  - { offsetInCU: 0x113BD, offset: 0x113BD, size: 0x8, addend: 0x0, symName: __ZNSt3__116reverse_iteratorIPlEC2B8ue170006ES1_, symObjAddr: 0x3A60, symBinAddr: 0x100004F80, symSize: 0x30 }
  - { offsetInCU: 0x113F5, offset: 0x113F5, size: 0x8, addend: 0x0, symName: __ZNSt3__114__split_bufferIlRNS_9allocatorIlEEED2Ev, symObjAddr: 0x3A90, symBinAddr: 0x100004FB0, symSize: 0x70 }
  - { offsetInCU: 0x11421, offset: 0x11421, size: 0x8, addend: 0x0, symName: __ZNSt3__114__split_bufferIlRNS_9allocatorIlEEE5clearB8ue170006Ev, symObjAddr: 0x3B00, symBinAddr: 0x100005020, symSize: 0x20 }
  - { offsetInCU: 0x11447, offset: 0x11447, size: 0x8, addend: 0x0, symName: __ZNKSt3__114__split_bufferIlRNS_9allocatorIlEEE8capacityB8ue170006Ev, symObjAddr: 0x3B20, symBinAddr: 0x100005040, symSize: 0x30 }
  - { offsetInCU: 0x1146D, offset: 0x1146D, size: 0x8, addend: 0x0, symName: __ZNSt3__114__split_bufferIlRNS_9allocatorIlEEE17__destruct_at_endB8ue170006EPl, symObjAddr: 0x3B50, symBinAddr: 0x100005070, symSize: 0x30 }
  - { offsetInCU: 0x114A1, offset: 0x114A1, size: 0x8, addend: 0x0, symName: __ZNSt3__114__split_bufferIlRNS_9allocatorIlEEE17__destruct_at_endB8ue170006EPlNS_17integral_constantIbLb0EEE, symObjAddr: 0x3B80, symBinAddr: 0x1000050A0, symSize: 0x80 }
  - { offsetInCU: 0x114E1, offset: 0x114E1, size: 0x8, addend: 0x0, symName: __ZNKSt3__114__split_bufferIlRNS_9allocatorIlEEE9__end_capB8ue170006Ev, symObjAddr: 0x3C00, symBinAddr: 0x100005120, symSize: 0x20 }
  - { offsetInCU: 0x11507, offset: 0x11507, size: 0x8, addend: 0x0, symName: __ZNKSt3__117__compressed_pairIPlRNS_9allocatorIlEEE5firstB8ue170006Ev, symObjAddr: 0x3C20, symBinAddr: 0x100005140, symSize: 0x20 }
  - { offsetInCU: 0x1152D, offset: 0x1152D, size: 0x8, addend: 0x0, symName: __ZNSt3__16vectorIbNS_9allocatorIbEEED2B8ue170006Ev, symObjAddr: 0x3C40, symBinAddr: 0x100005160, symSize: 0x40 }
  - { offsetInCU: 0x11557, offset: 0x11557, size: 0x8, addend: 0x0, symName: __ZNSt3__16vectorIbNS_9allocatorIbEEE16__destroy_vectorC1B8ue170006ERS3_, symObjAddr: 0x3C80, symBinAddr: 0x1000051A0, symSize: 0x30 }
  - { offsetInCU: 0x11590, offset: 0x11590, size: 0x8, addend: 0x0, symName: __ZNSt3__16vectorIbNS_9allocatorIbEEE16__destroy_vectorclB8ue170006Ev, symObjAddr: 0x3CB0, symBinAddr: 0x1000051D0, symSize: 0x60 }
  - { offsetInCU: 0x115B6, offset: 0x115B6, size: 0x8, addend: 0x0, symName: __ZNSt3__16vectorIbNS_9allocatorIbEEE16__destroy_vectorC2B8ue170006ERS3_, symObjAddr: 0x3D10, symBinAddr: 0x100005230, symSize: 0x20 }
  - { offsetInCU: 0x115EF, offset: 0x115EF, size: 0x8, addend: 0x0, symName: __ZNSt3__116allocator_traitsINS_9allocatorImEEE10deallocateB8ue170006ERS2_Pmm, symObjAddr: 0x3D30, symBinAddr: 0x100005250, symSize: 0x30 }
  - { offsetInCU: 0x11631, offset: 0x11631, size: 0x8, addend: 0x0, symName: __ZNSt3__19allocatorImE10deallocateB8ue170006EPmm, symObjAddr: 0x3D60, symBinAddr: 0x100005280, symSize: 0x40 }
  - { offsetInCU: 0x11673, offset: 0x11673, size: 0x8, addend: 0x0, symName: __ZNSt3__16vectorIiNS_9allocatorIiEEE11__make_iterB8ue170006EPi, symObjAddr: 0x3DA0, symBinAddr: 0x1000052C0, symSize: 0x30 }
  - { offsetInCU: 0x116A8, offset: 0x116A8, size: 0x8, addend: 0x0, symName: __ZNSt3__111__wrap_iterIPiEC1B8ue170006ES1_, symObjAddr: 0x3DD0, symBinAddr: 0x1000052F0, symSize: 0x30 }
  - { offsetInCU: 0x116E0, offset: 0x116E0, size: 0x8, addend: 0x0, symName: __ZNSt3__111__wrap_iterIPiEC2B8ue170006ES1_, symObjAddr: 0x3E00, symBinAddr: 0x100005320, symSize: 0x20 }
  - { offsetInCU: 0x11718, offset: 0x11718, size: 0x8, addend: 0x0, symName: __ZNKSt3__111__wrap_iterIPiE4baseB8ue170006Ev, symObjAddr: 0x3E60, symBinAddr: 0x100005380, symSize: 0x20 }
  - { offsetInCU: 0x1173E, offset: 0x1173E, size: 0x8, addend: 0x0, symName: __ZNSt3__111__wrap_iterIPiEppB8ue170006Ev, symObjAddr: 0x3E80, symBinAddr: 0x1000053A0, symSize: 0x20 }
  - { offsetInCU: 0x11764, offset: 0x11764, size: 0x8, addend: 0x0, symName: __ZNKSt3__19basic_iosIcNS_11char_traitsIcEEE5widenB8ue170006Ec, symObjAddr: 0x3EA0, symBinAddr: 0x1000053C0, symSize: 0x80 }
  - { offsetInCU: 0x117D2, offset: 0x117D2, size: 0x8, addend: 0x0, symName: __ZNKSt3__15ctypeIcE5widenB8ue170006Ec, symObjAddr: 0x3F50, symBinAddr: 0x100005470, symSize: 0x30 }
  - { offsetInCU: 0x11825, offset: 0x11825, size: 0x8, addend: 0x0, symName: __ZNKSt3__113basic_ostreamIcNS_11char_traitsIcEEE6sentrycvbB8ue170006Ev, symObjAddr: 0x4170, symBinAddr: 0x100005690, symSize: 0x20 }
  - { offsetInCU: 0x1184B, offset: 0x1184B, size: 0x8, addend: 0x0, symName: __ZNSt3__119ostreambuf_iteratorIcNS_11char_traitsIcEEEC1B8ue170006ERNS_13basic_ostreamIcS2_EE, symObjAddr: 0x43B0, symBinAddr: 0x1000058D0, symSize: 0x30 }
  - { offsetInCU: 0x11883, offset: 0x11883, size: 0x8, addend: 0x0, symName: __ZNKSt3__18ios_base5flagsB8ue170006Ev, symObjAddr: 0x43E0, symBinAddr: 0x100005900, symSize: 0x20 }
  - { offsetInCU: 0x118AB, offset: 0x118AB, size: 0x8, addend: 0x0, symName: __ZNKSt3__19basic_iosIcNS_11char_traitsIcEEE4fillB8ue170006Ev, symObjAddr: 0x4400, symBinAddr: 0x100005920, symSize: 0x70 }
  - { offsetInCU: 0x118D3, offset: 0x118D3, size: 0x8, addend: 0x0, symName: __ZNKSt3__119ostreambuf_iteratorIcNS_11char_traitsIcEEE6failedB8ue170006Ev, symObjAddr: 0x4470, symBinAddr: 0x100005990, symSize: 0x20 }
  - { offsetInCU: 0x118F9, offset: 0x118F9, size: 0x8, addend: 0x0, symName: __ZNSt3__19basic_iosIcNS_11char_traitsIcEEE8setstateB8ue170006Ej, symObjAddr: 0x4490, symBinAddr: 0x1000059B0, symSize: 0x30 }
  - { offsetInCU: 0x1192E, offset: 0x1192E, size: 0x8, addend: 0x0, symName: __ZNKSt3__18ios_base5widthB8ue170006Ev, symObjAddr: 0x44C0, symBinAddr: 0x1000059E0, symSize: 0x20 }
  - { offsetInCU: 0x11956, offset: 0x11956, size: 0x8, addend: 0x0, symName: __ZNSt3__115basic_streambufIcNS_11char_traitsIcEEE5sputnB8ue170006EPKcl, symObjAddr: 0x44E0, symBinAddr: 0x100005A00, symSize: 0x30 }
  - { offsetInCU: 0x11998, offset: 0x11998, size: 0x8, addend: 0x0, symName: __ZNSt3__112basic_stringIcNS_11char_traitsIcEENS_9allocatorIcEEEC1B8ue170006Emc, symObjAddr: 0x4510, symBinAddr: 0x100005A30, symSize: 0x30 }
  - { offsetInCU: 0x119E0, offset: 0x119E0, size: 0x8, addend: 0x0, symName: __ZNSt3__112basic_stringIcNS_11char_traitsIcEENS_9allocatorIcEEE4dataB8ue170006Ev, symObjAddr: 0x4540, symBinAddr: 0x100005A60, symSize: 0x30 }
  - { offsetInCU: 0x11A06, offset: 0x11A06, size: 0x8, addend: 0x0, symName: __ZNSt3__18ios_base5widthB8ue170006El, symObjAddr: 0x4570, symBinAddr: 0x100005A90, symSize: 0x30 }
  - { offsetInCU: 0x11A4C, offset: 0x11A4C, size: 0x8, addend: 0x0, symName: __ZNSt3__112basic_stringIcNS_11char_traitsIcEENS_9allocatorIcEEEC2B8ue170006Emc, symObjAddr: 0x45A0, symBinAddr: 0x100005AC0, symSize: 0x50 }
  - { offsetInCU: 0x11A94, offset: 0x11A94, size: 0x8, addend: 0x0, symName: __ZNSt3__117__compressed_pairINS_12basic_stringIcNS_11char_traitsIcEENS_9allocatorIcEEE5__repES5_EC1B8ue170006INS_18__default_init_tagESA_EEOT_OT0_, symObjAddr: 0x45F0, symBinAddr: 0x100005B10, symSize: 0x30 }
  - { offsetInCU: 0x11AEC, offset: 0x11AEC, size: 0x8, addend: 0x0, symName: __ZNSt3__117__compressed_pairINS_12basic_stringIcNS_11char_traitsIcEENS_9allocatorIcEEE5__repES5_EC2B8ue170006INS_18__default_init_tagESA_EEOT_OT0_, symObjAddr: 0x4620, symBinAddr: 0x100005B40, symSize: 0x30 }
  - { offsetInCU: 0x11B44, offset: 0x11B44, size: 0x8, addend: 0x0, symName: __ZNSt3__122__compressed_pair_elemINS_12basic_stringIcNS_11char_traitsIcEENS_9allocatorIcEEE5__repELi0ELb0EEC2B8ue170006ENS_18__default_init_tagE, symObjAddr: 0x4650, symBinAddr: 0x100005B70, symSize: 0x10 }
  - { offsetInCU: 0x11B78, offset: 0x11B78, size: 0x8, addend: 0x0, symName: __ZNSt3__122__compressed_pair_elemINS_9allocatorIcEELi1ELb1EEC2B8ue170006ENS_18__default_init_tagE, symObjAddr: 0x4660, symBinAddr: 0x100005B80, symSize: 0x20 }
  - { offsetInCU: 0x11BAC, offset: 0x11BAC, size: 0x8, addend: 0x0, symName: __ZNSt3__19allocatorIcEC2B8ue170006Ev, symObjAddr: 0x4680, symBinAddr: 0x100005BA0, symSize: 0x20 }
  - { offsetInCU: 0x11BD6, offset: 0x11BD6, size: 0x8, addend: 0x0, symName: __ZNSt3__116__non_trivial_ifILb1ENS_9allocatorIcEEEC2B8ue170006Ev, symObjAddr: 0x46A0, symBinAddr: 0x100005BC0, symSize: 0x10 }
  - { offsetInCU: 0x11C00, offset: 0x11C00, size: 0x8, addend: 0x0, symName: __ZNSt3__112basic_stringIcNS_11char_traitsIcEENS_9allocatorIcEEE13__get_pointerB8ue170006Ev, symObjAddr: 0x46C0, symBinAddr: 0x100005BE0, symSize: 0x50 }
  - { offsetInCU: 0x11C26, offset: 0x11C26, size: 0x8, addend: 0x0, symName: __ZNKSt3__112basic_stringIcNS_11char_traitsIcEENS_9allocatorIcEEE9__is_longB8ue170006Ev, symObjAddr: 0x4710, symBinAddr: 0x100005C30, symSize: 0x30 }
  - { offsetInCU: 0x11C4C, offset: 0x11C4C, size: 0x8, addend: 0x0, symName: __ZNSt3__112basic_stringIcNS_11char_traitsIcEENS_9allocatorIcEEE18__get_long_pointerB8ue170006Ev, symObjAddr: 0x4740, symBinAddr: 0x100005C60, symSize: 0x20 }
  - { offsetInCU: 0x11C72, offset: 0x11C72, size: 0x8, addend: 0x0, symName: __ZNSt3__112basic_stringIcNS_11char_traitsIcEENS_9allocatorIcEEE19__get_short_pointerB8ue170006Ev, symObjAddr: 0x4760, symBinAddr: 0x100005C80, symSize: 0x30 }
  - { offsetInCU: 0x11C98, offset: 0x11C98, size: 0x8, addend: 0x0, symName: __ZNKSt3__117__compressed_pairINS_12basic_stringIcNS_11char_traitsIcEENS_9allocatorIcEEE5__repES5_E5firstB8ue170006Ev, symObjAddr: 0x4790, symBinAddr: 0x100005CB0, symSize: 0x20 }
  - { offsetInCU: 0x11CBE, offset: 0x11CBE, size: 0x8, addend: 0x0, symName: __ZNKSt3__122__compressed_pair_elemINS_12basic_stringIcNS_11char_traitsIcEENS_9allocatorIcEEE5__repELi0ELb0EE5__getB8ue170006Ev, symObjAddr: 0x47B0, symBinAddr: 0x100005CD0, symSize: 0x10 }
  - { offsetInCU: 0x11CE4, offset: 0x11CE4, size: 0x8, addend: 0x0, symName: __ZNSt3__117__compressed_pairINS_12basic_stringIcNS_11char_traitsIcEENS_9allocatorIcEEE5__repES5_E5firstB8ue170006Ev, symObjAddr: 0x47C0, symBinAddr: 0x100005CE0, symSize: 0x20 }
  - { offsetInCU: 0x11D0A, offset: 0x11D0A, size: 0x8, addend: 0x0, symName: __ZNSt3__122__compressed_pair_elemINS_12basic_stringIcNS_11char_traitsIcEENS_9allocatorIcEEE5__repELi0ELb0EE5__getB8ue170006Ev, symObjAddr: 0x47E0, symBinAddr: 0x100005D00, symSize: 0x10 }
  - { offsetInCU: 0x11D30, offset: 0x11D30, size: 0x8, addend: 0x0, symName: __ZNSt3__114pointer_traitsIPcE10pointer_toB8ue170006ERc, symObjAddr: 0x47F0, symBinAddr: 0x100005D10, symSize: 0x10 }
  - { offsetInCU: 0x11D53, offset: 0x11D53, size: 0x8, addend: 0x0, symName: __ZNSt3__119ostreambuf_iteratorIcNS_11char_traitsIcEEEC2B8ue170006ERNS_13basic_ostreamIcS2_EE, symObjAddr: 0x4800, symBinAddr: 0x100005D20, symSize: 0x50 }
  - { offsetInCU: 0x11D8B, offset: 0x11D8B, size: 0x8, addend: 0x0, symName: __ZNKSt3__19basic_iosIcNS_11char_traitsIcEEE5rdbufB8ue170006Ev, symObjAddr: 0x4850, symBinAddr: 0x100005D70, symSize: 0x20 }
  - { offsetInCU: 0x11DB3, offset: 0x11DB3, size: 0x8, addend: 0x0, symName: __ZNKSt3__18ios_base5rdbufB8ue170006Ev, symObjAddr: 0x4870, symBinAddr: 0x100005D90, symSize: 0x20 }
  - { offsetInCU: 0x11DD9, offset: 0x11DD9, size: 0x8, addend: 0x0, symName: __ZNSt3__111char_traitsIcE11eq_int_typeB8ue170006Eii, symObjAddr: 0x4890, symBinAddr: 0x100005DB0, symSize: 0x20 }
  - { offsetInCU: 0x11E0C, offset: 0x11E0C, size: 0x8, addend: 0x0, symName: __ZNSt3__111char_traitsIcE3eofB8ue170006Ev, symObjAddr: 0x48B0, symBinAddr: 0x100005DD0, symSize: 0x10 }
  - { offsetInCU: 0x11E20, offset: 0x11E20, size: 0x8, addend: 0x0, symName: __ZNSt3__18ios_base8setstateB8ue170006Ej, symObjAddr: 0x48C0, symBinAddr: 0x100005DE0, symSize: 0x30 }
  - { offsetInCU: 0x11E57, offset: 0x11E57, size: 0x8, addend: 0x0, symName: __ZNKSt3__16vectorIbNS_9allocatorIbEEE4sizeB8ue170006Ev, symObjAddr: 0x48F0, symBinAddr: 0x100005E10, symSize: 0x20 }
  - { offsetInCU: 0x11E7D, offset: 0x11E7D, size: 0x8, addend: 0x0, symName: __ZNKSt3__16vectorIbNS_9allocatorIbEEE20__throw_out_of_rangeB8ue170006Ev, symObjAddr: 0x4910, symBinAddr: 0x100005E30, symSize: 0x20 }
  - { offsetInCU: 0x11EA3, offset: 0x11EA3, size: 0x8, addend: 0x0, symName: __ZNSt3__16vectorIbNS_9allocatorIbEEEixB8ue170006Em, symObjAddr: 0x4930, symBinAddr: 0x100005E50, symSize: 0x40 }
  - { offsetInCU: 0x11ED8, offset: 0x11ED8, size: 0x8, addend: 0x0, symName: __ZNSt12out_of_rangeC1B8ue170006EPKc, symObjAddr: 0x49E0, symBinAddr: 0x100005F00, symSize: 0x30 }
  - { offsetInCU: 0x11F10, offset: 0x11F10, size: 0x8, addend: 0x0, symName: __ZNSt12out_of_rangeC2B8ue170006EPKc, symObjAddr: 0x4A10, symBinAddr: 0x100005F30, symSize: 0x40 }
  - { offsetInCU: 0x11F48, offset: 0x11F48, size: 0x8, addend: 0x0, symName: __ZNSt3__16vectorIbNS_9allocatorIbEEE10__make_refB8ue170006Em, symObjAddr: 0x4A50, symBinAddr: 0x100005F70, symSize: 0x50 }
  - { offsetInCU: 0x11F7D, offset: 0x11F7D, size: 0x8, addend: 0x0, symName: __ZNSt3__115__bit_referenceINS_6vectorIbNS_9allocatorIbEEEELb1EEC1B8ue170006EPmm, symObjAddr: 0x4AA0, symBinAddr: 0x100005FC0, symSize: 0x30 }
  - { offsetInCU: 0x11FC3, offset: 0x11FC3, size: 0x8, addend: 0x0, symName: __ZNSt3__115__bit_referenceINS_6vectorIbNS_9allocatorIbEEEELb1EEC2B8ue170006EPmm, symObjAddr: 0x4AD0, symBinAddr: 0x100005FF0, symSize: 0x30 }
  - { offsetInCU: 0x12009, offset: 0x12009, size: 0x8, addend: 0x0, symName: __ZNSt3__111char_traitsIcE6lengthB8ue170006EPKc, symObjAddr: 0x4B00, symBinAddr: 0x100006020, symSize: 0x30 }
  - { offsetInCU: 0x1202C, offset: 0x1202C, size: 0x8, addend: 0x0, symName: __ZNSt3__110__list_impIiNS_9allocatorIiEEE5beginB8ue170006Ev, symObjAddr: 0x4B50, symBinAddr: 0x100006070, symSize: 0x30 }
  - { offsetInCU: 0x12052, offset: 0x12052, size: 0x8, addend: 0x0, symName: __ZNSt3__115__list_iteratorIiPvEC1B8ue170006EPNS_16__list_node_baseIiS1_EE, symObjAddr: 0x4B80, symBinAddr: 0x1000060A0, symSize: 0x30 }
  - { offsetInCU: 0x1208B, offset: 0x1208B, size: 0x8, addend: 0x0, symName: __ZNSt3__115__list_iteratorIiPvEC2B8ue170006EPNS_16__list_node_baseIiS1_EE, symObjAddr: 0x4BB0, symBinAddr: 0x1000060D0, symSize: 0x20 }
  - { offsetInCU: 0x120C4, offset: 0x120C4, size: 0x8, addend: 0x0, symName: __ZNSt3__110__list_impIiNS_9allocatorIiEEE3endB8ue170006Ev, symObjAddr: 0x4BD0, symBinAddr: 0x1000060F0, symSize: 0x30 }
  - { offsetInCU: 0x120EA, offset: 0x120EA, size: 0x8, addend: 0x0, symName: __ZNKSt3__110__list_impIiNS_9allocatorIiEEE13__end_as_linkB8ue170006Ev, symObjAddr: 0x4C00, symBinAddr: 0x100006120, symSize: 0x50 }
  - { offsetInCU: 0x12110, offset: 0x12110, size: 0x8, addend: 0x0, symName: __ZNSt3__126__list_node_pointer_traitsIiPvE26__unsafe_link_pointer_castB8ue170006EPNS_16__list_node_baseIiS1_EE, symObjAddr: 0x4C50, symBinAddr: 0x100006170, symSize: 0x10 }
  - { offsetInCU: 0x12134, offset: 0x12134, size: 0x8, addend: 0x0, symName: __ZNSt3__116__list_node_baseIiPvE6__selfB8ue170006Ev, symObjAddr: 0x4C60, symBinAddr: 0x100006180, symSize: 0x20 }
  - { offsetInCU: 0x1215F, offset: 0x1215F, size: 0x8, addend: 0x0, symName: __ZNSt3__114pointer_traitsIPNS_16__list_node_baseIiPvEEE10pointer_toB8ue170006ERS3_, symObjAddr: 0x4C80, symBinAddr: 0x1000061A0, symSize: 0x10 }
  - { offsetInCU: 0x12182, offset: 0x12182, size: 0x8, addend: 0x0, symName: __ZNSt3__115__list_iteratorIiPvEppB8ue170006Ev, symObjAddr: 0x4CC0, symBinAddr: 0x1000061E0, symSize: 0x20 }
  - { offsetInCU: 0x121A8, offset: 0x121A8, size: 0x8, addend: 0x0, symName: __ZNSt3__116__list_node_baseIiPvE9__as_nodeB8ue170006Ev, symObjAddr: 0x4CE0, symBinAddr: 0x100006200, symSize: 0x1B }
  - { offsetInCU: 0x3F, offset: 0x12351, size: 0x8, addend: 0x0, symName: __ZL6primes, symObjAddr: 0x4A9E0, symBinAddr: 0x100010028, symSize: 0x0 }
  - { offsetInCU: 0x13CD, offset: 0x136DF, size: 0x8, addend: 0x0, symName: __ZNSt3__16ranges5__cpo5beginE, symObjAddr: 0x6BDD, symBinAddr: 0x10000BCB1, symSize: 0x0 }
  - { offsetInCU: 0x13E7, offset: 0x136F9, size: 0x8, addend: 0x0, symName: __ZNSt3__16ranges5__cpo3endE, symObjAddr: 0x6BDE, symBinAddr: 0x10000BCB2, symSize: 0x0 }
  - { offsetInCU: 0x380C, offset: 0x15B1E, size: 0x8, addend: 0x0, symName: __ZNSt3__17advanceB8ue170006INS_15__list_iteratorIiPvEEllvEEvRT_T0_, symObjAddr: 0x3230, symBinAddr: 0x100008E10, symSize: 0x30 }
  - { offsetInCU: 0x4FA4, offset: 0x172B6, size: 0x8, addend: 0x0, symName: __ZNSt3__17advanceB8ue170006INS_11__wrap_iterIPiEEllvEEvRT_T0_, symObjAddr: 0x42E0, symBinAddr: 0x100009C90, symSize: 0x30 }
  - { offsetInCU: 0x75F0, offset: 0x19902, size: 0x8, addend: 0x0, symName: __ZNSt3__1neB8ue170006ERKNS_15__list_iteratorINS_4listIiNS_9allocatorIiEEEEPvEES8_, symObjAddr: 0xE30, symBinAddr: 0x100006F10, symSize: 0x30 }
  - { offsetInCU: 0x762D, offset: 0x1993F, size: 0x8, addend: 0x0, symName: __ZNSt3__14nextB8ue170006INS_15__list_iteratorIiPvEEEENS_9enable_ifIXsr29__has_input_iterator_categoryIT_EE5valueES5_E4typeES5_NS_15iterator_traitsIS5_E15difference_typeE, symObjAddr: 0xEC0, symBinAddr: 0x100006FA0, symSize: 0x30 }
  - { offsetInCU: 0x7670, offset: 0x19982, size: 0x8, addend: 0x0, symName: __ZNSt3__13minB8ue170006IiEERKT_S3_S3_, symObjAddr: 0x1260, symBinAddr: 0x100007310, symSize: 0x30 }
  - { offsetInCU: 0x76B3, offset: 0x199C5, size: 0x8, addend: 0x0, symName: __ZNSt3__1plB8ue170006IcNS_11char_traitsIcEENS_9allocatorIcEEEENS_12basic_stringIT_T0_T1_EEOS9_SA_, symObjAddr: 0x1390, symBinAddr: 0x100007440, symSize: 0x50 }
  - { offsetInCU: 0x770B, offset: 0x19A1D, size: 0x8, addend: 0x0, symName: __ZNSt3__113binary_searchB8ue170006INS_11__wrap_iterIPiEEiEEbT_S4_RKT0_, symObjAddr: 0x13E0, symBinAddr: 0x100007490, symSize: 0x40 }
  - { offsetInCU: 0x7765, offset: 0x19A77, size: 0x8, addend: 0x0, symName: __ZNSt3__112__to_addressB8ue170006IiEEPT_S2_, symObjAddr: 0x1790, symBinAddr: 0x1000077D0, symSize: 0x10 }
  - { offsetInCU: 0x779A, offset: 0x19AAC, size: 0x8, addend: 0x0, symName: __ZNSt3__110destroy_atB8ue170006IiLi0EEEvPT_, symObjAddr: 0x17A0, symBinAddr: 0x1000077E0, symSize: 0x20 }
  - { offsetInCU: 0x77D1, offset: 0x19AE3, size: 0x8, addend: 0x0, symName: __ZNSt3__112__destroy_atB8ue170006IiLi0EEEvPT_, symObjAddr: 0x17C0, symBinAddr: 0x100007800, symSize: 0x10 }
  - { offsetInCU: 0x782D, offset: 0x19B3F, size: 0x8, addend: 0x0, symName: __ZNSt3__112construct_atB8ue170006IiJRKiEPiEEPT_S5_DpOT0_, symObjAddr: 0x1C60, symBinAddr: 0x100007B80, symSize: 0x30 }
  - { offsetInCU: 0x7913, offset: 0x19C25, size: 0x8, addend: 0x0, symName: __ZNSt3__119__allocate_at_leastB8ue170006INS_9allocatorIiEEEEDaRT_m, symObjAddr: 0x2310, symBinAddr: 0x100007FE0, symSize: 0x40 }
  - { offsetInCU: 0x7956, offset: 0x19C68, size: 0x8, addend: 0x0, symName: __ZNSt3__117allocate_at_leastB8ue170006INS_9allocatorIiEEEENS_17allocation_resultINS_16allocator_traitsIT_E7pointerEEERS5_m, symObjAddr: 0x2410, symBinAddr: 0x1000080E0, symSize: 0x40 }
  - { offsetInCU: 0x7999, offset: 0x19CAB, size: 0x8, addend: 0x0, symName: __ZNSt3__142__uninitialized_allocator_move_if_noexceptB8ue170006INS_9allocatorIiEENS_16reverse_iteratorIPiEES5_ivEET1_RT_T0_S9_S6_, symObjAddr: 0x2630, symBinAddr: 0x100008210, symSize: 0x70 }
  - { offsetInCU: 0x7A15, offset: 0x19D27, size: 0x8, addend: 0x0, symName: __ZNSt3__14swapB8ue170006IPiEENS_9enable_ifIXaasr21is_move_constructibleIT_EE5valuesr18is_move_assignableIS3_EE5valueEvE4typeERS3_S6_, symObjAddr: 0x26F0, symBinAddr: 0x1000082D0, symSize: 0x40 }
  - { offsetInCU: 0x7A66, offset: 0x19D78, size: 0x8, addend: 0x0, symName: __ZNSt3__14moveB8ue170006INS_16reverse_iteratorIPiEES3_EET0_T_S5_S4_, symObjAddr: 0x27E0, symBinAddr: 0x1000083C0, symSize: 0x80 }
  - { offsetInCU: 0x7AC0, offset: 0x19DD2, size: 0x8, addend: 0x0, symName: __ZNSt3__16__moveB8ue170006INS_17_ClassicAlgPolicyENS_16reverse_iteratorIPiEES4_S4_EENS_4pairIT0_T2_EES6_T1_S7_, symObjAddr: 0x2860, symBinAddr: 0x100008440, symSize: 0x90 }
  - { offsetInCU: 0x7B2C, offset: 0x19E3E, size: 0x8, addend: 0x0, symName: __ZNSt3__123__dispatch_copy_or_moveB8ue170006INS_17_ClassicAlgPolicyENS_11__move_loopIS1_EENS_14__move_trivialENS_16reverse_iteratorIPiEES7_S7_EENS_4pairIT2_T4_EES9_T3_SA_, symObjAddr: 0x28F0, symBinAddr: 0x1000084D0, symSize: 0x90 }
  - { offsetInCU: 0x7BAA, offset: 0x19EBC, size: 0x8, addend: 0x0, symName: __ZNSt3__121__unwrap_and_dispatchB8ue170006INS_10__overloadINS_11__move_loopINS_17_ClassicAlgPolicyEEENS_14__move_trivialEEENS_16reverse_iteratorIPiEES9_S9_Li0EEENS_4pairIT0_T2_EESB_T1_SC_, symObjAddr: 0x2980, symBinAddr: 0x100008560, symSize: 0x210 }
  - { offsetInCU: 0x7C39, offset: 0x19F4B, size: 0x8, addend: 0x0, symName: __ZNSt3__114__unwrap_rangeB8ue170006INS_16reverse_iteratorIPiEES3_EEDaT_T0_, symObjAddr: 0x2B90, symBinAddr: 0x100008770, symSize: 0x60 }
  - { offsetInCU: 0x7DF8, offset: 0x1A10A, size: 0x8, addend: 0x0, symName: __ZNSt3__113__unwrap_iterB8ue170006INS_16reverse_iteratorIPiEENS_18__unwrap_iter_implIS3_Lb0EEELi0EEEDTclsrT0_8__unwrapclsr3stdE7declvalIT_EEEES7_, symObjAddr: 0x2C90, symBinAddr: 0x100008870, symSize: 0x40 }
  - { offsetInCU: 0x7E3C, offset: 0x1A14E, size: 0x8, addend: 0x0, symName: __ZNSt3__19make_pairB8ue170006INS_16reverse_iteratorIPiEES3_EENS_4pairINS_18__unwrap_ref_decayIT_E4typeENS5_IT0_E4typeEEEOS6_OS9_, symObjAddr: 0x2CD0, symBinAddr: 0x1000088B0, symSize: 0x30 }
  - { offsetInCU: 0x7E8B, offset: 0x1A19D, size: 0x8, addend: 0x0, symName: __ZNSt3__114__rewrap_rangeB8ue170006INS_16reverse_iteratorIPiEES3_S3_EET0_S4_T1_, symObjAddr: 0x2D00, symBinAddr: 0x1000088E0, symSize: 0x60 }
  - { offsetInCU: 0x7EE0, offset: 0x1A1F2, size: 0x8, addend: 0x0, symName: __ZNSt3__113__rewrap_iterB8ue170006INS_16reverse_iteratorIPiEES3_NS_18__unwrap_iter_implIS3_Lb0EEEEET_S6_T0_, symObjAddr: 0x2D60, symBinAddr: 0x100008940, symSize: 0x70 }
  - { offsetInCU: 0x7F85, offset: 0x1A297, size: 0x8, addend: 0x0, symName: __ZNSt3__1neB8ue170006IPiS1_EEbRKNS_16reverse_iteratorIT_EERKNS2_IT0_EE, symObjAddr: 0x2ED0, symBinAddr: 0x100008AB0, symSize: 0x40 }
  - { offsetInCU: 0x80CE, offset: 0x1A3E0, size: 0x8, addend: 0x0, symName: __ZNSt3__19__advanceB8ue170006INS_15__list_iteratorIiPvEEEEvRT_NS_15iterator_traitsIS4_E15difference_typeENS_26bidirectional_iterator_tagE, symObjAddr: 0x3270, symBinAddr: 0x100008E40, symSize: 0x80 }
  - { offsetInCU: 0x8117, offset: 0x1A429, size: 0x8, addend: 0x0, symName: __ZNSt3__13minB8ue170006IiNS_6__lessIvvEEEERKT_S5_S5_T0_, symObjAddr: 0x3330, symBinAddr: 0x100008EE0, symSize: 0x50 }
  - { offsetInCU: 0x81A4, offset: 0x1A4B6, size: 0x8, addend: 0x0, symName: __ZNSt3__110destroy_atB8ue170006INS_4listIiNS_9allocatorIiEEEELi0EEEvPT_, symObjAddr: 0x3AE0, symBinAddr: 0x1000095D0, symSize: 0x20 }
  - { offsetInCU: 0x81DB, offset: 0x1A4ED, size: 0x8, addend: 0x0, symName: __ZNSt3__112__destroy_atB8ue170006INS_4listIiNS_9allocatorIiEEEELi0EEEvPT_, symObjAddr: 0x3B00, symBinAddr: 0x1000095F0, symSize: 0x20 }
  - { offsetInCU: 0x8212, offset: 0x1A524, size: 0x8, addend: 0x0, symName: __ZNSt3__112__to_addressB8ue170006IKcEEPT_S3_, symObjAddr: 0x3C70, symBinAddr: 0x100009760, symSize: 0x10 }
  - { offsetInCU: 0x827A, offset: 0x1A58C, size: 0x8, addend: 0x0, symName: __ZNSt3__113binary_searchB8ue170006INS_11__wrap_iterIPiEEiNS_6__lessIvvEEEEbT_S6_RKT0_T1_, symObjAddr: 0x3EB0, symBinAddr: 0x100009910, symSize: 0xA0 }
  - { offsetInCU: 0x82EB, offset: 0x1A5FD, size: 0x8, addend: 0x0, symName: __ZNSt3__111lower_boundB8ue170006INS_11__wrap_iterIPiEEiRNS_6__lessIvvEEEET_S7_S7_RKT0_T1_, symObjAddr: 0x3F50, symBinAddr: 0x1000099B0, symSize: 0x60 }
  - { offsetInCU: 0x836A, offset: 0x1A67C, size: 0x8, addend: 0x0, symName: __ZNSt3__113__lower_boundB8ue170006INS_17_ClassicAlgPolicyENS_11__wrap_iterIPiEES4_iNS_10__identityENS_6__lessIvvEEEET0_S8_T1_RKT2_RT4_RT3_, symObjAddr: 0x4000, symBinAddr: 0x100009A10, symSize: 0x100 }
  - { offsetInCU: 0x843E, offset: 0x1A750, size: 0x8, addend: 0x0, symName: __ZNSt3__18__invokeB8ue170006IRNS_6__lessIvvEEJRiRKiEEEDTclclsr3stdE7declvalIT_EEspclsr3stdE7declvalIT0_EEEEOS7_DpOS8_, symObjAddr: 0x4190, symBinAddr: 0x100009B80, symSize: 0x30 }
  - { offsetInCU: 0x84A3, offset: 0x1A7B5, size: 0x8, addend: 0x0, symName: __ZNSt3__18__invokeB8ue170006IRNS_10__identityEJRiEEEDTclclsr3stdE7declvalIT_EEspclsr3stdE7declvalIT0_EEEEOS4_DpOS5_, symObjAddr: 0x41C0, symBinAddr: 0x100009BB0, symSize: 0x30 }
  - { offsetInCU: 0x84F4, offset: 0x1A806, size: 0x8, addend: 0x0, symName: __ZNSt3__18distanceB8ue170006INS_11__wrap_iterIPiEEEENS_15iterator_traitsIT_E15difference_typeES5_S5_, symObjAddr: 0x4210, symBinAddr: 0x100009BE0, symSize: 0x40 }
  - { offsetInCU: 0x8537, offset: 0x1A849, size: 0x8, addend: 0x0, symName: __ZNSt3__110__distanceB8ue170006INS_11__wrap_iterIPiEEEENS_15iterator_traitsIT_E15difference_typeES5_S5_NS_26random_access_iterator_tagE, symObjAddr: 0x4250, symBinAddr: 0x100009C20, symSize: 0x30 }
  - { offsetInCU: 0x8584, offset: 0x1A896, size: 0x8, addend: 0x0, symName: __ZNSt3__1miB8ue170006IPiS1_EEDTmicldtfp_4baseEcldtfp0_4baseEERKNS_11__wrap_iterIT_EERKNS3_IT0_EE, symObjAddr: 0x4280, symBinAddr: 0x100009C50, symSize: 0x40 }
  - { offsetInCU: 0x85D0, offset: 0x1A8E2, size: 0x8, addend: 0x0, symName: __ZNSt3__19__advanceB8ue170006INS_11__wrap_iterIPiEEEEvRT_NS_15iterator_traitsIS4_E15difference_typeENS_26random_access_iterator_tagE, symObjAddr: 0x4310, symBinAddr: 0x100009CC0, symSize: 0x30 }
  - { offsetInCU: 0x86A7, offset: 0x1A9B9, size: 0x8, addend: 0x0, symName: __ZNSt3__112construct_atB8ue170006INS_4listIiNS_9allocatorIiEEEEJRKS4_EPS4_EEPT_S9_DpOT0_, symObjAddr: 0x5CE0, symBinAddr: 0x10000AAC0, symSize: 0x40 }
  - { offsetInCU: 0x8717, offset: 0x1AA29, size: 0x8, addend: 0x0, symName: __ZNSt3__1eqB8ue170006ERKNS_15__list_iteratorINS_4listIiNS_9allocatorIiEEEEPvEES8_, symObjAddr: 0x5F20, symBinAddr: 0x10000AD00, symSize: 0x30 }
  - { offsetInCU: 0x8754, offset: 0x1AA66, size: 0x8, addend: 0x0, symName: __ZNSt3__1neB8ue170006ERKNS_21__list_const_iteratorIiPvEES4_, symObjAddr: 0x6120, symBinAddr: 0x10000AF00, symSize: 0x30 }
  - { offsetInCU: 0x8791, offset: 0x1AAA3, size: 0x8, addend: 0x0, symName: __ZNSt3__1eqB8ue170006ERKNS_21__list_const_iteratorIiPvEES4_, symObjAddr: 0x6300, symBinAddr: 0x10000B0E0, symSize: 0x30 }
  - { offsetInCU: 0x87CE, offset: 0x1AAE0, size: 0x8, addend: 0x0, symName: __ZNSt3__112construct_atB8ue170006INS_4listIiNS_9allocatorIiEEEEJRS4_EPS4_EEPT_S8_DpOT0_, symObjAddr: 0x6820, symBinAddr: 0x10000B600, symSize: 0x40 }
  - { offsetInCU: 0x8BA0, offset: 0x1AEB2, size: 0x8, addend: 0x0, symName: __ZNSt3__16vectorIiNS_9allocatorIiEEE26__swap_out_circular_bufferERNS_14__split_bufferIiRS2_EE, symObjAddr: 0x1D90, symBinAddr: 0x100007CB0, symSize: 0x120 }
  - { offsetInCU: 0xAE5D, offset: 0x1D16F, size: 0x8, addend: 0x0, symName: __ZNSt3__16vectorIiNS_9allocatorIiEEED1B8ue170006Ev, symObjAddr: 0x0, symBinAddr: 0x100006250, symSize: 0x20 }
  - { offsetInCU: 0xAE87, offset: 0x1D199, size: 0x8, addend: 0x0, symName: _main, symObjAddr: 0x20, symBinAddr: 0x100006270, symSize: 0xE0 }
  - { offsetInCU: 0xAEBE, offset: 0x1D1D0, size: 0x8, addend: 0x0, symName: __ZNSt3__16vectorIiNS_9allocatorIiEEE9push_backB8ue170006ERKi, symObjAddr: 0x100, symBinAddr: 0x100006350, symSize: 0x60 }
  - { offsetInCU: 0xAEF5, offset: 0x1D207, size: 0x8, addend: 0x0, symName: __ZNKSt3__16vectorIiNS_9allocatorIiEEE4sizeB8ue170006Ev, symObjAddr: 0x1A0, symBinAddr: 0x1000063B0, symSize: 0x20 }
  - { offsetInCU: 0xAF1A, offset: 0x1D22C, size: 0x8, addend: 0x0, symName: __Z5solvei, symObjAddr: 0x230, symBinAddr: 0x1000063D0, symSize: 0x830 }
  - { offsetInCU: 0xB082, offset: 0x1D394, size: 0x8, addend: 0x0, symName: __ZNSt3__14listIiNS_9allocatorIiEEEC1ESt16initializer_listIiE, symObjAddr: 0xA60, symBinAddr: 0x100006C00, symSize: 0x30 }
  - { offsetInCU: 0xB0BD, offset: 0x1D3CF, size: 0x8, addend: 0x0, symName: __ZNSt3__114numeric_limitsIiE3maxB8ue170006Ev, symObjAddr: 0xA90, symBinAddr: 0x100006C30, symSize: 0x10 }
  - { offsetInCU: 0xB0D1, offset: 0x1D3E3, size: 0x8, addend: 0x0, symName: __ZNSt3__14listINS0_IiNS_9allocatorIiEEEENS1_IS3_EEEC1B8ue170006Ev, symObjAddr: 0xAA0, symBinAddr: 0x100006C40, symSize: 0x20 }
  - { offsetInCU: 0xB0FB, offset: 0x1D40D, size: 0x8, addend: 0x0, symName: __ZNSt3__14listIiNS_9allocatorIiEEEC1B8ue170006Ev, symObjAddr: 0xB80, symBinAddr: 0x100006C60, symSize: 0x20 }
  - { offsetInCU: 0xB125, offset: 0x1D437, size: 0x8, addend: 0x0, symName: __ZNSt3__14listIiNS_9allocatorIiEEE9push_backERKi, symObjAddr: 0xBA0, symBinAddr: 0x100006C80, symSize: 0x100 }
  - { offsetInCU: 0xB17A, offset: 0x1D48C, size: 0x8, addend: 0x0, symName: __ZNSt3__14listINS0_IiNS_9allocatorIiEEEENS1_IS3_EEE9push_backERKS3_, symObjAddr: 0xCA0, symBinAddr: 0x100006D80, symSize: 0x100 }
  - { offsetInCU: 0xB1CF, offset: 0x1D4E1, size: 0x8, addend: 0x0, symName: __ZNSt3__14listINS0_IiNS_9allocatorIiEEEENS1_IS3_EEE5frontB8ue170006Ev, symObjAddr: 0xDA0, symBinAddr: 0x100006E80, symSize: 0x30 }
  - { offsetInCU: 0xB1F5, offset: 0x1D507, size: 0x8, addend: 0x0, symName: __ZNSt3__14listINS0_IiNS_9allocatorIiEEEENS1_IS3_EEE5beginB8ue170006Ev, symObjAddr: 0xDD0, symBinAddr: 0x100006EB0, symSize: 0x30 }
  - { offsetInCU: 0xB21B, offset: 0x1D52D, size: 0x8, addend: 0x0, symName: __ZNSt3__14listINS0_IiNS_9allocatorIiEEEENS1_IS3_EEE3endB8ue170006Ev, symObjAddr: 0xE00, symBinAddr: 0x100006EE0, symSize: 0x30 }
  - { offsetInCU: 0xB241, offset: 0x1D553, size: 0x8, addend: 0x0, symName: __ZNKSt3__115__list_iteratorINS_4listIiNS_9allocatorIiEEEEPvEdeB8ue170006Ev, symObjAddr: 0xE60, symBinAddr: 0x100006F40, symSize: 0x30 }
  - { offsetInCU: 0xB267, offset: 0x1D579, size: 0x8, addend: 0x0, symName: __ZNSt3__14listIiNS_9allocatorIiEEEC1ERKS3_, symObjAddr: 0xE90, symBinAddr: 0x100006F70, symSize: 0x30 }
  - { offsetInCU: 0xB2A1, offset: 0x1D5B3, size: 0x8, addend: 0x0, symName: __Z9primePairii, symObjAddr: 0xEF0, symBinAddr: 0x100006FD0, symSize: 0x2C0 }
  - { offsetInCU: 0xB2DC, offset: 0x1D5EE, size: 0x8, addend: 0x0, symName: __ZNSt3__14listIiNS_9allocatorIiEEE5frontB8ue170006Ev, symObjAddr: 0x11E0, symBinAddr: 0x100007290, symSize: 0x30 }
  - { offsetInCU: 0xB301, offset: 0x1D613, size: 0x8, addend: 0x0, symName: __Z3maxii, symObjAddr: 0x1210, symBinAddr: 0x1000072C0, symSize: 0x30 }
  - { offsetInCU: 0xB33C, offset: 0x1D64E, size: 0x8, addend: 0x0, symName: __ZNKSt3__14listIiNS_9allocatorIiEEE4sizeB8ue170006Ev, symObjAddr: 0x1240, symBinAddr: 0x1000072F0, symSize: 0x20 }
  - { offsetInCU: 0xB362, offset: 0x1D674, size: 0x8, addend: 0x0, symName: __ZNSt3__14listIiNS_9allocatorIiEEED1Ev, symObjAddr: 0x1290, symBinAddr: 0x100007340, symSize: 0x20 }
  - { offsetInCU: 0xB38F, offset: 0x1D6A1, size: 0x8, addend: 0x0, symName: __ZNSt3__115__list_iteratorINS_4listIiNS_9allocatorIiEEEEPvEppB8ue170006Ev, symObjAddr: 0x12B0, symBinAddr: 0x100007360, symSize: 0x20 }
  - { offsetInCU: 0xB3B5, offset: 0x1D6C7, size: 0x8, addend: 0x0, symName: __ZNSt3__14listINS0_IiNS_9allocatorIiEEEENS1_IS3_EEE12append_rangeB8ue170006IRS5_EEvOT_, symObjAddr: 0x12D0, symBinAddr: 0x100007380, symSize: 0x50 }
  - { offsetInCU: 0xB3F3, offset: 0x1D705, size: 0x8, addend: 0x0, symName: __ZNSt3__14listINS0_IiNS_9allocatorIiEEEENS1_IS3_EEED1Ev, symObjAddr: 0x1320, symBinAddr: 0x1000073D0, symSize: 0x20 }
  - { offsetInCU: 0xB41F, offset: 0x1D731, size: 0x8, addend: 0x0, symName: __Z10primechecki, symObjAddr: 0x1340, symBinAddr: 0x1000073F0, symSize: 0x50 }
  - { offsetInCU: 0xB44C, offset: 0x1D75E, size: 0x8, addend: 0x0, symName: __ZNSt3__16vectorIiNS_9allocatorIiEEED2B8ue170006Ev, symObjAddr: 0x1480, symBinAddr: 0x1000074D0, symSize: 0x40 }
  - { offsetInCU: 0xB476, offset: 0x1D788, size: 0x8, addend: 0x0, symName: __ZNSt3__16vectorIiNS_9allocatorIiEEE16__destroy_vectorC1B8ue170006ERS3_, symObjAddr: 0x14C0, symBinAddr: 0x100007510, symSize: 0x30 }
  - { offsetInCU: 0xB4AF, offset: 0x1D7C1, size: 0x8, addend: 0x0, symName: __ZNSt3__16vectorIiNS_9allocatorIiEEE16__destroy_vectorclB8ue170006Ev, symObjAddr: 0x1500, symBinAddr: 0x100007540, symSize: 0x80 }
  - { offsetInCU: 0xB4D5, offset: 0x1D7E7, size: 0x8, addend: 0x0, symName: __ZNSt3__16vectorIiNS_9allocatorIiEEE16__destroy_vectorC2B8ue170006ERS3_, symObjAddr: 0x1580, symBinAddr: 0x1000075C0, symSize: 0x20 }
  - { offsetInCU: 0xB50E, offset: 0x1D820, size: 0x8, addend: 0x0, symName: __ZNSt3__16vectorIiNS_9allocatorIiEEE7__clearB8ue170006Ev, symObjAddr: 0x15A0, symBinAddr: 0x1000075E0, symSize: 0x20 }
  - { offsetInCU: 0xB534, offset: 0x1D846, size: 0x8, addend: 0x0, symName: __ZNKSt3__16vectorIiNS_9allocatorIiEEE17__annotate_deleteB8ue170006Ev, symObjAddr: 0x15C0, symBinAddr: 0x100007600, symSize: 0xB0 }
  - { offsetInCU: 0xB55A, offset: 0x1D86C, size: 0x8, addend: 0x0, symName: __ZNSt3__116allocator_traitsINS_9allocatorIiEEE10deallocateB8ue170006ERS2_Pim, symObjAddr: 0x1670, symBinAddr: 0x1000076B0, symSize: 0x30 }
  - { offsetInCU: 0xB59C, offset: 0x1D8AE, size: 0x8, addend: 0x0, symName: __ZNSt3__16vectorIiNS_9allocatorIiEEE7__allocB8ue170006Ev, symObjAddr: 0x16A0, symBinAddr: 0x1000076E0, symSize: 0x20 }
  - { offsetInCU: 0xB5C2, offset: 0x1D8D4, size: 0x8, addend: 0x0, symName: __ZNKSt3__16vectorIiNS_9allocatorIiEEE8capacityB8ue170006Ev, symObjAddr: 0x16C0, symBinAddr: 0x100007700, symSize: 0x30 }
  - { offsetInCU: 0xB5E8, offset: 0x1D8FA, size: 0x8, addend: 0x0, symName: __ZNSt3__16vectorIiNS_9allocatorIiEEE22__base_destruct_at_endB8ue170006EPi, symObjAddr: 0x16F0, symBinAddr: 0x100007730, symSize: 0x80 }
  - { offsetInCU: 0xB62C, offset: 0x1D93E, size: 0x8, addend: 0x0, symName: __ZNSt3__116allocator_traitsINS_9allocatorIiEEE7destroyB8ue170006IivvEEvRS2_PT_, symObjAddr: 0x1770, symBinAddr: 0x1000077B0, symSize: 0x20 }
  - { offsetInCU: 0xB666, offset: 0x1D978, size: 0x8, addend: 0x0, symName: __ZNKSt3__16vectorIiNS_9allocatorIiEEE31__annotate_contiguous_containerB8ue170006EPKvS5_S5_S5_, symObjAddr: 0x17D0, symBinAddr: 0x100007810, symSize: 0x20 }
  - { offsetInCU: 0xB6B8, offset: 0x1D9CA, size: 0x8, addend: 0x0, symName: __ZNKSt3__16vectorIiNS_9allocatorIiEEE4dataB8ue170006Ev, symObjAddr: 0x17F0, symBinAddr: 0x100007830, symSize: 0x20 }
  - { offsetInCU: 0xB6DE, offset: 0x1D9F0, size: 0x8, addend: 0x0, symName: __ZNSt3__19allocatorIiE10deallocateB8ue170006EPim, symObjAddr: 0x1810, symBinAddr: 0x100007850, symSize: 0x40 }
  - { offsetInCU: 0xB720, offset: 0x1DA32, size: 0x8, addend: 0x0, symName: __ZNSt3__117__compressed_pairIPiNS_9allocatorIiEEE6secondB8ue170006Ev, symObjAddr: 0x1970, symBinAddr: 0x100007890, symSize: 0x20 }
  - { offsetInCU: 0xB746, offset: 0x1DA58, size: 0x8, addend: 0x0, symName: __ZNSt3__122__compressed_pair_elemINS_9allocatorIiEELi1ELb1EE5__getB8ue170006Ev, symObjAddr: 0x1990, symBinAddr: 0x1000078B0, symSize: 0x10 }
  - { offsetInCU: 0xB76C, offset: 0x1DA7E, size: 0x8, addend: 0x0, symName: __ZNKSt3__16vectorIiNS_9allocatorIiEEE9__end_capB8ue170006Ev, symObjAddr: 0x19A0, symBinAddr: 0x1000078C0, symSize: 0x20 }
  - { offsetInCU: 0xB792, offset: 0x1DAA4, size: 0x8, addend: 0x0, symName: __ZNKSt3__117__compressed_pairIPiNS_9allocatorIiEEE5firstB8ue170006Ev, symObjAddr: 0x19C0, symBinAddr: 0x1000078E0, symSize: 0x20 }
  - { offsetInCU: 0xB7B8, offset: 0x1DACA, size: 0x8, addend: 0x0, symName: __ZNKSt3__122__compressed_pair_elemIPiLi0ELb0EE5__getB8ue170006Ev, symObjAddr: 0x19E0, symBinAddr: 0x100007900, symSize: 0x10 }
  - { offsetInCU: 0xB7DE, offset: 0x1DAF0, size: 0x8, addend: 0x0, symName: __ZNSt3__16vectorIiNS_9allocatorIiEEE9__end_capB8ue170006Ev, symObjAddr: 0x19F0, symBinAddr: 0x100007910, symSize: 0x20 }
  - { offsetInCU: 0xB809, offset: 0x1DB1B, size: 0x8, addend: 0x0, symName: __ZNSt3__16vectorIiNS_9allocatorIiEEE22__construct_one_at_endB8ue170006IJRKiEEEvDpOT_, symObjAddr: 0x1A10, symBinAddr: 0x100007930, symSize: 0x90 }
  - { offsetInCU: 0xB858, offset: 0x1DB6A, size: 0x8, addend: 0x0, symName: __ZNSt3__16vectorIiNS_9allocatorIiEEE21__push_back_slow_pathIRKiEEvOT_, symObjAddr: 0x1AA0, symBinAddr: 0x1000079C0, symSize: 0xD0 }
  - { offsetInCU: 0xB8B6, offset: 0x1DBC8, size: 0x8, addend: 0x0, symName: __ZNSt3__117__compressed_pairIPiNS_9allocatorIiEEE5firstB8ue170006Ev, symObjAddr: 0x1B70, symBinAddr: 0x100007A90, symSize: 0x20 }
  - { offsetInCU: 0xB8DC, offset: 0x1DBEE, size: 0x8, addend: 0x0, symName: __ZNSt3__122__compressed_pair_elemIPiLi0ELb0EE5__getB8ue170006Ev, symObjAddr: 0x1B90, symBinAddr: 0x100007AB0, symSize: 0x10 }
  - { offsetInCU: 0xB91B, offset: 0x1DC2D, size: 0x8, addend: 0x0, symName: __ZNSt3__16vectorIiNS_9allocatorIiEEE21_ConstructTransactionC1B8ue170006ERS3_m, symObjAddr: 0x1BA0, symBinAddr: 0x100007AC0, symSize: 0x30 }
  - { offsetInCU: 0xB963, offset: 0x1DC75, size: 0x8, addend: 0x0, symName: __ZNSt3__116allocator_traitsINS_9allocatorIiEEE9constructB8ue170006IiJRKiEvvEEvRS2_PT_DpOT0_, symObjAddr: 0x1BD0, symBinAddr: 0x100007AF0, symSize: 0x30 }
  - { offsetInCU: 0xB9B7, offset: 0x1DCC9, size: 0x8, addend: 0x0, symName: __ZNSt3__16vectorIiNS_9allocatorIiEEE21_ConstructTransactionD1B8ue170006Ev, symObjAddr: 0x1C00, symBinAddr: 0x100007B20, symSize: 0x20 }
  - { offsetInCU: 0xB9E1, offset: 0x1DCF3, size: 0x8, addend: 0x0, symName: __ZNSt3__16vectorIiNS_9allocatorIiEEE21_ConstructTransactionC2B8ue170006ERS3_m, symObjAddr: 0x1C20, symBinAddr: 0x100007B40, symSize: 0x40 }
  - { offsetInCU: 0xBA29, offset: 0x1DD3B, size: 0x8, addend: 0x0, symName: __ZNSt3__16vectorIiNS_9allocatorIiEEE21_ConstructTransactionD2B8ue170006Ev, symObjAddr: 0x1C90, symBinAddr: 0x100007BB0, symSize: 0x20 }
  - { offsetInCU: 0xBA53, offset: 0x1DD65, size: 0x8, addend: 0x0, symName: __ZNKSt3__16vectorIiNS_9allocatorIiEEE11__recommendB8ue170006Em, symObjAddr: 0x1CB0, symBinAddr: 0x100007BD0, symSize: 0xA0 }
  - { offsetInCU: 0xBAA8, offset: 0x1DDBA, size: 0x8, addend: 0x0, symName: __ZNSt3__114__split_bufferIiRNS_9allocatorIiEEEC1EmmS3_, symObjAddr: 0x1D50, symBinAddr: 0x100007C70, symSize: 0x40 }
  - { offsetInCU: 0xBAFE, offset: 0x1DE10, size: 0x8, addend: 0x0, symName: __ZNSt3__114__split_bufferIiRNS_9allocatorIiEEED1Ev, symObjAddr: 0x1EB0, symBinAddr: 0x100007DD0, symSize: 0x20 }
  - { offsetInCU: 0xBB2A, offset: 0x1DE3C, size: 0x8, addend: 0x0, symName: __ZNKSt3__16vectorIiNS_9allocatorIiEEE8max_sizeEv, symObjAddr: 0x1ED0, symBinAddr: 0x100007DF0, symSize: 0x60 }
  - { offsetInCU: 0xBB52, offset: 0x1DE64, size: 0x8, addend: 0x0, symName: __ZNKSt3__16vectorIiNS_9allocatorIiEEE20__throw_length_errorB8ue170006Ev, symObjAddr: 0x1F30, symBinAddr: 0x100007E50, symSize: 0x20 }
  - { offsetInCU: 0xBB82, offset: 0x1DE94, size: 0x8, addend: 0x0, symName: __ZNSt3__116allocator_traitsINS_9allocatorIiEEE8max_sizeB8ue170006IS2_vvEEmRKS2_, symObjAddr: 0x1FB0, symBinAddr: 0x100007E70, symSize: 0x20 }
  - { offsetInCU: 0xBBAD, offset: 0x1DEBF, size: 0x8, addend: 0x0, symName: __ZNKSt3__16vectorIiNS_9allocatorIiEEE7__allocB8ue170006Ev, symObjAddr: 0x1FD0, symBinAddr: 0x100007E90, symSize: 0x20 }
  - { offsetInCU: 0xBBDD, offset: 0x1DEEF, size: 0x8, addend: 0x0, symName: __ZNKSt3__117__compressed_pairIPiNS_9allocatorIiEEE6secondB8ue170006Ev, symObjAddr: 0x20A0, symBinAddr: 0x100007EB0, symSize: 0x20 }
  - { offsetInCU: 0xBC03, offset: 0x1DF15, size: 0x8, addend: 0x0, symName: __ZNKSt3__122__compressed_pair_elemINS_9allocatorIiEELi1ELb1EE5__getB8ue170006Ev, symObjAddr: 0x20C0, symBinAddr: 0x100007ED0, symSize: 0x10 }
  - { offsetInCU: 0xBC29, offset: 0x1DF3B, size: 0x8, addend: 0x0, symName: __ZNSt3__114__split_bufferIiRNS_9allocatorIiEEEC2EmmS3_, symObjAddr: 0x2210, symBinAddr: 0x100007EE0, symSize: 0xD0 }
  - { offsetInCU: 0xBCA1, offset: 0x1DFB3, size: 0x8, addend: 0x0, symName: __ZNSt3__117__compressed_pairIPiRNS_9allocatorIiEEEC1B8ue170006IDnS4_EEOT_OT0_, symObjAddr: 0x22E0, symBinAddr: 0x100007FB0, symSize: 0x30 }
  - { offsetInCU: 0xBCF9, offset: 0x1E00B, size: 0x8, addend: 0x0, symName: __ZNSt3__114__split_bufferIiRNS_9allocatorIiEEE7__allocB8ue170006Ev, symObjAddr: 0x2350, symBinAddr: 0x100008020, symSize: 0x20 }
  - { offsetInCU: 0xBD1F, offset: 0x1E031, size: 0x8, addend: 0x0, symName: __ZNSt3__114__split_bufferIiRNS_9allocatorIiEEE9__end_capB8ue170006Ev, symObjAddr: 0x2370, symBinAddr: 0x100008040, symSize: 0x20 }
  - { offsetInCU: 0xBD45, offset: 0x1E057, size: 0x8, addend: 0x0, symName: __ZNSt3__117__compressed_pairIPiRNS_9allocatorIiEEEC2B8ue170006IDnS4_EEOT_OT0_, symObjAddr: 0x2390, symBinAddr: 0x100008060, symSize: 0x40 }
  - { offsetInCU: 0xBD9D, offset: 0x1E0AF, size: 0x8, addend: 0x0, symName: __ZNSt3__122__compressed_pair_elemIPiLi0ELb0EEC2B8ue170006IDnvEEOT_, symObjAddr: 0x23D0, symBinAddr: 0x1000080A0, symSize: 0x20 }
  - { offsetInCU: 0xBDDF, offset: 0x1E0F1, size: 0x8, addend: 0x0, symName: __ZNSt3__122__compressed_pair_elemIRNS_9allocatorIiEELi1ELb0EEC2B8ue170006IS3_vEEOT_, symObjAddr: 0x23F0, symBinAddr: 0x1000080C0, symSize: 0x20 }
  - { offsetInCU: 0xBE21, offset: 0x1E133, size: 0x8, addend: 0x0, symName: __ZNSt3__19allocatorIiE17allocate_at_leastB8ue170006Em, symObjAddr: 0x2450, symBinAddr: 0x100008120, symSize: 0x40 }
  - { offsetInCU: 0xBE55, offset: 0x1E167, size: 0x8, addend: 0x0, symName: __ZNSt3__19allocatorIiE8allocateB8ue170006Em, symObjAddr: 0x2490, symBinAddr: 0x100008160, symSize: 0x50 }
  - { offsetInCU: 0xBE89, offset: 0x1E19B, size: 0x8, addend: 0x0, symName: __ZNSt3__117__compressed_pairIPiRNS_9allocatorIiEEE6secondB8ue170006Ev, symObjAddr: 0x25D0, symBinAddr: 0x1000081B0, symSize: 0x20 }
  - { offsetInCU: 0xBEAF, offset: 0x1E1C1, size: 0x8, addend: 0x0, symName: __ZNSt3__122__compressed_pair_elemIRNS_9allocatorIiEELi1ELb0EE5__getB8ue170006Ev, symObjAddr: 0x25F0, symBinAddr: 0x1000081D0, symSize: 0x20 }
  - { offsetInCU: 0xBED5, offset: 0x1E1E7, size: 0x8, addend: 0x0, symName: __ZNSt3__117__compressed_pairIPiRNS_9allocatorIiEEE5firstB8ue170006Ev, symObjAddr: 0x2610, symBinAddr: 0x1000081F0, symSize: 0x20 }
  - { offsetInCU: 0xBEFB, offset: 0x1E20D, size: 0x8, addend: 0x0, symName: __ZNSt3__116reverse_iteratorIPiEC1B8ue170006ES1_, symObjAddr: 0x26A0, symBinAddr: 0x100008280, symSize: 0x30 }
  - { offsetInCU: 0xBF33, offset: 0x1E245, size: 0x8, addend: 0x0, symName: __ZNKSt3__116reverse_iteratorIPiE4baseB8ue170006Ev, symObjAddr: 0x26D0, symBinAddr: 0x1000082B0, symSize: 0x20 }
  - { offsetInCU: 0xBF59, offset: 0x1E26B, size: 0x8, addend: 0x0, symName: __ZNKSt3__16vectorIiNS_9allocatorIiEEE14__annotate_newB8ue170006Em, symObjAddr: 0x2730, symBinAddr: 0x100008310, symSize: 0xB0 }
  - { offsetInCU: 0xBFB6, offset: 0x1E2C8, size: 0x8, addend: 0x0, symName: __ZNKSt3__111__move_loopINS_17_ClassicAlgPolicyEEclB8ue170006INS_16reverse_iteratorIPiEES6_S6_EENS_4pairIT_T1_EES8_T0_S9_, symObjAddr: 0x2BF0, symBinAddr: 0x1000087D0, symSize: 0xA0 }
  - { offsetInCU: 0xC021, offset: 0x1E333, size: 0x8, addend: 0x0, symName: __ZNSt3__119__unwrap_range_implINS_16reverse_iteratorIPiEES3_E8__unwrapB8ue170006ES3_S3_, symObjAddr: 0x2DD0, symBinAddr: 0x1000089B0, symSize: 0x90 }
  - { offsetInCU: 0xC057, offset: 0x1E369, size: 0x8, addend: 0x0, symName: __ZNSt3__14pairINS_16reverse_iteratorIPiEES3_EC1B8ue170006IS3_S3_LPv0EEEOT_OT0_, symObjAddr: 0x2E60, symBinAddr: 0x100008A40, symSize: 0x30 }
  - { offsetInCU: 0xC0B5, offset: 0x1E3C7, size: 0x8, addend: 0x0, symName: __ZNSt3__14pairINS_16reverse_iteratorIPiEES3_EC2B8ue170006IS3_S3_LPv0EEEOT_OT0_, symObjAddr: 0x2E90, symBinAddr: 0x100008A70, symSize: 0x40 }
  - { offsetInCU: 0xC118, offset: 0x1E42A, size: 0x8, addend: 0x0, symName: __ZNSt3__18_IterOpsINS_17_ClassicAlgPolicyEE11__iter_moveB8ue170006IRNS_16reverse_iteratorIPiEEEENS_9enable_ifIXsr12is_referenceIDTdeclsr3stdE7declvalIRT_EEEEE5valueEDTclsr3stdE4movedeclsr3stdE7declvalISA_EEEEE4typeEOS9_, symObjAddr: 0x2F10, symBinAddr: 0x100008AF0, symSize: 0x20 }
  - { offsetInCU: 0xC144, offset: 0x1E456, size: 0x8, addend: 0x0, symName: __ZNKSt3__116reverse_iteratorIPiEdeB8ue170006Ev, symObjAddr: 0x2F30, symBinAddr: 0x100008B10, symSize: 0x30 }
  - { offsetInCU: 0xC178, offset: 0x1E48A, size: 0x8, addend: 0x0, symName: __ZNSt3__116reverse_iteratorIPiEppB8ue170006Ev, symObjAddr: 0x2F60, symBinAddr: 0x100008B40, symSize: 0x20 }
  - { offsetInCU: 0xC19E, offset: 0x1E4B0, size: 0x8, addend: 0x0, symName: __ZNSt3__18_IterOpsINS_17_ClassicAlgPolicyEE25__validate_iter_referenceB8ue170006IRNS_16reverse_iteratorIPiEEEEvv, symObjAddr: 0x2F80, symBinAddr: 0x100008B60, symSize: 0x10 }
  - { offsetInCU: 0xC1BC, offset: 0x1E4CE, size: 0x8, addend: 0x0, symName: __ZNSt3__118__unwrap_iter_implINS_16reverse_iteratorIPiEELb0EE8__unwrapB8ue170006ES3_, symObjAddr: 0x2F90, symBinAddr: 0x100008B70, symSize: 0x20 }
  - { offsetInCU: 0xC1DF, offset: 0x1E4F1, size: 0x8, addend: 0x0, symName: __ZNSt3__119__unwrap_range_implINS_16reverse_iteratorIPiEES3_E8__rewrapB8ue170006ES3_S3_, symObjAddr: 0x2FB0, symBinAddr: 0x100008B90, symSize: 0x60 }
  - { offsetInCU: 0xC210, offset: 0x1E522, size: 0x8, addend: 0x0, symName: __ZNSt3__118__unwrap_iter_implINS_16reverse_iteratorIPiEELb0EE8__rewrapB8ue170006ES3_S3_, symObjAddr: 0x3010, symBinAddr: 0x100008BF0, symSize: 0x30 }
  - { offsetInCU: 0xC23D, offset: 0x1E54F, size: 0x8, addend: 0x0, symName: __ZNSt3__116reverse_iteratorIPiEC2B8ue170006ES1_, symObjAddr: 0x3040, symBinAddr: 0x100008C20, symSize: 0x30 }
  - { offsetInCU: 0xC275, offset: 0x1E587, size: 0x8, addend: 0x0, symName: __ZNSt3__114__split_bufferIiRNS_9allocatorIiEEED2Ev, symObjAddr: 0x3070, symBinAddr: 0x100008C50, symSize: 0x70 }
  - { offsetInCU: 0xC2A1, offset: 0x1E5B3, size: 0x8, addend: 0x0, symName: __ZNSt3__114__split_bufferIiRNS_9allocatorIiEEE5clearB8ue170006Ev, symObjAddr: 0x30E0, symBinAddr: 0x100008CC0, symSize: 0x20 }
  - { offsetInCU: 0xC2C7, offset: 0x1E5D9, size: 0x8, addend: 0x0, symName: __ZNKSt3__114__split_bufferIiRNS_9allocatorIiEEE8capacityB8ue170006Ev, symObjAddr: 0x3100, symBinAddr: 0x100008CE0, symSize: 0x30 }
  - { offsetInCU: 0xC2ED, offset: 0x1E5FF, size: 0x8, addend: 0x0, symName: __ZNSt3__114__split_bufferIiRNS_9allocatorIiEEE17__destruct_at_endB8ue170006EPi, symObjAddr: 0x3130, symBinAddr: 0x100008D10, symSize: 0x30 }
  - { offsetInCU: 0xC321, offset: 0x1E633, size: 0x8, addend: 0x0, symName: __ZNSt3__114__split_bufferIiRNS_9allocatorIiEEE17__destruct_at_endB8ue170006EPiNS_17integral_constantIbLb0EEE, symObjAddr: 0x3160, symBinAddr: 0x100008D40, symSize: 0x80 }
  - { offsetInCU: 0xC361, offset: 0x1E673, size: 0x8, addend: 0x0, symName: __ZNKSt3__114__split_bufferIiRNS_9allocatorIiEEE9__end_capB8ue170006Ev, symObjAddr: 0x31E0, symBinAddr: 0x100008DC0, symSize: 0x20 }
  - { offsetInCU: 0xC387, offset: 0x1E699, size: 0x8, addend: 0x0, symName: __ZNKSt3__117__compressed_pairIPiRNS_9allocatorIiEEE5firstB8ue170006Ev, symObjAddr: 0x3200, symBinAddr: 0x100008DE0, symSize: 0x20 }
  - { offsetInCU: 0xC3AD, offset: 0x1E6BF, size: 0x8, addend: 0x0, symName: __ZNSt3__123__libcpp_numeric_limitsIiLb1EE3maxB8ue170006Ev, symObjAddr: 0x3220, symBinAddr: 0x100008E00, symSize: 0x10 }
  - { offsetInCU: 0xC3C1, offset: 0x1E6D3, size: 0x8, addend: 0x0, symName: __ZNSt3__115__list_iteratorIiPvEmmB8ue170006Ev, symObjAddr: 0x3310, symBinAddr: 0x100008EC0, symSize: 0x20 }
  - { offsetInCU: 0xC3E7, offset: 0x1E6F9, size: 0x8, addend: 0x0, symName: __ZNKSt3__16__lessIvvEclB8ue170006IiiEEbRKT_RKT0_, symObjAddr: 0x3380, symBinAddr: 0x100008F30, symSize: 0x30 }
  - { offsetInCU: 0xC43B, offset: 0x1E74D, size: 0x8, addend: 0x0, symName: __ZNSt3__14listIiNS_9allocatorIiEEED2Ev, symObjAddr: 0x33B0, symBinAddr: 0x100008F60, symSize: 0x20 }
  - { offsetInCU: 0xC468, offset: 0x1E77A, size: 0x8, addend: 0x0, symName: __ZNSt3__110__list_impIiNS_9allocatorIiEEED2Ev, symObjAddr: 0x33D0, symBinAddr: 0x100008F80, symSize: 0x20 }
  - { offsetInCU: 0xC494, offset: 0x1E7A6, size: 0x8, addend: 0x0, symName: __ZNSt3__110__list_impIiNS_9allocatorIiEEE5clearEv, symObjAddr: 0x33F0, symBinAddr: 0x100008FA0, symSize: 0xE0 }
  - { offsetInCU: 0xC504, offset: 0x1E816, size: 0x8, addend: 0x0, symName: __ZNKSt3__110__list_impIiNS_9allocatorIiEEE5emptyB8ue170006Ev, symObjAddr: 0x34D0, symBinAddr: 0x100009080, symSize: 0x30 }
  - { offsetInCU: 0xC52A, offset: 0x1E83C, size: 0x8, addend: 0x0, symName: __ZNSt3__110__list_impIiNS_9allocatorIiEEE12__node_allocB8ue170006Ev, symObjAddr: 0x3500, symBinAddr: 0x1000090B0, symSize: 0x20 }
  - { offsetInCU: 0xC550, offset: 0x1E862, size: 0x8, addend: 0x0, symName: __ZNSt3__110__list_impIiNS_9allocatorIiEEE14__unlink_nodesEPNS_16__list_node_baseIiPvEES7_, symObjAddr: 0x3570, symBinAddr: 0x1000090D0, symSize: 0x40 }
  - { offsetInCU: 0xC585, offset: 0x1E897, size: 0x8, addend: 0x0, symName: __ZNSt3__110__list_impIiNS_9allocatorIiEEE4__szB8ue170006Ev, symObjAddr: 0x35B0, symBinAddr: 0x100009110, symSize: 0x20 }
  - { offsetInCU: 0xC5AB, offset: 0x1E8BD, size: 0x8, addend: 0x0, symName: __ZNSt3__116allocator_traitsINS_9allocatorINS_11__list_nodeIiPvEEEEE7destroyB8ue170006IivvEEvRS5_PT_, symObjAddr: 0x35F0, symBinAddr: 0x100009130, symSize: 0x20 }
  - { offsetInCU: 0xC5E5, offset: 0x1E8F7, size: 0x8, addend: 0x0, symName: __ZNSt3__116allocator_traitsINS_9allocatorINS_11__list_nodeIiPvEEEEE10deallocateB8ue170006ERS5_PS4_m, symObjAddr: 0x3610, symBinAddr: 0x100009150, symSize: 0x30 }
  - { offsetInCU: 0xC627, offset: 0x1E939, size: 0x8, addend: 0x0, symName: __ZNKSt3__110__list_impIiNS_9allocatorIiEEE4__szB8ue170006Ev, symObjAddr: 0x3640, symBinAddr: 0x100009180, symSize: 0x20 }
  - { offsetInCU: 0xC64D, offset: 0x1E95F, size: 0x8, addend: 0x0, symName: __ZNKSt3__117__compressed_pairImNS_9allocatorINS_11__list_nodeIiPvEEEEE5firstB8ue170006Ev, symObjAddr: 0x3660, symBinAddr: 0x1000091A0, symSize: 0x20 }
  - { offsetInCU: 0xC673, offset: 0x1E985, size: 0x8, addend: 0x0, symName: __ZNKSt3__122__compressed_pair_elemImLi0ELb0EE5__getB8ue170006Ev, symObjAddr: 0x3680, symBinAddr: 0x1000091C0, symSize: 0x10 }
  - { offsetInCU: 0xC699, offset: 0x1E9AB, size: 0x8, addend: 0x0, symName: __ZNSt3__117__compressed_pairImNS_9allocatorINS_11__list_nodeIiPvEEEEE6secondB8ue170006Ev, symObjAddr: 0x3690, symBinAddr: 0x1000091D0, symSize: 0x20 }
  - { offsetInCU: 0xC6BF, offset: 0x1E9D1, size: 0x8, addend: 0x0, symName: __ZNSt3__122__compressed_pair_elemINS_9allocatorINS_11__list_nodeIiPvEEEELi1ELb1EE5__getB8ue170006Ev, symObjAddr: 0x36B0, symBinAddr: 0x1000091F0, symSize: 0x10 }
  - { offsetInCU: 0xC6E5, offset: 0x1E9F7, size: 0x8, addend: 0x0, symName: __ZNSt3__117__compressed_pairImNS_9allocatorINS_11__list_nodeIiPvEEEEE5firstB8ue170006Ev, symObjAddr: 0x3700, symBinAddr: 0x100009200, symSize: 0x20 }
  - { offsetInCU: 0xC70B, offset: 0x1EA1D, size: 0x8, addend: 0x0, symName: __ZNSt3__19allocatorINS_11__list_nodeIiPvEEE10deallocateB8ue170006EPS3_m, symObjAddr: 0x3730, symBinAddr: 0x100009220, symSize: 0x50 }
  - { offsetInCU: 0xC74D, offset: 0x1EA5F, size: 0x8, addend: 0x0, symName: __ZNSt3__14listINS0_IiNS_9allocatorIiEEEENS1_IS3_EEED2Ev, symObjAddr: 0x3780, symBinAddr: 0x100009270, symSize: 0x20 }
  - { offsetInCU: 0xC77A, offset: 0x1EA8C, size: 0x8, addend: 0x0, symName: __ZNSt3__110__list_impINS_4listIiNS_9allocatorIiEEEENS2_IS4_EEED2Ev, symObjAddr: 0x37A0, symBinAddr: 0x100009290, symSize: 0x20 }
  - { offsetInCU: 0xC7A6, offset: 0x1EAB8, size: 0x8, addend: 0x0, symName: __ZNSt3__110__list_impINS_4listIiNS_9allocatorIiEEEENS2_IS4_EEE5clearEv, symObjAddr: 0x37C0, symBinAddr: 0x1000092B0, symSize: 0xE0 }
  - { offsetInCU: 0xC816, offset: 0x1EB28, size: 0x8, addend: 0x0, symName: __ZNKSt3__110__list_impINS_4listIiNS_9allocatorIiEEEENS2_IS4_EEE5emptyB8ue170006Ev, symObjAddr: 0x38A0, symBinAddr: 0x100009390, symSize: 0x30 }
  - { offsetInCU: 0xC83C, offset: 0x1EB4E, size: 0x8, addend: 0x0, symName: __ZNSt3__110__list_impINS_4listIiNS_9allocatorIiEEEENS2_IS4_EEE12__node_allocB8ue170006Ev, symObjAddr: 0x38D0, symBinAddr: 0x1000093C0, symSize: 0x20 }
  - { offsetInCU: 0xC862, offset: 0x1EB74, size: 0x8, addend: 0x0, symName: __ZNKSt3__110__list_impINS_4listIiNS_9allocatorIiEEEENS2_IS4_EEE13__end_as_linkB8ue170006Ev, symObjAddr: 0x38F0, symBinAddr: 0x1000093E0, symSize: 0x50 }
  - { offsetInCU: 0xC888, offset: 0x1EB9A, size: 0x8, addend: 0x0, symName: __ZNSt3__110__list_impINS_4listIiNS_9allocatorIiEEEENS2_IS4_EEE14__unlink_nodesEPNS_16__list_node_baseIS4_PvEESA_, symObjAddr: 0x3940, symBinAddr: 0x100009430, symSize: 0x40 }
  - { offsetInCU: 0xC8BD, offset: 0x1EBCF, size: 0x8, addend: 0x0, symName: __ZNSt3__110__list_impINS_4listIiNS_9allocatorIiEEEENS2_IS4_EEE4__szB8ue170006Ev, symObjAddr: 0x3980, symBinAddr: 0x100009470, symSize: 0x20 }
  - { offsetInCU: 0xC8E3, offset: 0x1EBF5, size: 0x8, addend: 0x0, symName: __ZNSt3__116__list_node_baseINS_4listIiNS_9allocatorIiEEEEPvE9__as_nodeB8ue170006Ev, symObjAddr: 0x39A0, symBinAddr: 0x100009490, symSize: 0x20 }
  - { offsetInCU: 0xC909, offset: 0x1EC1B, size: 0x8, addend: 0x0, symName: __ZNSt3__116allocator_traitsINS_9allocatorINS_11__list_nodeINS_4listIiNS1_IiEEEEPvEEEEE7destroyB8ue170006IS5_vvEEvRS8_PT_, symObjAddr: 0x39C0, symBinAddr: 0x1000094B0, symSize: 0x20 }
  - { offsetInCU: 0xC943, offset: 0x1EC55, size: 0x8, addend: 0x0, symName: __ZNSt3__116allocator_traitsINS_9allocatorINS_11__list_nodeINS_4listIiNS1_IiEEEEPvEEEEE10deallocateB8ue170006ERS8_PS7_m, symObjAddr: 0x39E0, symBinAddr: 0x1000094D0, symSize: 0x30 }
  - { offsetInCU: 0xC985, offset: 0x1EC97, size: 0x8, addend: 0x0, symName: __ZNKSt3__110__list_impINS_4listIiNS_9allocatorIiEEEENS2_IS4_EEE4__szB8ue170006Ev, symObjAddr: 0x3A10, symBinAddr: 0x100009500, symSize: 0x20 }
  - { offsetInCU: 0xC9AB, offset: 0x1ECBD, size: 0x8, addend: 0x0, symName: __ZNKSt3__117__compressed_pairImNS_9allocatorINS_11__list_nodeINS_4listIiNS1_IiEEEEPvEEEEE5firstB8ue170006Ev, symObjAddr: 0x3A30, symBinAddr: 0x100009520, symSize: 0x20 }
  - { offsetInCU: 0xC9D1, offset: 0x1ECE3, size: 0x8, addend: 0x0, symName: __ZNSt3__117__compressed_pairImNS_9allocatorINS_11__list_nodeINS_4listIiNS1_IiEEEEPvEEEEE6secondB8ue170006Ev, symObjAddr: 0x3A50, symBinAddr: 0x100009540, symSize: 0x20 }
  - { offsetInCU: 0xC9F7, offset: 0x1ED09, size: 0x8, addend: 0x0, symName: __ZNSt3__122__compressed_pair_elemINS_9allocatorINS_11__list_nodeINS_4listIiNS1_IiEEEEPvEEEELi1ELb1EE5__getB8ue170006Ev, symObjAddr: 0x3A70, symBinAddr: 0x100009560, symSize: 0x10 }
  - { offsetInCU: 0xCA1D, offset: 0x1ED2F, size: 0x8, addend: 0x0, symName: __ZNSt3__126__list_node_pointer_traitsINS_4listIiNS_9allocatorIiEEEEPvE26__unsafe_link_pointer_castB8ue170006EPNS_16__list_node_baseIS4_S5_EE, symObjAddr: 0x3A80, symBinAddr: 0x100009570, symSize: 0x10 }
  - { offsetInCU: 0xCA41, offset: 0x1ED53, size: 0x8, addend: 0x0, symName: __ZNSt3__116__list_node_baseINS_4listIiNS_9allocatorIiEEEEPvE6__selfB8ue170006Ev, symObjAddr: 0x3A90, symBinAddr: 0x100009580, symSize: 0x20 }
  - { offsetInCU: 0xCA6C, offset: 0x1ED7E, size: 0x8, addend: 0x0, symName: __ZNSt3__114pointer_traitsIPNS_16__list_node_baseINS_4listIiNS_9allocatorIiEEEEPvEEE10pointer_toB8ue170006ERS7_, symObjAddr: 0x3AB0, symBinAddr: 0x1000095A0, symSize: 0x10 }
  - { offsetInCU: 0xCA8F, offset: 0x1EDA1, size: 0x8, addend: 0x0, symName: __ZNSt3__117__compressed_pairImNS_9allocatorINS_11__list_nodeINS_4listIiNS1_IiEEEEPvEEEEE5firstB8ue170006Ev, symObjAddr: 0x3AC0, symBinAddr: 0x1000095B0, symSize: 0x20 }
  - { offsetInCU: 0xCAB5, offset: 0x1EDC7, size: 0x8, addend: 0x0, symName: __ZNSt3__19allocatorINS_11__list_nodeINS_4listIiNS0_IiEEEEPvEEE10deallocateB8ue170006EPS6_m, symObjAddr: 0x3B20, symBinAddr: 0x100009610, symSize: 0x50 }
  - { offsetInCU: 0xCAF7, offset: 0x1EE09, size: 0x8, addend: 0x0, symName: __ZNSt3__112basic_stringIcNS_11char_traitsIcEENS_9allocatorIcEEE6appendB8ue170006ERKS5_, symObjAddr: 0x3B70, symBinAddr: 0x100009660, symSize: 0x50 }
  - { offsetInCU: 0xCB2C, offset: 0x1EE3E, size: 0x8, addend: 0x0, symName: __ZNSt3__112basic_stringIcNS_11char_traitsIcEENS_9allocatorIcEEEC1B8ue170006EOS5_, symObjAddr: 0x3BC0, symBinAddr: 0x1000096B0, symSize: 0x30 }
  - { offsetInCU: 0xCB65, offset: 0x1EE77, size: 0x8, addend: 0x0, symName: __ZNKSt3__112basic_stringIcNS_11char_traitsIcEENS_9allocatorIcEEE4dataB8ue170006Ev, symObjAddr: 0x3BF0, symBinAddr: 0x1000096E0, symSize: 0x30 }
  - { offsetInCU: 0xCB8B, offset: 0x1EE9D, size: 0x8, addend: 0x0, symName: __ZNKSt3__112basic_stringIcNS_11char_traitsIcEENS_9allocatorIcEEE4sizeB8ue170006Ev, symObjAddr: 0x3C20, symBinAddr: 0x100009710, symSize: 0x50 }
  - { offsetInCU: 0xCBB1, offset: 0x1EEC3, size: 0x8, addend: 0x0, symName: __ZNKSt3__112basic_stringIcNS_11char_traitsIcEENS_9allocatorIcEEE13__get_pointerB8ue170006Ev, symObjAddr: 0x3C80, symBinAddr: 0x100009770, symSize: 0x50 }
  - { offsetInCU: 0xCBD7, offset: 0x1EEE9, size: 0x8, addend: 0x0, symName: __ZNKSt3__112basic_stringIcNS_11char_traitsIcEENS_9allocatorIcEEE18__get_long_pointerB8ue170006Ev, symObjAddr: 0x3D00, symBinAddr: 0x1000097C0, symSize: 0x20 }
  - { offsetInCU: 0xCBFD, offset: 0x1EF0F, size: 0x8, addend: 0x0, symName: __ZNKSt3__112basic_stringIcNS_11char_traitsIcEENS_9allocatorIcEEE19__get_short_pointerB8ue170006Ev, symObjAddr: 0x3D20, symBinAddr: 0x1000097E0, symSize: 0x30 }
  - { offsetInCU: 0xCC23, offset: 0x1EF35, size: 0x8, addend: 0x0, symName: __ZNSt3__114pointer_traitsIPKcE10pointer_toB8ue170006ERS1_, symObjAddr: 0x3D80, symBinAddr: 0x100009810, symSize: 0x10 }
  - { offsetInCU: 0xCC46, offset: 0x1EF58, size: 0x8, addend: 0x0, symName: __ZNKSt3__112basic_stringIcNS_11char_traitsIcEENS_9allocatorIcEEE15__get_long_sizeB8ue170006Ev, symObjAddr: 0x3D90, symBinAddr: 0x100009820, symSize: 0x20 }
  - { offsetInCU: 0xCC6C, offset: 0x1EF7E, size: 0x8, addend: 0x0, symName: __ZNKSt3__112basic_stringIcNS_11char_traitsIcEENS_9allocatorIcEEE16__get_short_sizeB8ue170006Ev, symObjAddr: 0x3DB0, symBinAddr: 0x100009840, symSize: 0x30 }
  - { offsetInCU: 0xCC92, offset: 0x1EFA4, size: 0x8, addend: 0x0, symName: __ZNSt3__112basic_stringIcNS_11char_traitsIcEENS_9allocatorIcEEEC2B8ue170006EOS5_, symObjAddr: 0x3DE0, symBinAddr: 0x100009870, symSize: 0x50 }
  - { offsetInCU: 0xCCCB, offset: 0x1EFDD, size: 0x8, addend: 0x0, symName: __ZNSt3__112basic_stringIcNS_11char_traitsIcEENS_9allocatorIcEEE14__default_initB8ue170006Ev, symObjAddr: 0x3E30, symBinAddr: 0x1000098C0, symSize: 0x50 }
  - { offsetInCU: 0xCCF1, offset: 0x1F003, size: 0x8, addend: 0x0, symName: __ZNSt3__18_IterOpsINS_17_ClassicAlgPolicyEE8distanceB8ue170006INS_11__wrap_iterIPiEEEENS_15iterator_traitsIT_E15difference_typeES8_S8_, symObjAddr: 0x4100, symBinAddr: 0x100009B10, symSize: 0x40 }
  - { offsetInCU: 0xCD2B, offset: 0x1F03D, size: 0x8, addend: 0x0, symName: __ZNSt3__18_IterOpsINS_17_ClassicAlgPolicyEE7advanceB8ue170006INS_11__wrap_iterIPiEElEEvRT_T0_, symObjAddr: 0x4160, symBinAddr: 0x100009B50, symSize: 0x30 }
  - { offsetInCU: 0xCD6E, offset: 0x1F080, size: 0x8, addend: 0x0, symName: __ZNSt3__111__wrap_iterIPiEpLB8ue170006El, symObjAddr: 0x4340, symBinAddr: 0x100009CF0, symSize: 0x20 }
  - { offsetInCU: 0xCDAC, offset: 0x1F0BE, size: 0x8, addend: 0x0, symName: __ZNKSt3__110__identityclB8ue170006IRiEEOT_S4_, symObjAddr: 0x4360, symBinAddr: 0x100009D10, symSize: 0x20 }
  - { offsetInCU: 0xCDEE, offset: 0x1F100, size: 0x8, addend: 0x0, symName: __ZNSt3__14listIiNS_9allocatorIiEEEC2ESt16initializer_listIiE, symObjAddr: 0x4E50, symBinAddr: 0x100009D30, symSize: 0xA0 }
  - { offsetInCU: 0xCE55, offset: 0x1F167, size: 0x8, addend: 0x0, symName: __ZNSt3__110__list_impIiNS_9allocatorIiEEEC2Ev, symObjAddr: 0x4EF0, symBinAddr: 0x100009DD0, symSize: 0x50 }
  - { offsetInCU: 0xCE81, offset: 0x1F193, size: 0x8, addend: 0x0, symName: __ZNKSt16initializer_listIiE5beginB8ue170006Ev, symObjAddr: 0x4F40, symBinAddr: 0x100009E20, symSize: 0x20 }
  - { offsetInCU: 0xCEA7, offset: 0x1F1B9, size: 0x8, addend: 0x0, symName: __ZNKSt16initializer_listIiE3endB8ue170006Ev, symObjAddr: 0x4F60, symBinAddr: 0x100009E40, symSize: 0x20 }
  - { offsetInCU: 0xCECD, offset: 0x1F1DF, size: 0x8, addend: 0x0, symName: __ZNSt3__116__list_node_baseIiPvEC1B8ue170006Ev, symObjAddr: 0x4F80, symBinAddr: 0x100009E60, symSize: 0x20 }
  - { offsetInCU: 0xCEF7, offset: 0x1F209, size: 0x8, addend: 0x0, symName: __ZNSt3__117__compressed_pairImNS_9allocatorINS_11__list_nodeIiPvEEEEEC1B8ue170006IiNS_18__default_init_tagEEEOT_OT0_, symObjAddr: 0x4FA0, symBinAddr: 0x100009E80, symSize: 0x30 }
  - { offsetInCU: 0xCF4F, offset: 0x1F261, size: 0x8, addend: 0x0, symName: __ZNSt3__116__list_node_baseIiPvEC2B8ue170006Ev, symObjAddr: 0x4FD0, symBinAddr: 0x100009EB0, symSize: 0x50 }
  - { offsetInCU: 0xCF79, offset: 0x1F28B, size: 0x8, addend: 0x0, symName: __ZNSt3__117__compressed_pairImNS_9allocatorINS_11__list_nodeIiPvEEEEEC2B8ue170006IiNS_18__default_init_tagEEEOT_OT0_, symObjAddr: 0x5020, symBinAddr: 0x100009F00, symSize: 0x40 }
  - { offsetInCU: 0xCFD1, offset: 0x1F2E3, size: 0x8, addend: 0x0, symName: __ZNSt3__122__compressed_pair_elemINS_9allocatorINS_11__list_nodeIiPvEEEELi1ELb1EEC2B8ue170006ENS_18__default_init_tagE, symObjAddr: 0x5080, symBinAddr: 0x100009F40, symSize: 0x20 }
  - { offsetInCU: 0xD005, offset: 0x1F317, size: 0x8, addend: 0x0, symName: __ZNSt3__19allocatorINS_11__list_nodeIiPvEEEC2B8ue170006Ev, symObjAddr: 0x50A0, symBinAddr: 0x100009F60, symSize: 0x20 }
  - { offsetInCU: 0xD02F, offset: 0x1F341, size: 0x8, addend: 0x0, symName: __ZNSt3__116__non_trivial_ifILb1ENS_9allocatorINS_11__list_nodeIiPvEEEEEC2B8ue170006Ev, symObjAddr: 0x50C0, symBinAddr: 0x100009F80, symSize: 0x10 }
  - { offsetInCU: 0xD059, offset: 0x1F36B, size: 0x8, addend: 0x0, symName: __ZNSt3__14listINS0_IiNS_9allocatorIiEEEENS1_IS3_EEEC2B8ue170006Ev, symObjAddr: 0x50D0, symBinAddr: 0x100009F90, symSize: 0x20 }
  - { offsetInCU: 0xD083, offset: 0x1F395, size: 0x8, addend: 0x0, symName: __ZNSt3__110__list_impINS_4listIiNS_9allocatorIiEEEENS2_IS4_EEEC2Ev, symObjAddr: 0x50F0, symBinAddr: 0x100009FB0, symSize: 0x50 }
  - { offsetInCU: 0xD0AF, offset: 0x1F3C1, size: 0x8, addend: 0x0, symName: __ZNSt3__116__list_node_baseINS_4listIiNS_9allocatorIiEEEEPvEC1B8ue170006Ev, symObjAddr: 0x5140, symBinAddr: 0x10000A000, symSize: 0x20 }
  - { offsetInCU: 0xD0D9, offset: 0x1F3EB, size: 0x8, addend: 0x0, symName: __ZNSt3__117__compressed_pairImNS_9allocatorINS_11__list_nodeINS_4listIiNS1_IiEEEEPvEEEEEC1B8ue170006IiNS_18__default_init_tagEEEOT_OT0_, symObjAddr: 0x5160, symBinAddr: 0x10000A020, symSize: 0x30 }
  - { offsetInCU: 0xD131, offset: 0x1F443, size: 0x8, addend: 0x0, symName: __ZNSt3__116__list_node_baseINS_4listIiNS_9allocatorIiEEEEPvEC2B8ue170006Ev, symObjAddr: 0x5190, symBinAddr: 0x10000A050, symSize: 0x50 }
  - { offsetInCU: 0xD15B, offset: 0x1F46D, size: 0x8, addend: 0x0, symName: __ZNSt3__117__compressed_pairImNS_9allocatorINS_11__list_nodeINS_4listIiNS1_IiEEEEPvEEEEEC2B8ue170006IiNS_18__default_init_tagEEEOT_OT0_, symObjAddr: 0x51E0, symBinAddr: 0x10000A0A0, symSize: 0x40 }
  - { offsetInCU: 0xD1B3, offset: 0x1F4C5, size: 0x8, addend: 0x0, symName: __ZNSt3__122__compressed_pair_elemINS_9allocatorINS_11__list_nodeINS_4listIiNS1_IiEEEEPvEEEELi1ELb1EEC2B8ue170006ENS_18__default_init_tagE, symObjAddr: 0x5220, symBinAddr: 0x10000A0E0, symSize: 0x20 }
  - { offsetInCU: 0xD1E7, offset: 0x1F4F9, size: 0x8, addend: 0x0, symName: __ZNSt3__19allocatorINS_11__list_nodeINS_4listIiNS0_IiEEEEPvEEEC2B8ue170006Ev, symObjAddr: 0x5240, symBinAddr: 0x10000A100, symSize: 0x20 }
  - { offsetInCU: 0xD211, offset: 0x1F523, size: 0x8, addend: 0x0, symName: __ZNSt3__116__non_trivial_ifILb1ENS_9allocatorINS_11__list_nodeINS_4listIiNS1_IiEEEEPvEEEEEC2B8ue170006Ev, symObjAddr: 0x5260, symBinAddr: 0x10000A120, symSize: 0x10 }
  - { offsetInCU: 0xD23B, offset: 0x1F54D, size: 0x8, addend: 0x0, symName: __ZNSt3__14listIiNS_9allocatorIiEEEC2B8ue170006Ev, symObjAddr: 0x5350, symBinAddr: 0x10000A130, symSize: 0x20 }
  - { offsetInCU: 0xD265, offset: 0x1F577, size: 0x8, addend: 0x0, symName: __ZNSt3__14listIiNS_9allocatorIiEEE15__allocate_nodeB8ue170006ERNS1_INS_11__list_nodeIiPvEEEE, symObjAddr: 0x5370, symBinAddr: 0x10000A150, symSize: 0x80 }
  - { offsetInCU: 0xD2A9, offset: 0x1F5BB, size: 0x8, addend: 0x0, symName: __ZNSt3__116allocator_traitsINS_9allocatorINS_11__list_nodeIiPvEEEEE9constructB8ue170006IiJRKiEvvEEvRS5_PT_DpOT0_, symObjAddr: 0x53F0, symBinAddr: 0x10000A1D0, symSize: 0x30 }
  - { offsetInCU: 0xD2FD, offset: 0x1F60F, size: 0x8, addend: 0x0, symName: __ZNKSt3__110unique_ptrINS_11__list_nodeIiPvEENS_22__allocator_destructorINS_9allocatorIS3_EEEEEptB8ue170006Ev, symObjAddr: 0x5420, symBinAddr: 0x10000A200, symSize: 0x20 }
  - { offsetInCU: 0xD323, offset: 0x1F635, size: 0x8, addend: 0x0, symName: __ZNSt3__14listIiNS_9allocatorIiEEE20__link_nodes_at_backEPNS_16__list_node_baseIiPvEES7_, symObjAddr: 0x5440, symBinAddr: 0x10000A220, symSize: 0x60 }
  - { offsetInCU: 0xD369, offset: 0x1F67B, size: 0x8, addend: 0x0, symName: __ZNKSt3__110unique_ptrINS_11__list_nodeIiPvEENS_22__allocator_destructorINS_9allocatorIS3_EEEEE3getB8ue170006Ev, symObjAddr: 0x54A0, symBinAddr: 0x10000A280, symSize: 0x20 }
  - { offsetInCU: 0xD38F, offset: 0x1F6A1, size: 0x8, addend: 0x0, symName: __ZNSt3__111__list_nodeIiPvE9__as_linkB8ue170006Ev, symObjAddr: 0x54C0, symBinAddr: 0x10000A2A0, symSize: 0x20 }
  - { offsetInCU: 0xD3B5, offset: 0x1F6C7, size: 0x8, addend: 0x0, symName: __ZNSt3__110unique_ptrINS_11__list_nodeIiPvEENS_22__allocator_destructorINS_9allocatorIS3_EEEEE7releaseB8ue170006Ev, symObjAddr: 0x54E0, symBinAddr: 0x10000A2C0, symSize: 0x40 }
  - { offsetInCU: 0xD3EA, offset: 0x1F6FC, size: 0x8, addend: 0x0, symName: __ZNSt3__110unique_ptrINS_11__list_nodeIiPvEENS_22__allocator_destructorINS_9allocatorIS3_EEEEED1B8ue170006Ev, symObjAddr: 0x5520, symBinAddr: 0x10000A300, symSize: 0x20 }
  - { offsetInCU: 0xD414, offset: 0x1F726, size: 0x8, addend: 0x0, symName: __ZNSt3__116allocator_traitsINS_9allocatorINS_11__list_nodeIiPvEEEEE8allocateB8ue170006ERS5_m, symObjAddr: 0x5540, symBinAddr: 0x10000A320, symSize: 0x30 }
  - { offsetInCU: 0xD447, offset: 0x1F759, size: 0x8, addend: 0x0, symName: __ZNSt3__122__allocator_destructorINS_9allocatorINS_11__list_nodeIiPvEEEEEC1B8ue170006ERS5_m, symObjAddr: 0x5570, symBinAddr: 0x10000A350, symSize: 0x30 }
  - { offsetInCU: 0xD492, offset: 0x1F7A4, size: 0x8, addend: 0x0, symName: __ZNSt3__110unique_ptrINS_11__list_nodeIiPvEENS_22__allocator_destructorINS_9allocatorIS3_EEEEEC1B8ue170006ILb1EvEEPS3_NS_16__dependent_typeINS_27__unique_ptr_deleter_sfinaeIS7_EEXT_EE20__good_rval_ref_typeE, symObjAddr: 0x55A0, symBinAddr: 0x10000A380, symSize: 0x30 }
  - { offsetInCU: 0xD4E3, offset: 0x1F7F5, size: 0x8, addend: 0x0, symName: __ZNSt3__19allocatorINS_11__list_nodeIiPvEEE8allocateB8ue170006Em, symObjAddr: 0x55D0, symBinAddr: 0x10000A3B0, symSize: 0x50 }
  - { offsetInCU: 0xD521, offset: 0x1F833, size: 0x8, addend: 0x0, symName: __ZNSt3__116allocator_traitsINS_9allocatorINS_11__list_nodeIiPvEEEEE8max_sizeB8ue170006IS5_vvEEmRKS5_, symObjAddr: 0x5620, symBinAddr: 0x10000A400, symSize: 0x30 }
  - { offsetInCU: 0xD54C, offset: 0x1F85E, size: 0x8, addend: 0x0, symName: __ZNSt3__122__allocator_destructorINS_9allocatorINS_11__list_nodeIiPvEEEEEC2B8ue170006ERS5_m, symObjAddr: 0x5650, symBinAddr: 0x10000A430, symSize: 0x30 }
  - { offsetInCU: 0xD592, offset: 0x1F8A4, size: 0x8, addend: 0x0, symName: __ZNSt3__110unique_ptrINS_11__list_nodeIiPvEENS_22__allocator_destructorINS_9allocatorIS3_EEEEEC2B8ue170006ILb1EvEEPS3_NS_16__dependent_typeINS_27__unique_ptr_deleter_sfinaeIS7_EEXT_EE20__good_rval_ref_typeE, symObjAddr: 0x5680, symBinAddr: 0x10000A460, symSize: 0x40 }
  - { offsetInCU: 0xD5E3, offset: 0x1F8F5, size: 0x8, addend: 0x0, symName: __ZNSt3__117__compressed_pairIPNS_11__list_nodeIiPvEENS_22__allocator_destructorINS_9allocatorIS3_EEEEEC1B8ue170006IRS4_S8_EEOT_OT0_, symObjAddr: 0x56C0, symBinAddr: 0x10000A4A0, symSize: 0x30 }
  - { offsetInCU: 0xD63B, offset: 0x1F94D, size: 0x8, addend: 0x0, symName: __ZNSt3__117__compressed_pairIPNS_11__list_nodeIiPvEENS_22__allocator_destructorINS_9allocatorIS3_EEEEEC2B8ue170006IRS4_S8_EEOT_OT0_, symObjAddr: 0x56F0, symBinAddr: 0x10000A4D0, symSize: 0x40 }
  - { offsetInCU: 0xD693, offset: 0x1F9A5, size: 0x8, addend: 0x0, symName: __ZNSt3__122__compressed_pair_elemIPNS_11__list_nodeIiPvEELi0ELb0EEC2B8ue170006IRS4_vEEOT_, symObjAddr: 0x5730, symBinAddr: 0x10000A510, symSize: 0x20 }
  - { offsetInCU: 0xD6D5, offset: 0x1F9E7, size: 0x8, addend: 0x0, symName: __ZNSt3__122__compressed_pair_elemINS_22__allocator_destructorINS_9allocatorINS_11__list_nodeIiPvEEEEEELi1ELb0EEC2B8ue170006IS7_vEEOT_, symObjAddr: 0x5750, symBinAddr: 0x10000A530, symSize: 0x30 }
  - { offsetInCU: 0xD717, offset: 0x1FA29, size: 0x8, addend: 0x0, symName: __ZNKSt3__117__compressed_pairIPNS_11__list_nodeIiPvEENS_22__allocator_destructorINS_9allocatorIS3_EEEEE5firstB8ue170006Ev, symObjAddr: 0x5780, symBinAddr: 0x10000A560, symSize: 0x20 }
  - { offsetInCU: 0xD73D, offset: 0x1FA4F, size: 0x8, addend: 0x0, symName: __ZNKSt3__122__compressed_pair_elemIPNS_11__list_nodeIiPvEELi0ELb0EE5__getB8ue170006Ev, symObjAddr: 0x57A0, symBinAddr: 0x10000A580, symSize: 0x10 }
  - { offsetInCU: 0xD763, offset: 0x1FA75, size: 0x8, addend: 0x0, symName: __ZNSt3__117__compressed_pairIPNS_11__list_nodeIiPvEENS_22__allocator_destructorINS_9allocatorIS3_EEEEE5firstB8ue170006Ev, symObjAddr: 0x57B0, symBinAddr: 0x10000A590, symSize: 0x20 }
  - { offsetInCU: 0xD789, offset: 0x1FA9B, size: 0x8, addend: 0x0, symName: __ZNSt3__122__compressed_pair_elemIPNS_11__list_nodeIiPvEELi0ELb0EE5__getB8ue170006Ev, symObjAddr: 0x57D0, symBinAddr: 0x10000A5B0, symSize: 0x10 }
  - { offsetInCU: 0xD7AF, offset: 0x1FAC1, size: 0x8, addend: 0x0, symName: __ZNSt3__110unique_ptrINS_11__list_nodeIiPvEENS_22__allocator_destructorINS_9allocatorIS3_EEEEED2B8ue170006Ev, symObjAddr: 0x57E0, symBinAddr: 0x10000A5C0, symSize: 0x20 }
  - { offsetInCU: 0xD7D9, offset: 0x1FAEB, size: 0x8, addend: 0x0, symName: __ZNSt3__110unique_ptrINS_11__list_nodeIiPvEENS_22__allocator_destructorINS_9allocatorIS3_EEEEE5resetB8ue170006EPS3_, symObjAddr: 0x5800, symBinAddr: 0x10000A5E0, symSize: 0x70 }
  - { offsetInCU: 0xD81D, offset: 0x1FB2F, size: 0x8, addend: 0x0, symName: __ZNSt3__117__compressed_pairIPNS_11__list_nodeIiPvEENS_22__allocator_destructorINS_9allocatorIS3_EEEEE6secondB8ue170006Ev, symObjAddr: 0x5870, symBinAddr: 0x10000A650, symSize: 0x20 }
  - { offsetInCU: 0xD843, offset: 0x1FB55, size: 0x8, addend: 0x0, symName: __ZNSt3__122__allocator_destructorINS_9allocatorINS_11__list_nodeIiPvEEEEEclB8ue170006EPS4_, symObjAddr: 0x5890, symBinAddr: 0x10000A670, symSize: 0x30 }
  - { offsetInCU: 0xD877, offset: 0x1FB89, size: 0x8, addend: 0x0, symName: __ZNSt3__122__compressed_pair_elemINS_22__allocator_destructorINS_9allocatorINS_11__list_nodeIiPvEEEEEELi1ELb0EE5__getB8ue170006Ev, symObjAddr: 0x58C0, symBinAddr: 0x10000A6A0, symSize: 0x10 }
  - { offsetInCU: 0xD89D, offset: 0x1FBAF, size: 0x8, addend: 0x0, symName: __ZNSt3__14listINS0_IiNS_9allocatorIiEEEENS1_IS3_EEE15__allocate_nodeB8ue170006ERNS1_INS_11__list_nodeIS3_PvEEEE, symObjAddr: 0x58D0, symBinAddr: 0x10000A6B0, symSize: 0x80 }
  - { offsetInCU: 0xD8E1, offset: 0x1FBF3, size: 0x8, addend: 0x0, symName: __ZNSt3__116allocator_traitsINS_9allocatorINS_11__list_nodeINS_4listIiNS1_IiEEEEPvEEEEE9constructB8ue170006IS5_JRKS5_EvvEEvRS8_PT_DpOT0_, symObjAddr: 0x5950, symBinAddr: 0x10000A730, symSize: 0x30 }
  - { offsetInCU: 0xD935, offset: 0x1FC47, size: 0x8, addend: 0x0, symName: __ZNKSt3__110unique_ptrINS_11__list_nodeINS_4listIiNS_9allocatorIiEEEEPvEENS_22__allocator_destructorINS3_IS7_EEEEEptB8ue170006Ev, symObjAddr: 0x5980, symBinAddr: 0x10000A760, symSize: 0x20 }
  - { offsetInCU: 0xD95B, offset: 0x1FC6D, size: 0x8, addend: 0x0, symName: __ZNSt3__14listINS0_IiNS_9allocatorIiEEEENS1_IS3_EEE20__link_nodes_at_backEPNS_16__list_node_baseIS3_PvEES9_, symObjAddr: 0x59A0, symBinAddr: 0x10000A780, symSize: 0x60 }
  - { offsetInCU: 0xD9A1, offset: 0x1FCB3, size: 0x8, addend: 0x0, symName: __ZNKSt3__110unique_ptrINS_11__list_nodeINS_4listIiNS_9allocatorIiEEEEPvEENS_22__allocator_destructorINS3_IS7_EEEEE3getB8ue170006Ev, symObjAddr: 0x5A00, symBinAddr: 0x10000A7E0, symSize: 0x20 }
  - { offsetInCU: 0xD9C7, offset: 0x1FCD9, size: 0x8, addend: 0x0, symName: __ZNSt3__111__list_nodeINS_4listIiNS_9allocatorIiEEEEPvE9__as_linkB8ue170006Ev, symObjAddr: 0x5A20, symBinAddr: 0x10000A800, symSize: 0x20 }
  - { offsetInCU: 0xD9ED, offset: 0x1FCFF, size: 0x8, addend: 0x0, symName: __ZNSt3__110unique_ptrINS_11__list_nodeINS_4listIiNS_9allocatorIiEEEEPvEENS_22__allocator_destructorINS3_IS7_EEEEE7releaseB8ue170006Ev, symObjAddr: 0x5A40, symBinAddr: 0x10000A820, symSize: 0x40 }
  - { offsetInCU: 0xDA22, offset: 0x1FD34, size: 0x8, addend: 0x0, symName: __ZNSt3__110unique_ptrINS_11__list_nodeINS_4listIiNS_9allocatorIiEEEEPvEENS_22__allocator_destructorINS3_IS7_EEEEED1B8ue170006Ev, symObjAddr: 0x5A80, symBinAddr: 0x10000A860, symSize: 0x20 }
  - { offsetInCU: 0xDA4C, offset: 0x1FD5E, size: 0x8, addend: 0x0, symName: __ZNSt3__116allocator_traitsINS_9allocatorINS_11__list_nodeINS_4listIiNS1_IiEEEEPvEEEEE8allocateB8ue170006ERS8_m, symObjAddr: 0x5AA0, symBinAddr: 0x10000A880, symSize: 0x30 }
  - { offsetInCU: 0xDA7F, offset: 0x1FD91, size: 0x8, addend: 0x0, symName: __ZNSt3__122__allocator_destructorINS_9allocatorINS_11__list_nodeINS_4listIiNS1_IiEEEEPvEEEEEC1B8ue170006ERS8_m, symObjAddr: 0x5AD0, symBinAddr: 0x10000A8B0, symSize: 0x30 }
  - { offsetInCU: 0xDACA, offset: 0x1FDDC, size: 0x8, addend: 0x0, symName: __ZNSt3__110unique_ptrINS_11__list_nodeINS_4listIiNS_9allocatorIiEEEEPvEENS_22__allocator_destructorINS3_IS7_EEEEEC1B8ue170006ILb1EvEEPS7_NS_16__dependent_typeINS_27__unique_ptr_deleter_sfinaeISA_EEXT_EE20__good_rval_ref_typeE, symObjAddr: 0x5B00, symBinAddr: 0x10000A8E0, symSize: 0x30 }
  - { offsetInCU: 0xDB1B, offset: 0x1FE2D, size: 0x8, addend: 0x0, symName: __ZNSt3__19allocatorINS_11__list_nodeINS_4listIiNS0_IiEEEEPvEEE8allocateB8ue170006Em, symObjAddr: 0x5B30, symBinAddr: 0x10000A910, symSize: 0x50 }
  - { offsetInCU: 0xDB59, offset: 0x1FE6B, size: 0x8, addend: 0x0, symName: __ZNSt3__116allocator_traitsINS_9allocatorINS_11__list_nodeINS_4listIiNS1_IiEEEEPvEEEEE8max_sizeB8ue170006IS8_vvEEmRKS8_, symObjAddr: 0x5B80, symBinAddr: 0x10000A960, symSize: 0x30 }
  - { offsetInCU: 0xDB84, offset: 0x1FE96, size: 0x8, addend: 0x0, symName: __ZNSt3__122__allocator_destructorINS_9allocatorINS_11__list_nodeINS_4listIiNS1_IiEEEEPvEEEEEC2B8ue170006ERS8_m, symObjAddr: 0x5BB0, symBinAddr: 0x10000A990, symSize: 0x30 }
  - { offsetInCU: 0xDBCA, offset: 0x1FEDC, size: 0x8, addend: 0x0, symName: __ZNSt3__110unique_ptrINS_11__list_nodeINS_4listIiNS_9allocatorIiEEEEPvEENS_22__allocator_destructorINS3_IS7_EEEEEC2B8ue170006ILb1EvEEPS7_NS_16__dependent_typeINS_27__unique_ptr_deleter_sfinaeISA_EEXT_EE20__good_rval_ref_typeE, symObjAddr: 0x5BE0, symBinAddr: 0x10000A9C0, symSize: 0x40 }
  - { offsetInCU: 0xDC1B, offset: 0x1FF2D, size: 0x8, addend: 0x0, symName: __ZNSt3__117__compressed_pairIPNS_11__list_nodeINS_4listIiNS_9allocatorIiEEEEPvEENS_22__allocator_destructorINS3_IS7_EEEEEC1B8ue170006IRS8_SB_EEOT_OT0_, symObjAddr: 0x5C20, symBinAddr: 0x10000AA00, symSize: 0x30 }
  - { offsetInCU: 0xDC73, offset: 0x1FF85, size: 0x8, addend: 0x0, symName: __ZNSt3__117__compressed_pairIPNS_11__list_nodeINS_4listIiNS_9allocatorIiEEEEPvEENS_22__allocator_destructorINS3_IS7_EEEEEC2B8ue170006IRS8_SB_EEOT_OT0_, symObjAddr: 0x5C50, symBinAddr: 0x10000AA30, symSize: 0x40 }
  - { offsetInCU: 0xDCCB, offset: 0x1FFDD, size: 0x8, addend: 0x0, symName: __ZNSt3__122__compressed_pair_elemIPNS_11__list_nodeINS_4listIiNS_9allocatorIiEEEEPvEELi0ELb0EEC2B8ue170006IRS8_vEEOT_, symObjAddr: 0x5C90, symBinAddr: 0x10000AA70, symSize: 0x20 }
  - { offsetInCU: 0xDD0D, offset: 0x2001F, size: 0x8, addend: 0x0, symName: __ZNSt3__122__compressed_pair_elemINS_22__allocator_destructorINS_9allocatorINS_11__list_nodeINS_4listIiNS2_IiEEEEPvEEEEEELi1ELb0EEC2B8ue170006ISA_vEEOT_, symObjAddr: 0x5CB0, symBinAddr: 0x10000AA90, symSize: 0x30 }
  - { offsetInCU: 0xDD4F, offset: 0x20061, size: 0x8, addend: 0x0, symName: __ZNKSt3__117__compressed_pairIPNS_11__list_nodeINS_4listIiNS_9allocatorIiEEEEPvEENS_22__allocator_destructorINS3_IS7_EEEEE5firstB8ue170006Ev, symObjAddr: 0x5D20, symBinAddr: 0x10000AB00, symSize: 0x20 }
  - { offsetInCU: 0xDD75, offset: 0x20087, size: 0x8, addend: 0x0, symName: __ZNKSt3__122__compressed_pair_elemIPNS_11__list_nodeINS_4listIiNS_9allocatorIiEEEEPvEELi0ELb0EE5__getB8ue170006Ev, symObjAddr: 0x5D40, symBinAddr: 0x10000AB20, symSize: 0x10 }
  - { offsetInCU: 0xDD9B, offset: 0x200AD, size: 0x8, addend: 0x0, symName: __ZNSt3__117__compressed_pairIPNS_11__list_nodeINS_4listIiNS_9allocatorIiEEEEPvEENS_22__allocator_destructorINS3_IS7_EEEEE5firstB8ue170006Ev, symObjAddr: 0x5D50, symBinAddr: 0x10000AB30, symSize: 0x20 }
  - { offsetInCU: 0xDDC1, offset: 0x200D3, size: 0x8, addend: 0x0, symName: __ZNSt3__122__compressed_pair_elemIPNS_11__list_nodeINS_4listIiNS_9allocatorIiEEEEPvEELi0ELb0EE5__getB8ue170006Ev, symObjAddr: 0x5D70, symBinAddr: 0x10000AB50, symSize: 0x10 }
  - { offsetInCU: 0xDDE7, offset: 0x200F9, size: 0x8, addend: 0x0, symName: __ZNSt3__110unique_ptrINS_11__list_nodeINS_4listIiNS_9allocatorIiEEEEPvEENS_22__allocator_destructorINS3_IS7_EEEEED2B8ue170006Ev, symObjAddr: 0x5D80, symBinAddr: 0x10000AB60, symSize: 0x20 }
  - { offsetInCU: 0xDE11, offset: 0x20123, size: 0x8, addend: 0x0, symName: __ZNSt3__110unique_ptrINS_11__list_nodeINS_4listIiNS_9allocatorIiEEEEPvEENS_22__allocator_destructorINS3_IS7_EEEEE5resetB8ue170006EPS7_, symObjAddr: 0x5DA0, symBinAddr: 0x10000AB80, symSize: 0x70 }
  - { offsetInCU: 0xDE55, offset: 0x20167, size: 0x8, addend: 0x0, symName: __ZNSt3__117__compressed_pairIPNS_11__list_nodeINS_4listIiNS_9allocatorIiEEEEPvEENS_22__allocator_destructorINS3_IS7_EEEEE6secondB8ue170006Ev, symObjAddr: 0x5E10, symBinAddr: 0x10000ABF0, symSize: 0x20 }
  - { offsetInCU: 0xDE7B, offset: 0x2018D, size: 0x8, addend: 0x0, symName: __ZNSt3__122__allocator_destructorINS_9allocatorINS_11__list_nodeINS_4listIiNS1_IiEEEEPvEEEEEclB8ue170006EPS7_, symObjAddr: 0x5E30, symBinAddr: 0x10000AC10, symSize: 0x30 }
  - { offsetInCU: 0xDEAF, offset: 0x201C1, size: 0x8, addend: 0x0, symName: __ZNSt3__122__compressed_pair_elemINS_22__allocator_destructorINS_9allocatorINS_11__list_nodeINS_4listIiNS2_IiEEEEPvEEEEEELi1ELb0EE5__getB8ue170006Ev, symObjAddr: 0x5E60, symBinAddr: 0x10000AC40, symSize: 0x10 }
  - { offsetInCU: 0xDED5, offset: 0x201E7, size: 0x8, addend: 0x0, symName: __ZNSt3__110__list_impINS_4listIiNS_9allocatorIiEEEENS2_IS4_EEE5beginB8ue170006Ev, symObjAddr: 0x5E70, symBinAddr: 0x10000AC50, symSize: 0x30 }
  - { offsetInCU: 0xDEFB, offset: 0x2020D, size: 0x8, addend: 0x0, symName: __ZNSt3__115__list_iteratorINS_4listIiNS_9allocatorIiEEEEPvEC1B8ue170006EPNS_16__list_node_baseIS4_S5_EE, symObjAddr: 0x5EA0, symBinAddr: 0x10000AC80, symSize: 0x30 }
  - { offsetInCU: 0xDF34, offset: 0x20246, size: 0x8, addend: 0x0, symName: __ZNSt3__115__list_iteratorINS_4listIiNS_9allocatorIiEEEEPvEC2B8ue170006EPNS_16__list_node_baseIS4_S5_EE, symObjAddr: 0x5ED0, symBinAddr: 0x10000ACB0, symSize: 0x20 }
  - { offsetInCU: 0xDF6D, offset: 0x2027F, size: 0x8, addend: 0x0, symName: __ZNSt3__110__list_impINS_4listIiNS_9allocatorIiEEEENS2_IS4_EEE3endB8ue170006Ev, symObjAddr: 0x5EF0, symBinAddr: 0x10000ACD0, symSize: 0x30 }
  - { offsetInCU: 0xDF93, offset: 0x202A5, size: 0x8, addend: 0x0, symName: __ZNSt3__14listIiNS_9allocatorIiEEEC2ERKS3_, symObjAddr: 0x5F50, symBinAddr: 0x10000AD30, symSize: 0xE0 }
  - { offsetInCU: 0xDFFA, offset: 0x2030C, size: 0x8, addend: 0x0, symName: __ZNSt3__116allocator_traitsINS_9allocatorINS_11__list_nodeIiPvEEEEE37select_on_container_copy_constructionB8ue170006IS5_vvEES5_RKS5_, symObjAddr: 0x6030, symBinAddr: 0x10000AE10, symSize: 0x10 }
  - { offsetInCU: 0xE029, offset: 0x2033B, size: 0x8, addend: 0x0, symName: __ZNKSt3__110__list_impIiNS_9allocatorIiEEE12__node_allocB8ue170006Ev, symObjAddr: 0x6040, symBinAddr: 0x10000AE20, symSize: 0x20 }
  - { offsetInCU: 0xE04F, offset: 0x20361, size: 0x8, addend: 0x0, symName: __ZNSt3__110__list_impIiNS_9allocatorIiEEEC2EONS1_INS_11__list_nodeIiPvEEEE, symObjAddr: 0x6060, symBinAddr: 0x10000AE40, symSize: 0x60 }
  - { offsetInCU: 0xE08A, offset: 0x2039C, size: 0x8, addend: 0x0, symName: __ZNKSt3__14listIiNS_9allocatorIiEEE5beginB8ue170006Ev, symObjAddr: 0x60C0, symBinAddr: 0x10000AEA0, symSize: 0x30 }
  - { offsetInCU: 0xE0B0, offset: 0x203C2, size: 0x8, addend: 0x0, symName: __ZNKSt3__14listIiNS_9allocatorIiEEE3endB8ue170006Ev, symObjAddr: 0x60F0, symBinAddr: 0x10000AED0, symSize: 0x30 }
  - { offsetInCU: 0xE0D6, offset: 0x203E8, size: 0x8, addend: 0x0, symName: __ZNKSt3__121__list_const_iteratorIiPvEdeB8ue170006Ev, symObjAddr: 0x6150, symBinAddr: 0x10000AF30, symSize: 0x30 }
  - { offsetInCU: 0xE0FC, offset: 0x2040E, size: 0x8, addend: 0x0, symName: __ZNSt3__121__list_const_iteratorIiPvEppB8ue170006Ev, symObjAddr: 0x6180, symBinAddr: 0x10000AF60, symSize: 0x20 }
  - { offsetInCU: 0xE122, offset: 0x20434, size: 0x8, addend: 0x0, symName: __ZNKSt3__117__compressed_pairImNS_9allocatorINS_11__list_nodeIiPvEEEEE6secondB8ue170006Ev, symObjAddr: 0x61A0, symBinAddr: 0x10000AF80, symSize: 0x20 }
  - { offsetInCU: 0xE148, offset: 0x2045A, size: 0x8, addend: 0x0, symName: __ZNKSt3__122__compressed_pair_elemINS_9allocatorINS_11__list_nodeIiPvEEEELi1ELb1EE5__getB8ue170006Ev, symObjAddr: 0x61C0, symBinAddr: 0x10000AFA0, symSize: 0x10 }
  - { offsetInCU: 0xE173, offset: 0x20485, size: 0x8, addend: 0x0, symName: __ZNSt3__117__compressed_pairImNS_9allocatorINS_11__list_nodeIiPvEEEEEC1B8ue170006IiS5_EEOT_OT0_, symObjAddr: 0x61D0, symBinAddr: 0x10000AFB0, symSize: 0x30 }
  - { offsetInCU: 0xE1CB, offset: 0x204DD, size: 0x8, addend: 0x0, symName: __ZNSt3__117__compressed_pairImNS_9allocatorINS_11__list_nodeIiPvEEEEEC2B8ue170006IiS5_EEOT_OT0_, symObjAddr: 0x6200, symBinAddr: 0x10000AFE0, symSize: 0x40 }
  - { offsetInCU: 0xE223, offset: 0x20535, size: 0x8, addend: 0x0, symName: __ZNSt3__122__compressed_pair_elemINS_9allocatorINS_11__list_nodeIiPvEEEELi1ELb1EEC2B8ue170006IS5_vEEOT_, symObjAddr: 0x6240, symBinAddr: 0x10000B020, symSize: 0x10 }
  - { offsetInCU: 0xE265, offset: 0x20577, size: 0x8, addend: 0x0, symName: __ZNKSt3__110__list_impIiNS_9allocatorIiEEE5beginB8ue170006Ev, symObjAddr: 0x6250, symBinAddr: 0x10000B030, symSize: 0x30 }
  - { offsetInCU: 0xE28B, offset: 0x2059D, size: 0x8, addend: 0x0, symName: __ZNSt3__121__list_const_iteratorIiPvEC1B8ue170006EPNS_16__list_node_baseIiS1_EE, symObjAddr: 0x6280, symBinAddr: 0x10000B060, symSize: 0x30 }
  - { offsetInCU: 0xE2C4, offset: 0x205D6, size: 0x8, addend: 0x0, symName: __ZNSt3__121__list_const_iteratorIiPvEC2B8ue170006EPNS_16__list_node_baseIiS1_EE, symObjAddr: 0x62B0, symBinAddr: 0x10000B090, symSize: 0x20 }
  - { offsetInCU: 0xE2FD, offset: 0x2060F, size: 0x8, addend: 0x0, symName: __ZNKSt3__110__list_impIiNS_9allocatorIiEEE3endB8ue170006Ev, symObjAddr: 0x62D0, symBinAddr: 0x10000B0B0, symSize: 0x30 }
  - { offsetInCU: 0xE323, offset: 0x20635, size: 0x8, addend: 0x0, symName: __ZNSt3__14listINS0_IiNS_9allocatorIiEEEENS1_IS3_EEE12insert_rangeB8ue170006IRS5_EENS_15__list_iteratorIS3_PvEENS_21__list_const_iteratorIS3_S9_EEOT_, symObjAddr: 0x6330, symBinAddr: 0x10000B110, symSize: 0x70 }
  - { offsetInCU: 0xE370, offset: 0x20682, size: 0x8, addend: 0x0, symName: __ZNSt3__121__list_const_iteratorINS_4listIiNS_9allocatorIiEEEEPvEC1B8ue170006ERKNS_15__list_iteratorIS4_S5_EE, symObjAddr: 0x63A0, symBinAddr: 0x10000B180, symSize: 0x30 }
  - { offsetInCU: 0xE3A9, offset: 0x206BB, size: 0x8, addend: 0x0, symName: __ZNSt3__14listINS0_IiNS_9allocatorIiEEEENS1_IS3_EEE22__insert_with_sentinelB8ue170006INS_15__list_iteratorIS3_PvEES9_EES9_NS_21__list_const_iteratorIS3_S8_EET_T0_, symObjAddr: 0x63D0, symBinAddr: 0x10000B1B0, symSize: 0x370 }
  - { offsetInCU: 0xE47E, offset: 0x20790, size: 0x8, addend: 0x0, symName: __ZNKSt3__16ranges7__begin4__fnclB8ue170006IRNS_4listINS4_IiNS_9allocatorIiEEEENS5_IS7_EEEEEEDaOT_, symObjAddr: 0x6740, symBinAddr: 0x10000B520, symSize: 0x30 }
  - { offsetInCU: 0xE4C0, offset: 0x207D2, size: 0x8, addend: 0x0, symName: __ZNKSt3__16ranges5__end4__fnclB8ue170006IRNS_4listINS4_IiNS_9allocatorIiEEEENS5_IS7_EEEEEEDaOT_, symObjAddr: 0x6770, symBinAddr: 0x10000B550, symSize: 0x30 }
  - { offsetInCU: 0xE4FD, offset: 0x2080F, size: 0x8, addend: 0x0, symName: __ZNSt3__116allocator_traitsINS_9allocatorINS_11__list_nodeINS_4listIiNS1_IiEEEEPvEEEEE9constructB8ue170006IS5_JRS5_EvvEEvRS8_PT_DpOT0_, symObjAddr: 0x67A0, symBinAddr: 0x10000B580, symSize: 0x30 }
  - { offsetInCU: 0xE551, offset: 0x20863, size: 0x8, addend: 0x0, symName: __ZNSt3__14listINS0_IiNS_9allocatorIiEEEENS1_IS3_EEE12__link_nodesEPNS_16__list_node_baseIS3_PvEES9_S9_, symObjAddr: 0x67D0, symBinAddr: 0x10000B5B0, symSize: 0x50 }
  - { offsetInCU: 0xE595, offset: 0x208A7, size: 0x8, addend: 0x0, symName: __ZNSt3__121__list_const_iteratorINS_4listIiNS_9allocatorIiEEEEPvEC2B8ue170006ERKNS_15__list_iteratorIS4_S5_EE, symObjAddr: 0x6860, symBinAddr: 0x10000B640, symSize: 0x1C }
...
