---
triple:          'x86_64-apple-darwin'
binary-path:     'Problem68/problem68'
relocations:
  - { offsetInCU: 0x66, offset: 0x66, size: 0x8, addend: 0x0, symName: __ZNSt3__16ranges5__cpo5beginE, symObjAddr: 0x4B67, symBinAddr: 0x10000FBAC, symSize: 0x0 }
  - { offsetInCU: 0x7F, offset: 0x7F, size: 0x8, addend: 0x0, symName: __ZNSt3__16ranges5__cpo3endE, symObjAddr: 0x4B68, symBinAddr: 0x10000FBAD, symSize: 0x0 }
  - { offsetInCU: 0xD996, offset: 0xD996, size: 0x8, addend: 0x0, symName: __ZNSt3__17advanceB8ue170006INS_15__list_iteratorINS_12basic_stringIcNS_11char_traitsIcEENS_9allocatorIcEEEEPvEEllvEEvRT_T0_, symObjAddr: 0x2180, symBinAddr: 0x100005250, symSize: 0x30 }
  - { offsetInCU: 0xF1E3, offset: 0xF1E3, size: 0x8, addend: 0x0, symName: __ZNSt3__124__put_character_sequenceB8ue170006IcNS_11char_traitsIcEEEERNS_13basic_ostreamIT_T0_EES7_PKS4_m, symObjAddr: 0x2A50, symBinAddr: 0x100005B20, symSize: 0x1F0 }
  - { offsetInCU: 0x10D89, offset: 0x10D89, size: 0x8, addend: 0x0, symName: __ZNSt3__1neB8ue170006ERKNS_15__list_iteratorINS_12basic_stringIcNS_11char_traitsIcEENS_9allocatorIcEEEEPvEESA_, symObjAddr: 0x4D0, symBinAddr: 0x1000035A0, symSize: 0x30 }
  - { offsetInCU: 0x10DC6, offset: 0x10DC6, size: 0x8, addend: 0x0, symName: __ZNSt3__1lsB8ue170006INS_11char_traitsIcEEEERNS_13basic_ostreamIcT_EES6_PKc, symObjAddr: 0x840, symBinAddr: 0x100003910, symSize: 0x40 }
  - { offsetInCU: 0x10E0C, offset: 0x10E0C, size: 0x8, addend: 0x0, symName: __ZNSt3__14endlB8ue170006IcNS_11char_traitsIcEEEERNS_13basic_ostreamIT_T0_EES7_, symObjAddr: 0x8C0, symBinAddr: 0x100003990, symSize: 0x50 }
  - { offsetInCU: 0x116B3, offset: 0x116B3, size: 0x8, addend: 0x0, symName: __ZNSt3__1lsB8ue170006IcNS_11char_traitsIcEENS_9allocatorIcEEEERNS_13basic_ostreamIT_T0_EES9_RKNS_12basic_stringIS6_S7_T1_EE, symObjAddr: 0x13D0, symBinAddr: 0x1000044A0, symSize: 0x50 }
  - { offsetInCU: 0x1170B, offset: 0x1170B, size: 0x8, addend: 0x0, symName: __ZNSt3__14nextB8ue170006INS_15__list_iteratorINS_12basic_stringIcNS_11char_traitsIcEENS_9allocatorIcEEEEPvEEEENS_9enable_ifIXsr29__has_input_iterator_categoryIT_EE5valueESB_E4typeESB_NS_15iterator_traitsISB_E15difference_typeE, symObjAddr: 0x1420, symBinAddr: 0x1000044F0, symSize: 0x30 }
  - { offsetInCU: 0x11E85, offset: 0x11E85, size: 0x8, addend: 0x0, symName: __ZNSt3__17getlineB8ue170006IcNS_11char_traitsIcEENS_9allocatorIcEEEERNS_13basic_istreamIT_T0_EES9_RNS_12basic_stringIS6_S7_T1_EE, symObjAddr: 0x1680, symBinAddr: 0x100004750, symSize: 0x50 }
  - { offsetInCU: 0x11EE8, offset: 0x11EE8, size: 0x8, addend: 0x0, symName: __ZNSt3__1neB8ue170006IPcEEbRKNS_11__wrap_iterIT_EES6_, symObjAddr: 0x1910, symBinAddr: 0x1000049E0, symSize: 0x30 }
  - { offsetInCU: 0x11F7A, offset: 0x11F7A, size: 0x8, addend: 0x0, symName: __ZNSt3__110destroy_atB8ue170006INS_12basic_stringIcNS_11char_traitsIcEENS_9allocatorIcEEEELi0EEEvPT_, symObjAddr: 0x1E70, symBinAddr: 0x100004F40, symSize: 0x20 }
  - { offsetInCU: 0x11FB1, offset: 0x11FB1, size: 0x8, addend: 0x0, symName: __ZNSt3__112__destroy_atB8ue170006INS_12basic_stringIcNS_11char_traitsIcEENS_9allocatorIcEEEELi0EEEvPT_, symObjAddr: 0x1E90, symBinAddr: 0x100004F60, symSize: 0x20 }
  - { offsetInCU: 0x11FE8, offset: 0x11FE8, size: 0x8, addend: 0x0, symName: __ZNSt3__119__libcpp_deallocateB8ue170006EPvmm, symObjAddr: 0x1F00, symBinAddr: 0x100004FD0, symSize: 0x60 }
  - { offsetInCU: 0x1204D, offset: 0x1204D, size: 0x8, addend: 0x0, symName: __ZNSt3__124__is_overaligned_for_newB8ue170006Em, symObjAddr: 0x1F60, symBinAddr: 0x100005030, symSize: 0x20 }
  - { offsetInCU: 0x1207B, offset: 0x1207B, size: 0x8, addend: 0x0, symName: __ZNSt3__127__do_deallocate_handle_sizeB8ue170006IJSt11align_val_tEEEvPvmDpT_, symObjAddr: 0x1F80, symBinAddr: 0x100005050, symSize: 0x30 }
  - { offsetInCU: 0x120CE, offset: 0x120CE, size: 0x8, addend: 0x0, symName: __ZNSt3__127__do_deallocate_handle_sizeB8ue170006IJEEEvPvmDpT_, symObjAddr: 0x1FB0, symBinAddr: 0x100005080, symSize: 0x20 }
  - { offsetInCU: 0x1210C, offset: 0x1210C, size: 0x8, addend: 0x0, symName: __ZNSt3__124__libcpp_operator_deleteB8ue170006IJPvSt11align_val_tEEEvDpT_, symObjAddr: 0x1FD0, symBinAddr: 0x1000050A0, symSize: 0x30 }
  - { offsetInCU: 0x12155, offset: 0x12155, size: 0x8, addend: 0x0, symName: __ZNSt3__124__libcpp_operator_deleteB8ue170006IJPvEEEvDpT_, symObjAddr: 0x2000, symBinAddr: 0x1000050D0, symSize: 0x20 }
  - { offsetInCU: 0x1218A, offset: 0x1218A, size: 0x8, addend: 0x0, symName: __ZNSt3__118__constexpr_strlenB8ue170006EPKc, symObjAddr: 0x2160, symBinAddr: 0x100005230, symSize: 0x20 }
  - { offsetInCU: 0x121B6, offset: 0x121B6, size: 0x8, addend: 0x0, symName: __ZNSt3__121__convert_to_integralB8ue170006El, symObjAddr: 0x21B0, symBinAddr: 0x100005280, symSize: 0x10 }
  - { offsetInCU: 0x121E2, offset: 0x121E2, size: 0x8, addend: 0x0, symName: __ZNSt3__19__advanceB8ue170006INS_15__list_iteratorINS_12basic_stringIcNS_11char_traitsIcEENS_9allocatorIcEEEEPvEEEEvRT_NS_15iterator_traitsISA_E15difference_typeENS_26bidirectional_iterator_tagE, symObjAddr: 0x21C0, symBinAddr: 0x100005290, symSize: 0x80 }
  - { offsetInCU: 0x1222B, offset: 0x1222B, size: 0x8, addend: 0x0, symName: __ZNSt3__1eqB8ue170006IPcEEbRKNS_11__wrap_iterIT_EES6_, symObjAddr: 0x2610, symBinAddr: 0x1000056E0, symSize: 0x40 }
  - { offsetInCU: 0x1226E, offset: 0x1226E, size: 0x8, addend: 0x0, symName: __ZNSt3__1miB8ue170006IPKcPcEEDTmicldtfp_4baseEcldtfp0_4baseEERKNS_11__wrap_iterIT_EERKNS5_IT0_EE, symObjAddr: 0x2670, symBinAddr: 0x100005740, symSize: 0x40 }
  - { offsetInCU: 0x122BA, offset: 0x122BA, size: 0x8, addend: 0x0, symName: __ZNSt3__1eqB8ue170006ERKNS_15__list_iteratorINS_12basic_stringIcNS_11char_traitsIcEENS_9allocatorIcEEEEPvEESA_, symObjAddr: 0x2A00, symBinAddr: 0x100005AD0, symSize: 0x30 }
  - { offsetInCU: 0x122F7, offset: 0x122F7, size: 0x8, addend: 0x0, symName: __ZNSt3__116__pad_and_outputB8ue170006IcNS_11char_traitsIcEEEENS_19ostreambuf_iteratorIT_T0_EES6_PKS4_S8_S8_RNS_8ios_baseES4_, symObjAddr: 0x2C60, symBinAddr: 0x100005D30, symSize: 0x220 }
  - { offsetInCU: 0x123C7, offset: 0x123C7, size: 0x8, addend: 0x0, symName: __ZNSt3__112__to_addressB8ue170006IcEEPT_S2_, symObjAddr: 0x30C0, symBinAddr: 0x100006190, symSize: 0x10 }
  - { offsetInCU: 0x123FC, offset: 0x123FC, size: 0x8, addend: 0x0, symName: __ZNSt3__19use_facetB8ue170006INS_5ctypeIcEEEERKT_RKNS_6localeE, symObjAddr: 0x3210, symBinAddr: 0x1000062E0, symSize: 0x30 }
  - { offsetInCU: 0x128C9, offset: 0x128C9, size: 0x8, addend: 0x0, symName: __ZNSt3__112__to_addressB8ue170006IKcEEPT_S3_, symObjAddr: 0x33F0, symBinAddr: 0x1000064C0, symSize: 0x10 }
  - { offsetInCU: 0x12931, offset: 0x12931, size: 0x8, addend: 0x0, symName: __ZNSt3__17getlineB8ue170006IcNS_11char_traitsIcEENS_9allocatorIcEEEERNS_13basic_istreamIT_T0_EES9_RNS_12basic_stringIS6_S7_T1_EES6_, symObjAddr: 0x3500, symBinAddr: 0x1000065D0, symSize: 0x220 }
  - { offsetInCU: 0x12BF9, offset: 0x12BF9, size: 0x8, addend: 0x0, symName: __ZNSt3__117__libcpp_allocateB8ue170006Emm, symObjAddr: 0x3DF0, symBinAddr: 0x100006EC0, symSize: 0x60 }
  - { offsetInCU: 0x12C53, offset: 0x12C53, size: 0x8, addend: 0x0, symName: __ZNSt3__121__libcpp_operator_newB8ue170006IJmSt11align_val_tEEEPvDpT_, symObjAddr: 0x3E50, symBinAddr: 0x100006F20, symSize: 0x30 }
  - { offsetInCU: 0x12CA0, offset: 0x12CA0, size: 0x8, addend: 0x0, symName: __ZNSt3__121__libcpp_operator_newB8ue170006IJmEEEPvDpT_, symObjAddr: 0x3E80, symBinAddr: 0x100006F50, symSize: 0x20 }
  - { offsetInCU: 0x12CFE, offset: 0x12CFE, size: 0x8, addend: 0x0, symName: __ZNSt3__112construct_atB8ue170006INS_12basic_stringIcNS_11char_traitsIcEENS_9allocatorIcEEEEJRKS6_EPS6_EEPT_SB_DpOT0_, symObjAddr: 0x3FD0, symBinAddr: 0x1000070A0, symSize: 0x40 }
  - { offsetInCU: 0x12D6E, offset: 0x12D6E, size: 0x8, addend: 0x0, symName: __ZNSt3__112construct_atB8ue170006INS_12basic_stringIcNS_11char_traitsIcEENS_9allocatorIcEEEEJRS6_EPS6_EEPT_SA_DpOT0_, symObjAddr: 0x4700, symBinAddr: 0x1000077D0, symSize: 0x33 }
  - { offsetInCU: 0x1319D, offset: 0x1319D, size: 0x8, addend: 0x0, symName: __ZSt28__throw_bad_array_new_lengthB8ue170006v, symObjAddr: 0x3DB0, symBinAddr: 0x100006E80, symSize: 0x40 }
  - { offsetInCU: 0x16186, offset: 0x16186, size: 0x8, addend: 0x0, symName: _main, symObjAddr: 0x0, symBinAddr: 0x1000030D0, symSize: 0x200 }
  - { offsetInCU: 0x161DF, offset: 0x161DF, size: 0x8, addend: 0x0, symName: __ZNSt3__14listINS_12basic_stringIcNS_11char_traitsIcEENS_9allocatorIcEEEENS4_IS6_EEEC1B8ue170006Ev, symObjAddr: 0x200, symBinAddr: 0x1000032D0, symSize: 0x20 }
  - { offsetInCU: 0x16208, offset: 0x16208, size: 0x8, addend: 0x0, symName: __Z16loadPermutationsRNSt3__14listINS_12basic_stringIcNS_11char_traitsIcEENS_9allocatorIcEEEENS4_IS6_EEEE, symObjAddr: 0x220, symBinAddr: 0x1000032F0, symSize: 0x280 }
  - { offsetInCU: 0x16256, offset: 0x16256, size: 0x8, addend: 0x0, symName: __ZNSt3__14listINS_12basic_stringIcNS_11char_traitsIcEENS_9allocatorIcEEEENS4_IS6_EEE5beginB8ue170006Ev, symObjAddr: 0x4A0, symBinAddr: 0x100003570, symSize: 0x30 }
  - { offsetInCU: 0x1627C, offset: 0x1627C, size: 0x8, addend: 0x0, symName: __ZNSt3__14listINS_12basic_stringIcNS_11char_traitsIcEENS_9allocatorIcEEEENS4_IS6_EEE3endB8ue170006Ev, symObjAddr: 0x500, symBinAddr: 0x1000035D0, symSize: 0x30 }
  - { offsetInCU: 0x162A1, offset: 0x162A1, size: 0x8, addend: 0x0, symName: __Z7isMagicRNSt3__112basic_stringIcNS_11char_traitsIcEENS_9allocatorIcEEEE, symObjAddr: 0x530, symBinAddr: 0x100003600, symSize: 0x1E0 }
  - { offsetInCU: 0x162F9, offset: 0x162F9, size: 0x8, addend: 0x0, symName: __ZNKSt3__115__list_iteratorINS_12basic_stringIcNS_11char_traitsIcEENS_9allocatorIcEEEEPvEdeB8ue170006Ev, symObjAddr: 0x710, symBinAddr: 0x1000037E0, symSize: 0x30 }
  - { offsetInCU: 0x1631F, offset: 0x1631F, size: 0x8, addend: 0x0, symName: __ZNSt3__14listINS_12basic_stringIcNS_11char_traitsIcEENS_9allocatorIcEEEENS4_IS6_EEE5eraseENS_21__list_const_iteratorIS6_PvEE, symObjAddr: 0x740, symBinAddr: 0x100003810, symSize: 0xA0 }
  - { offsetInCU: 0x16392, offset: 0x16392, size: 0x8, addend: 0x0, symName: __ZNSt3__121__list_const_iteratorINS_12basic_stringIcNS_11char_traitsIcEENS_9allocatorIcEEEEPvEC1B8ue170006ERKNS_15__list_iteratorIS6_S7_EE, symObjAddr: 0x7E0, symBinAddr: 0x1000038B0, symSize: 0x30 }
  - { offsetInCU: 0x163CB, offset: 0x163CB, size: 0x8, addend: 0x0, symName: __ZNSt3__115__list_iteratorINS_12basic_stringIcNS_11char_traitsIcEENS_9allocatorIcEEEEPvEppB8ue170006Ei, symObjAddr: 0x810, symBinAddr: 0x1000038E0, symSize: 0x30 }
  - { offsetInCU: 0x1640C, offset: 0x1640C, size: 0x8, addend: 0x0, symName: __ZNKSt3__14listINS_12basic_stringIcNS_11char_traitsIcEENS_9allocatorIcEEEENS4_IS6_EEE4sizeB8ue170006Ev, symObjAddr: 0x880, symBinAddr: 0x100003950, symSize: 0x20 }
  - { offsetInCU: 0x16432, offset: 0x16432, size: 0x8, addend: 0x0, symName: __ZNSt3__113basic_ostreamIcNS_11char_traitsIcEEElsB8ue170006EPFRS3_S4_E, symObjAddr: 0x8A0, symBinAddr: 0x100003970, symSize: 0x20 }
  - { offsetInCU: 0x16466, offset: 0x16466, size: 0x8, addend: 0x0, symName: __ZNSt3__14listINS_12basic_stringIcNS_11char_traitsIcEENS_9allocatorIcEEEENS4_IS6_EEED1Ev, symObjAddr: 0x910, symBinAddr: 0x1000039E0, symSize: 0x20 }
  - { offsetInCU: 0x16492, offset: 0x16492, size: 0x8, addend: 0x0, symName: __Z16savePermutationsv, symObjAddr: 0x930, symBinAddr: 0x100003A00, symSize: 0x420 }
  - { offsetInCU: 0x164E7, offset: 0x164E7, size: 0x8, addend: 0x0, symName: __Z12permutationsNSt3__112basic_stringIcNS_11char_traitsIcEENS_9allocatorIcEEEE, symObjAddr: 0xD50, symBinAddr: 0x100003E20, symSize: 0x4D0 }
  - { offsetInCU: 0x165B7, offset: 0x165B7, size: 0x8, addend: 0x0, symName: __ZNSt3__112basic_stringIcNS_11char_traitsIcEENS_9allocatorIcEEEC1B8ue170006ILi0EEEPKc, symObjAddr: 0x1220, symBinAddr: 0x1000042F0, symSize: 0x30 }
  - { offsetInCU: 0x16699, offset: 0x16699, size: 0x8, addend: 0x0, symName: __ZNSt3__114basic_ofstreamIcNS_11char_traitsIcEEEC1EPKcj, symObjAddr: 0x1250, symBinAddr: 0x100004320, symSize: 0x160 }
  - { offsetInCU: 0x166E3, offset: 0x166E3, size: 0x8, addend: 0x0, symName: __ZNKSt3__19basic_iosIcNS_11char_traitsIcEEE4goodB8ue170006Ev, symObjAddr: 0x13B0, symBinAddr: 0x100004480, symSize: 0x20 }
  - { offsetInCU: 0x16709, offset: 0x16709, size: 0x8, addend: 0x0, symName: __ZNSt3__114basic_ofstreamIcNS_11char_traitsIcEEE5closeEv, symObjAddr: 0x1450, symBinAddr: 0x100004520, symSize: 0x50 }
  - { offsetInCU: 0x16736, offset: 0x16736, size: 0x8, addend: 0x0, symName: __ZNSt3__114basic_ofstreamIcNS_11char_traitsIcEEED1Ev, symObjAddr: 0x14A0, symBinAddr: 0x100004570, symSize: 0x40 }
  - { offsetInCU: 0x16763, offset: 0x16763, size: 0x8, addend: 0x0, symName: __ZNSt3__14listINS_12basic_stringIcNS_11char_traitsIcEENS_9allocatorIcEEEENS4_IS6_EEE5clearB8ue170006Ev, symObjAddr: 0x14E0, symBinAddr: 0x1000045B0, symSize: 0x20 }
  - { offsetInCU: 0x16823, offset: 0x16823, size: 0x8, addend: 0x0, symName: __ZNSt3__114basic_ifstreamIcNS_11char_traitsIcEEEC1EPKcj, symObjAddr: 0x1500, symBinAddr: 0x1000045D0, symSize: 0x160 }
  - { offsetInCU: 0x1686D, offset: 0x1686D, size: 0x8, addend: 0x0, symName: __ZNSt3__112basic_stringIcNS_11char_traitsIcEENS_9allocatorIcEEEC1B8ue170006Ev, symObjAddr: 0x1660, symBinAddr: 0x100004730, symSize: 0x20 }
  - { offsetInCU: 0x16897, offset: 0x16897, size: 0x8, addend: 0x0, symName: __ZNSt3__14listINS_12basic_stringIcNS_11char_traitsIcEENS_9allocatorIcEEEENS4_IS6_EEE9push_backERKS6_, symObjAddr: 0x16D0, symBinAddr: 0x1000047A0, symSize: 0x100 }
  - { offsetInCU: 0x168F1, offset: 0x168F1, size: 0x8, addend: 0x0, symName: __ZNSt3__114basic_ifstreamIcNS_11char_traitsIcEEED1Ev, symObjAddr: 0x17D0, symBinAddr: 0x1000048A0, symSize: 0x40 }
  - { offsetInCU: 0x1691E, offset: 0x1691E, size: 0x8, addend: 0x0, symName: __ZNKSt3__112basic_stringIcNS_11char_traitsIcEENS_9allocatorIcEEE4sizeB8ue170006Ev, symObjAddr: 0x1810, symBinAddr: 0x1000048E0, symSize: 0x50 }
  - { offsetInCU: 0x16944, offset: 0x16944, size: 0x8, addend: 0x0, symName: __ZNKSt3__112basic_stringIcNS_11char_traitsIcEENS_9allocatorIcEEE5emptyB8ue170006Ev, symObjAddr: 0x1860, symBinAddr: 0x100004930, symSize: 0x30 }
  - { offsetInCU: 0x1696A, offset: 0x1696A, size: 0x8, addend: 0x0, symName: __ZNSt3__14listINS_12basic_stringIcNS_11char_traitsIcEENS_9allocatorIcEEEENS4_IS6_EEEC1ESt16initializer_listIS6_E, symObjAddr: 0x1890, symBinAddr: 0x100004960, symSize: 0x30 }
  - { offsetInCU: 0x169A5, offset: 0x169A5, size: 0x8, addend: 0x0, symName: __ZNSt3__112basic_stringIcNS_11char_traitsIcEENS_9allocatorIcEEE5beginB8ue170006Ev, symObjAddr: 0x18C0, symBinAddr: 0x100004990, symSize: 0x50 }
  - { offsetInCU: 0x169CB, offset: 0x169CB, size: 0x8, addend: 0x0, symName: __ZNSt3__112basic_stringIcNS_11char_traitsIcEENS_9allocatorIcEEE3endB8ue170006Ev, symObjAddr: 0x1940, symBinAddr: 0x100004A10, symSize: 0x50 }
  - { offsetInCU: 0x169F1, offset: 0x169F1, size: 0x8, addend: 0x0, symName: __ZNKSt3__111__wrap_iterIPcEdeB8ue170006Ev, symObjAddr: 0x1990, symBinAddr: 0x100004A60, symSize: 0x20 }
  - { offsetInCU: 0x16A17, offset: 0x16A17, size: 0x8, addend: 0x0, symName: __ZNSt3__112basic_stringIcNS_11char_traitsIcEENS_9allocatorIcEEE5eraseB8ue170006ENS_11__wrap_iterIPKcEE, symObjAddr: 0x19B0, symBinAddr: 0x100004A80, symSize: 0x60 }
  - { offsetInCU: 0x16A77, offset: 0x16A77, size: 0x8, addend: 0x0, symName: __ZNSt3__111__wrap_iterIPKcEC1B8ue170006IPcEERKNS0_IT_EEPNS_9enable_ifIXsr14is_convertibleIS6_S2_EE5valueEvE4typeE, symObjAddr: 0x1A10, symBinAddr: 0x100004AE0, symSize: 0x30 }
  - { offsetInCU: 0x16AC2, offset: 0x16AC2, size: 0x8, addend: 0x0, symName: __ZNSt3__115__list_iteratorINS_12basic_stringIcNS_11char_traitsIcEENS_9allocatorIcEEEEPvEppB8ue170006Ev, symObjAddr: 0x1A40, symBinAddr: 0x100004B10, symSize: 0x20 }
  - { offsetInCU: 0x16AE8, offset: 0x16AE8, size: 0x8, addend: 0x0, symName: __ZNSt3__14listINS_12basic_stringIcNS_11char_traitsIcEENS_9allocatorIcEEEENS4_IS6_EEE12append_rangeB8ue170006IRS8_EEvOT_, symObjAddr: 0x1A60, symBinAddr: 0x100004B30, symSize: 0x50 }
  - { offsetInCU: 0x16B26, offset: 0x16B26, size: 0x8, addend: 0x0, symName: __ZNSt3__111__wrap_iterIPcEppB8ue170006Ei, symObjAddr: 0x1AB0, symBinAddr: 0x100004B80, symSize: 0x30 }
  - { offsetInCU: 0x16B64, offset: 0x16B64, size: 0x8, addend: 0x0, symName: __ZNSt3__14listINS_12basic_stringIcNS_11char_traitsIcEENS_9allocatorIcEEEENS4_IS6_EEED2Ev, symObjAddr: 0x1AE0, symBinAddr: 0x100004BB0, symSize: 0x20 }
  - { offsetInCU: 0x16B91, offset: 0x16B91, size: 0x8, addend: 0x0, symName: __ZNSt3__110__list_impINS_12basic_stringIcNS_11char_traitsIcEENS_9allocatorIcEEEENS4_IS6_EEED2Ev, symObjAddr: 0x1B00, symBinAddr: 0x100004BD0, symSize: 0x20 }
  - { offsetInCU: 0x16BBD, offset: 0x16BBD, size: 0x8, addend: 0x0, symName: __ZNSt3__110__list_impINS_12basic_stringIcNS_11char_traitsIcEENS_9allocatorIcEEEENS4_IS6_EEE5clearEv, symObjAddr: 0x1B20, symBinAddr: 0x100004BF0, symSize: 0xE0 }
  - { offsetInCU: 0x16C2D, offset: 0x16C2D, size: 0x8, addend: 0x0, symName: __ZNKSt3__110__list_impINS_12basic_stringIcNS_11char_traitsIcEENS_9allocatorIcEEEENS4_IS6_EEE5emptyB8ue170006Ev, symObjAddr: 0x1C00, symBinAddr: 0x100004CD0, symSize: 0x30 }
  - { offsetInCU: 0x16C53, offset: 0x16C53, size: 0x8, addend: 0x0, symName: __ZNSt3__110__list_impINS_12basic_stringIcNS_11char_traitsIcEENS_9allocatorIcEEEENS4_IS6_EEE12__node_allocB8ue170006Ev, symObjAddr: 0x1C30, symBinAddr: 0x100004D00, symSize: 0x20 }
  - { offsetInCU: 0x16C79, offset: 0x16C79, size: 0x8, addend: 0x0, symName: __ZNKSt3__110__list_impINS_12basic_stringIcNS_11char_traitsIcEENS_9allocatorIcEEEENS4_IS6_EEE13__end_as_linkB8ue170006Ev, symObjAddr: 0x1C50, symBinAddr: 0x100004D20, symSize: 0x50 }
  - { offsetInCU: 0x16C9F, offset: 0x16C9F, size: 0x8, addend: 0x0, symName: __ZNSt3__110__list_impINS_12basic_stringIcNS_11char_traitsIcEENS_9allocatorIcEEEENS4_IS6_EEE14__unlink_nodesEPNS_16__list_node_baseIS6_PvEESC_, symObjAddr: 0x1CA0, symBinAddr: 0x100004D70, symSize: 0x40 }
  - { offsetInCU: 0x16CD4, offset: 0x16CD4, size: 0x8, addend: 0x0, symName: __ZNSt3__110__list_impINS_12basic_stringIcNS_11char_traitsIcEENS_9allocatorIcEEEENS4_IS6_EEE4__szB8ue170006Ev, symObjAddr: 0x1CE0, symBinAddr: 0x100004DB0, symSize: 0x20 }
  - { offsetInCU: 0x16CFA, offset: 0x16CFA, size: 0x8, addend: 0x0, symName: __ZNSt3__116__list_node_baseINS_12basic_stringIcNS_11char_traitsIcEENS_9allocatorIcEEEEPvE9__as_nodeB8ue170006Ev, symObjAddr: 0x1D00, symBinAddr: 0x100004DD0, symSize: 0x20 }
  - { offsetInCU: 0x16D20, offset: 0x16D20, size: 0x8, addend: 0x0, symName: __ZNSt3__116allocator_traitsINS_9allocatorINS_11__list_nodeINS_12basic_stringIcNS_11char_traitsIcEENS1_IcEEEEPvEEEEE7destroyB8ue170006IS7_vvEEvRSA_PT_, symObjAddr: 0x1D30, symBinAddr: 0x100004E00, symSize: 0x20 }
  - { offsetInCU: 0x16D5B, offset: 0x16D5B, size: 0x8, addend: 0x0, symName: __ZNSt3__116allocator_traitsINS_9allocatorINS_11__list_nodeINS_12basic_stringIcNS_11char_traitsIcEENS1_IcEEEEPvEEEEE10deallocateB8ue170006ERSA_PS9_m, symObjAddr: 0x1D50, symBinAddr: 0x100004E20, symSize: 0x30 }
  - { offsetInCU: 0x16D9D, offset: 0x16D9D, size: 0x8, addend: 0x0, symName: __ZNKSt3__110__list_impINS_12basic_stringIcNS_11char_traitsIcEENS_9allocatorIcEEEENS4_IS6_EEE4__szB8ue170006Ev, symObjAddr: 0x1D80, symBinAddr: 0x100004E50, symSize: 0x20 }
  - { offsetInCU: 0x16DC3, offset: 0x16DC3, size: 0x8, addend: 0x0, symName: __ZNKSt3__117__compressed_pairImNS_9allocatorINS_11__list_nodeINS_12basic_stringIcNS_11char_traitsIcEENS1_IcEEEEPvEEEEE5firstB8ue170006Ev, symObjAddr: 0x1DA0, symBinAddr: 0x100004E70, symSize: 0x20 }
  - { offsetInCU: 0x16DE9, offset: 0x16DE9, size: 0x8, addend: 0x0, symName: __ZNKSt3__122__compressed_pair_elemImLi0ELb0EE5__getB8ue170006Ev, symObjAddr: 0x1DC0, symBinAddr: 0x100004E90, symSize: 0x10 }
  - { offsetInCU: 0x16E0F, offset: 0x16E0F, size: 0x8, addend: 0x0, symName: __ZNSt3__117__compressed_pairImNS_9allocatorINS_11__list_nodeINS_12basic_stringIcNS_11char_traitsIcEENS1_IcEEEEPvEEEEE6secondB8ue170006Ev, symObjAddr: 0x1DD0, symBinAddr: 0x100004EA0, symSize: 0x20 }
  - { offsetInCU: 0x16E35, offset: 0x16E35, size: 0x8, addend: 0x0, symName: __ZNSt3__122__compressed_pair_elemINS_9allocatorINS_11__list_nodeINS_12basic_stringIcNS_11char_traitsIcEENS1_IcEEEEPvEEEELi1ELb1EE5__getB8ue170006Ev, symObjAddr: 0x1DF0, symBinAddr: 0x100004EC0, symSize: 0x10 }
  - { offsetInCU: 0x16E5B, offset: 0x16E5B, size: 0x8, addend: 0x0, symName: __ZNSt3__126__list_node_pointer_traitsINS_12basic_stringIcNS_11char_traitsIcEENS_9allocatorIcEEEEPvE26__unsafe_link_pointer_castB8ue170006EPNS_16__list_node_baseIS6_S7_EE, symObjAddr: 0x1E00, symBinAddr: 0x100004ED0, symSize: 0x10 }
  - { offsetInCU: 0x16E7F, offset: 0x16E7F, size: 0x8, addend: 0x0, symName: __ZNSt3__116__list_node_baseINS_12basic_stringIcNS_11char_traitsIcEENS_9allocatorIcEEEEPvE6__selfB8ue170006Ev, symObjAddr: 0x1E10, symBinAddr: 0x100004EE0, symSize: 0x20 }
  - { offsetInCU: 0x16EAB, offset: 0x16EAB, size: 0x8, addend: 0x0, symName: __ZNSt3__114pointer_traitsIPNS_16__list_node_baseINS_12basic_stringIcNS_11char_traitsIcEENS_9allocatorIcEEEEPvEEE10pointer_toB8ue170006ERS9_, symObjAddr: 0x1E30, symBinAddr: 0x100004F00, symSize: 0x10 }
  - { offsetInCU: 0x16ECE, offset: 0x16ECE, size: 0x8, addend: 0x0, symName: __ZNSt3__117__compressed_pairImNS_9allocatorINS_11__list_nodeINS_12basic_stringIcNS_11char_traitsIcEENS1_IcEEEEPvEEEEE5firstB8ue170006Ev, symObjAddr: 0x1E40, symBinAddr: 0x100004F10, symSize: 0x20 }
  - { offsetInCU: 0x16EF4, offset: 0x16EF4, size: 0x8, addend: 0x0, symName: __ZNSt3__122__compressed_pair_elemImLi0ELb0EE5__getB8ue170006Ev, symObjAddr: 0x1E60, symBinAddr: 0x100004F30, symSize: 0x10 }
  - { offsetInCU: 0x16F1A, offset: 0x16F1A, size: 0x8, addend: 0x0, symName: __ZNSt3__19allocatorINS_11__list_nodeINS_12basic_stringIcNS_11char_traitsIcEENS0_IcEEEEPvEEE10deallocateB8ue170006EPS8_m, symObjAddr: 0x1EB0, symBinAddr: 0x100004F80, symSize: 0x50 }
  - { offsetInCU: 0x16F5C, offset: 0x16F5C, size: 0x8, addend: 0x0, symName: __ZNSt3__112basic_stringIcNS_11char_traitsIcEENS_9allocatorIcEEEC2B8ue170006ILi0EEEPKc, symObjAddr: 0x2020, symBinAddr: 0x1000050F0, symSize: 0x50 }
  - { offsetInCU: 0x16FA1, offset: 0x16FA1, size: 0x8, addend: 0x0, symName: __ZNSt3__117__compressed_pairINS_12basic_stringIcNS_11char_traitsIcEENS_9allocatorIcEEE5__repES5_EC1B8ue170006INS_18__default_init_tagESA_EEOT_OT0_, symObjAddr: 0x2070, symBinAddr: 0x100005140, symSize: 0x30 }
  - { offsetInCU: 0x16FF9, offset: 0x16FF9, size: 0x8, addend: 0x0, symName: __ZNSt3__111char_traitsIcE6lengthB8ue170006EPKc, symObjAddr: 0x20A0, symBinAddr: 0x100005170, symSize: 0x30 }
  - { offsetInCU: 0x1701C, offset: 0x1701C, size: 0x8, addend: 0x0, symName: __ZNSt3__117__compressed_pairINS_12basic_stringIcNS_11char_traitsIcEENS_9allocatorIcEEE5__repES5_EC2B8ue170006INS_18__default_init_tagESA_EEOT_OT0_, symObjAddr: 0x20D0, symBinAddr: 0x1000051A0, symSize: 0x30 }
  - { offsetInCU: 0x17074, offset: 0x17074, size: 0x8, addend: 0x0, symName: __ZNSt3__122__compressed_pair_elemINS_12basic_stringIcNS_11char_traitsIcEENS_9allocatorIcEEE5__repELi0ELb0EEC2B8ue170006ENS_18__default_init_tagE, symObjAddr: 0x2100, symBinAddr: 0x1000051D0, symSize: 0x10 }
  - { offsetInCU: 0x170A8, offset: 0x170A8, size: 0x8, addend: 0x0, symName: __ZNSt3__122__compressed_pair_elemINS_9allocatorIcEELi1ELb1EEC2B8ue170006ENS_18__default_init_tagE, symObjAddr: 0x2110, symBinAddr: 0x1000051E0, symSize: 0x20 }
  - { offsetInCU: 0x170DC, offset: 0x170DC, size: 0x8, addend: 0x0, symName: __ZNSt3__19allocatorIcEC2B8ue170006Ev, symObjAddr: 0x2130, symBinAddr: 0x100005200, symSize: 0x20 }
  - { offsetInCU: 0x17106, offset: 0x17106, size: 0x8, addend: 0x0, symName: __ZNSt3__116__non_trivial_ifILb1ENS_9allocatorIcEEEC2B8ue170006Ev, symObjAddr: 0x2150, symBinAddr: 0x100005220, symSize: 0x10 }
  - { offsetInCU: 0x17130, offset: 0x17130, size: 0x8, addend: 0x0, symName: __ZNSt3__115__list_iteratorINS_12basic_stringIcNS_11char_traitsIcEENS_9allocatorIcEEEEPvEmmB8ue170006Ev, symObjAddr: 0x2240, symBinAddr: 0x100005310, symSize: 0x20 }
  - { offsetInCU: 0x17156, offset: 0x17156, size: 0x8, addend: 0x0, symName: __ZNSt3__114basic_ofstreamIcNS_11char_traitsIcEEED2Ev, symObjAddr: 0x2260, symBinAddr: 0x100005330, symSize: 0x60 }
  - { offsetInCU: 0x17190, offset: 0x17190, size: 0x8, addend: 0x0, symName: __ZTv0_n24_NSt3__114basic_ofstreamIcNS_11char_traitsIcEEED1Ev, symObjAddr: 0x22C0, symBinAddr: 0x100005390, symSize: 0x20 }
  - { offsetInCU: 0x171A7, offset: 0x171A7, size: 0x8, addend: 0x0, symName: __ZNSt3__112basic_stringIcNS_11char_traitsIcEENS_9allocatorIcEEEC2B8ue170006Ev, symObjAddr: 0x22E0, symBinAddr: 0x1000053B0, symSize: 0x50 }
  - { offsetInCU: 0x171D1, offset: 0x171D1, size: 0x8, addend: 0x0, symName: __ZNSt3__112basic_stringIcNS_11char_traitsIcEENS_9allocatorIcEEE14__default_initB8ue170006Ev, symObjAddr: 0x2330, symBinAddr: 0x100005400, symSize: 0x50 }
  - { offsetInCU: 0x171F7, offset: 0x171F7, size: 0x8, addend: 0x0, symName: __ZNSt3__117__compressed_pairINS_12basic_stringIcNS_11char_traitsIcEENS_9allocatorIcEEE5__repES5_E5firstB8ue170006Ev, symObjAddr: 0x2380, symBinAddr: 0x100005450, symSize: 0x20 }
  - { offsetInCU: 0x1721D, offset: 0x1721D, size: 0x8, addend: 0x0, symName: __ZNSt3__122__compressed_pair_elemINS_12basic_stringIcNS_11char_traitsIcEENS_9allocatorIcEEE5__repELi0ELb0EE5__getB8ue170006Ev, symObjAddr: 0x23A0, symBinAddr: 0x100005470, symSize: 0x10 }
  - { offsetInCU: 0x17243, offset: 0x17243, size: 0x8, addend: 0x0, symName: __ZNSt3__114basic_ifstreamIcNS_11char_traitsIcEEED2Ev, symObjAddr: 0x23B0, symBinAddr: 0x100005480, symSize: 0x60 }
  - { offsetInCU: 0x1727D, offset: 0x1727D, size: 0x8, addend: 0x0, symName: __ZTv0_n24_NSt3__114basic_ifstreamIcNS_11char_traitsIcEEED1Ev, symObjAddr: 0x2410, symBinAddr: 0x1000054E0, symSize: 0x20 }
  - { offsetInCU: 0x17294, offset: 0x17294, size: 0x8, addend: 0x0, symName: __ZNKSt3__112basic_stringIcNS_11char_traitsIcEENS_9allocatorIcEEE9__is_longB8ue170006Ev, symObjAddr: 0x2430, symBinAddr: 0x100005500, symSize: 0x30 }
  - { offsetInCU: 0x172BA, offset: 0x172BA, size: 0x8, addend: 0x0, symName: __ZNKSt3__112basic_stringIcNS_11char_traitsIcEENS_9allocatorIcEEE15__get_long_sizeB8ue170006Ev, symObjAddr: 0x2460, symBinAddr: 0x100005530, symSize: 0x20 }
  - { offsetInCU: 0x172E0, offset: 0x172E0, size: 0x8, addend: 0x0, symName: __ZNKSt3__112basic_stringIcNS_11char_traitsIcEENS_9allocatorIcEEE16__get_short_sizeB8ue170006Ev, symObjAddr: 0x2480, symBinAddr: 0x100005550, symSize: 0x30 }
  - { offsetInCU: 0x17306, offset: 0x17306, size: 0x8, addend: 0x0, symName: __ZNKSt3__117__compressed_pairINS_12basic_stringIcNS_11char_traitsIcEENS_9allocatorIcEEE5__repES5_E5firstB8ue170006Ev, symObjAddr: 0x24B0, symBinAddr: 0x100005580, symSize: 0x20 }
  - { offsetInCU: 0x1732C, offset: 0x1732C, size: 0x8, addend: 0x0, symName: __ZNKSt3__122__compressed_pair_elemINS_12basic_stringIcNS_11char_traitsIcEENS_9allocatorIcEEE5__repELi0ELb0EE5__getB8ue170006Ev, symObjAddr: 0x24D0, symBinAddr: 0x1000055A0, symSize: 0x10 }
  - { offsetInCU: 0x17352, offset: 0x17352, size: 0x8, addend: 0x0, symName: __ZNSt3__112basic_stringIcNS_11char_traitsIcEENS_9allocatorIcEEE15__make_iteratorB8ue170006EPc, symObjAddr: 0x24E0, symBinAddr: 0x1000055B0, symSize: 0x30 }
  - { offsetInCU: 0x17387, offset: 0x17387, size: 0x8, addend: 0x0, symName: __ZNSt3__112basic_stringIcNS_11char_traitsIcEENS_9allocatorIcEEE13__get_pointerB8ue170006Ev, symObjAddr: 0x2510, symBinAddr: 0x1000055E0, symSize: 0x50 }
  - { offsetInCU: 0x173AD, offset: 0x173AD, size: 0x8, addend: 0x0, symName: __ZNSt3__111__wrap_iterIPcEC1B8ue170006ES1_, symObjAddr: 0x2560, symBinAddr: 0x100005630, symSize: 0x30 }
  - { offsetInCU: 0x173E5, offset: 0x173E5, size: 0x8, addend: 0x0, symName: __ZNSt3__111__wrap_iterIPcEC2B8ue170006ES1_, symObjAddr: 0x2590, symBinAddr: 0x100005660, symSize: 0x20 }
  - { offsetInCU: 0x1741D, offset: 0x1741D, size: 0x8, addend: 0x0, symName: __ZNSt3__112basic_stringIcNS_11char_traitsIcEENS_9allocatorIcEEE18__get_long_pointerB8ue170006Ev, symObjAddr: 0x25B0, symBinAddr: 0x100005680, symSize: 0x20 }
  - { offsetInCU: 0x17443, offset: 0x17443, size: 0x8, addend: 0x0, symName: __ZNSt3__112basic_stringIcNS_11char_traitsIcEENS_9allocatorIcEEE19__get_short_pointerB8ue170006Ev, symObjAddr: 0x25D0, symBinAddr: 0x1000056A0, symSize: 0x30 }
  - { offsetInCU: 0x17469, offset: 0x17469, size: 0x8, addend: 0x0, symName: __ZNSt3__114pointer_traitsIPcE10pointer_toB8ue170006ERc, symObjAddr: 0x2600, symBinAddr: 0x1000056D0, symSize: 0x10 }
  - { offsetInCU: 0x1748C, offset: 0x1748C, size: 0x8, addend: 0x0, symName: __ZNKSt3__111__wrap_iterIPcE4baseB8ue170006Ev, symObjAddr: 0x2650, symBinAddr: 0x100005720, symSize: 0x20 }
  - { offsetInCU: 0x174B2, offset: 0x174B2, size: 0x8, addend: 0x0, symName: __ZNKSt3__111__wrap_iterIPcEplB8ue170006El, symObjAddr: 0x26B0, symBinAddr: 0x100005780, symSize: 0x40 }
  - { offsetInCU: 0x174F4, offset: 0x174F4, size: 0x8, addend: 0x0, symName: __ZNKSt3__111__wrap_iterIPKcE4baseB8ue170006Ev, symObjAddr: 0x26F0, symBinAddr: 0x1000057C0, symSize: 0x20 }
  - { offsetInCU: 0x1751A, offset: 0x1751A, size: 0x8, addend: 0x0, symName: __ZNSt3__111__wrap_iterIPcEpLB8ue170006El, symObjAddr: 0x2710, symBinAddr: 0x1000057E0, symSize: 0x20 }
  - { offsetInCU: 0x1754E, offset: 0x1754E, size: 0x8, addend: 0x0, symName: __ZNSt3__111__wrap_iterIPKcEC2B8ue170006IPcEERKNS0_IT_EEPNS_9enable_ifIXsr14is_convertibleIS6_S2_EE5valueEvE4typeE, symObjAddr: 0x2730, symBinAddr: 0x100005800, symSize: 0x40 }
  - { offsetInCU: 0x17599, offset: 0x17599, size: 0x8, addend: 0x0, symName: __ZNSt3__111__wrap_iterIPcEppB8ue170006Ev, symObjAddr: 0x2770, symBinAddr: 0x100005840, symSize: 0x20 }
  - { offsetInCU: 0x175BF, offset: 0x175BF, size: 0x8, addend: 0x0, symName: __ZNSt3__14listINS_12basic_stringIcNS_11char_traitsIcEENS_9allocatorIcEEEENS4_IS6_EEEC2B8ue170006Ev, symObjAddr: 0x2790, symBinAddr: 0x100005860, symSize: 0x20 }
  - { offsetInCU: 0x175E9, offset: 0x175E9, size: 0x8, addend: 0x0, symName: __ZNSt3__110__list_impINS_12basic_stringIcNS_11char_traitsIcEENS_9allocatorIcEEEENS4_IS6_EEEC2Ev, symObjAddr: 0x27B0, symBinAddr: 0x100005880, symSize: 0x50 }
  - { offsetInCU: 0x17615, offset: 0x17615, size: 0x8, addend: 0x0, symName: __ZNSt3__116__list_node_baseINS_12basic_stringIcNS_11char_traitsIcEENS_9allocatorIcEEEEPvEC1B8ue170006Ev, symObjAddr: 0x2800, symBinAddr: 0x1000058D0, symSize: 0x20 }
  - { offsetInCU: 0x17645, offset: 0x17645, size: 0x8, addend: 0x0, symName: __ZNSt3__117__compressed_pairImNS_9allocatorINS_11__list_nodeINS_12basic_stringIcNS_11char_traitsIcEENS1_IcEEEEPvEEEEEC1B8ue170006IiNS_18__default_init_tagEEEOT_OT0_, symObjAddr: 0x2820, symBinAddr: 0x1000058F0, symSize: 0x30 }
  - { offsetInCU: 0x1769D, offset: 0x1769D, size: 0x8, addend: 0x0, symName: __ZNSt3__116__list_node_baseINS_12basic_stringIcNS_11char_traitsIcEENS_9allocatorIcEEEEPvEC2B8ue170006Ev, symObjAddr: 0x2850, symBinAddr: 0x100005920, symSize: 0x50 }
  - { offsetInCU: 0x176C7, offset: 0x176C7, size: 0x8, addend: 0x0, symName: __ZNSt3__117__compressed_pairImNS_9allocatorINS_11__list_nodeINS_12basic_stringIcNS_11char_traitsIcEENS1_IcEEEEPvEEEEEC2B8ue170006IiNS_18__default_init_tagEEEOT_OT0_, symObjAddr: 0x28A0, symBinAddr: 0x100005970, symSize: 0x40 }
  - { offsetInCU: 0x1771F, offset: 0x1771F, size: 0x8, addend: 0x0, symName: __ZNSt3__122__compressed_pair_elemImLi0ELb0EEC2B8ue170006IivEEOT_, symObjAddr: 0x28E0, symBinAddr: 0x1000059B0, symSize: 0x20 }
  - { offsetInCU: 0x17761, offset: 0x17761, size: 0x8, addend: 0x0, symName: __ZNSt3__122__compressed_pair_elemINS_9allocatorINS_11__list_nodeINS_12basic_stringIcNS_11char_traitsIcEENS1_IcEEEEPvEEEELi1ELb1EEC2B8ue170006ENS_18__default_init_tagE, symObjAddr: 0x2900, symBinAddr: 0x1000059D0, symSize: 0x20 }
  - { offsetInCU: 0x17795, offset: 0x17795, size: 0x8, addend: 0x0, symName: __ZNSt3__19allocatorINS_11__list_nodeINS_12basic_stringIcNS_11char_traitsIcEENS0_IcEEEEPvEEEC2B8ue170006Ev, symObjAddr: 0x2920, symBinAddr: 0x1000059F0, symSize: 0x20 }
  - { offsetInCU: 0x177BF, offset: 0x177BF, size: 0x8, addend: 0x0, symName: __ZNSt3__116__non_trivial_ifILb1ENS_9allocatorINS_11__list_nodeINS_12basic_stringIcNS_11char_traitsIcEENS1_IcEEEEPvEEEEEC2B8ue170006Ev, symObjAddr: 0x2940, symBinAddr: 0x100005A10, symSize: 0x10 }
  - { offsetInCU: 0x177E9, offset: 0x177E9, size: 0x8, addend: 0x0, symName: __ZNSt3__110__list_impINS_12basic_stringIcNS_11char_traitsIcEENS_9allocatorIcEEEENS4_IS6_EEE5beginB8ue170006Ev, symObjAddr: 0x2950, symBinAddr: 0x100005A20, symSize: 0x30 }
  - { offsetInCU: 0x1780F, offset: 0x1780F, size: 0x8, addend: 0x0, symName: __ZNSt3__115__list_iteratorINS_12basic_stringIcNS_11char_traitsIcEENS_9allocatorIcEEEEPvEC1B8ue170006EPNS_16__list_node_baseIS6_S7_EE, symObjAddr: 0x2980, symBinAddr: 0x100005A50, symSize: 0x30 }
  - { offsetInCU: 0x17848, offset: 0x17848, size: 0x8, addend: 0x0, symName: __ZNSt3__115__list_iteratorINS_12basic_stringIcNS_11char_traitsIcEENS_9allocatorIcEEEEPvEC2B8ue170006EPNS_16__list_node_baseIS6_S7_EE, symObjAddr: 0x29B0, symBinAddr: 0x100005A80, symSize: 0x20 }
  - { offsetInCU: 0x17881, offset: 0x17881, size: 0x8, addend: 0x0, symName: __ZNSt3__110__list_impINS_12basic_stringIcNS_11char_traitsIcEENS_9allocatorIcEEEENS4_IS6_EEE3endB8ue170006Ev, symObjAddr: 0x29D0, symBinAddr: 0x100005AA0, symSize: 0x30 }
  - { offsetInCU: 0x178A7, offset: 0x178A7, size: 0x8, addend: 0x0, symName: __ZNSt3__121__list_const_iteratorINS_12basic_stringIcNS_11char_traitsIcEENS_9allocatorIcEEEEPvEC2B8ue170006ERKNS_15__list_iteratorIS6_S7_EE, symObjAddr: 0x2A30, symBinAddr: 0x100005B00, symSize: 0x20 }
  - { offsetInCU: 0x17901, offset: 0x17901, size: 0x8, addend: 0x0, symName: __ZNKSt3__113basic_ostreamIcNS_11char_traitsIcEEE6sentrycvbB8ue170006Ev, symObjAddr: 0x2C40, symBinAddr: 0x100005D10, symSize: 0x20 }
  - { offsetInCU: 0x17927, offset: 0x17927, size: 0x8, addend: 0x0, symName: __ZNSt3__119ostreambuf_iteratorIcNS_11char_traitsIcEEEC1B8ue170006ERNS_13basic_ostreamIcS2_EE, symObjAddr: 0x2E80, symBinAddr: 0x100005F50, symSize: 0x30 }
  - { offsetInCU: 0x1795F, offset: 0x1795F, size: 0x8, addend: 0x0, symName: __ZNKSt3__18ios_base5flagsB8ue170006Ev, symObjAddr: 0x2EB0, symBinAddr: 0x100005F80, symSize: 0x20 }
  - { offsetInCU: 0x17987, offset: 0x17987, size: 0x8, addend: 0x0, symName: __ZNKSt3__19basic_iosIcNS_11char_traitsIcEEE4fillB8ue170006Ev, symObjAddr: 0x2ED0, symBinAddr: 0x100005FA0, symSize: 0x70 }
  - { offsetInCU: 0x179AF, offset: 0x179AF, size: 0x8, addend: 0x0, symName: __ZNKSt3__119ostreambuf_iteratorIcNS_11char_traitsIcEEE6failedB8ue170006Ev, symObjAddr: 0x2F40, symBinAddr: 0x100006010, symSize: 0x20 }
  - { offsetInCU: 0x179D5, offset: 0x179D5, size: 0x8, addend: 0x0, symName: __ZNSt3__19basic_iosIcNS_11char_traitsIcEEE8setstateB8ue170006Ej, symObjAddr: 0x2F60, symBinAddr: 0x100006030, symSize: 0x30 }
  - { offsetInCU: 0x17A0A, offset: 0x17A0A, size: 0x8, addend: 0x0, symName: __ZNKSt3__18ios_base5widthB8ue170006Ev, symObjAddr: 0x2F90, symBinAddr: 0x100006060, symSize: 0x20 }
  - { offsetInCU: 0x17A32, offset: 0x17A32, size: 0x8, addend: 0x0, symName: __ZNSt3__115basic_streambufIcNS_11char_traitsIcEEE5sputnB8ue170006EPKcl, symObjAddr: 0x2FB0, symBinAddr: 0x100006080, symSize: 0x30 }
  - { offsetInCU: 0x17A74, offset: 0x17A74, size: 0x8, addend: 0x0, symName: __ZNSt3__112basic_stringIcNS_11char_traitsIcEENS_9allocatorIcEEEC1B8ue170006Emc, symObjAddr: 0x2FE0, symBinAddr: 0x1000060B0, symSize: 0x30 }
  - { offsetInCU: 0x17ABC, offset: 0x17ABC, size: 0x8, addend: 0x0, symName: __ZNSt3__112basic_stringIcNS_11char_traitsIcEENS_9allocatorIcEEE4dataB8ue170006Ev, symObjAddr: 0x3010, symBinAddr: 0x1000060E0, symSize: 0x30 }
  - { offsetInCU: 0x17AE2, offset: 0x17AE2, size: 0x8, addend: 0x0, symName: __ZNSt3__18ios_base5widthB8ue170006El, symObjAddr: 0x3040, symBinAddr: 0x100006110, symSize: 0x30 }
  - { offsetInCU: 0x17B28, offset: 0x17B28, size: 0x8, addend: 0x0, symName: __ZNSt3__112basic_stringIcNS_11char_traitsIcEENS_9allocatorIcEEEC2B8ue170006Emc, symObjAddr: 0x3070, symBinAddr: 0x100006140, symSize: 0x50 }
  - { offsetInCU: 0x17B70, offset: 0x17B70, size: 0x8, addend: 0x0, symName: __ZNSt3__119ostreambuf_iteratorIcNS_11char_traitsIcEEEC2B8ue170006ERNS_13basic_ostreamIcS2_EE, symObjAddr: 0x30D0, symBinAddr: 0x1000061A0, symSize: 0x50 }
  - { offsetInCU: 0x17BA8, offset: 0x17BA8, size: 0x8, addend: 0x0, symName: __ZNKSt3__19basic_iosIcNS_11char_traitsIcEEE5rdbufB8ue170006Ev, symObjAddr: 0x3120, symBinAddr: 0x1000061F0, symSize: 0x20 }
  - { offsetInCU: 0x17BD0, offset: 0x17BD0, size: 0x8, addend: 0x0, symName: __ZNKSt3__18ios_base5rdbufB8ue170006Ev, symObjAddr: 0x3140, symBinAddr: 0x100006210, symSize: 0x20 }
  - { offsetInCU: 0x17BF6, offset: 0x17BF6, size: 0x8, addend: 0x0, symName: __ZNSt3__111char_traitsIcE11eq_int_typeB8ue170006Eii, symObjAddr: 0x3160, symBinAddr: 0x100006230, symSize: 0x20 }
  - { offsetInCU: 0x17C29, offset: 0x17C29, size: 0x8, addend: 0x0, symName: __ZNSt3__111char_traitsIcE3eofB8ue170006Ev, symObjAddr: 0x3180, symBinAddr: 0x100006250, symSize: 0x10 }
  - { offsetInCU: 0x17C3D, offset: 0x17C3D, size: 0x8, addend: 0x0, symName: __ZNKSt3__19basic_iosIcNS_11char_traitsIcEEE5widenB8ue170006Ec, symObjAddr: 0x3190, symBinAddr: 0x100006260, symSize: 0x80 }
  - { offsetInCU: 0x17CAB, offset: 0x17CAB, size: 0x8, addend: 0x0, symName: __ZNKSt3__15ctypeIcE5widenB8ue170006Ec, symObjAddr: 0x3240, symBinAddr: 0x100006310, symSize: 0x30 }
  - { offsetInCU: 0x17CE0, offset: 0x17CE0, size: 0x8, addend: 0x0, symName: __ZNSt3__18ios_base8setstateB8ue170006Ej, symObjAddr: 0x3270, symBinAddr: 0x100006340, symSize: 0x30 }
  - { offsetInCU: 0x17D17, offset: 0x17D17, size: 0x8, addend: 0x0, symName: __ZNSt3__19basic_iosIcNS_11char_traitsIcEEEC2B8ue170006Ev, symObjAddr: 0x32A0, symBinAddr: 0x100006370, symSize: 0x40 }
  - { offsetInCU: 0x17D41, offset: 0x17D41, size: 0x8, addend: 0x0, symName: __ZNSt3__113basic_ostreamIcNS_11char_traitsIcEEEC2B8ue170006EPNS_15basic_streambufIcS2_EE, symObjAddr: 0x32E0, symBinAddr: 0x1000063B0, symSize: 0x50 }
  - { offsetInCU: 0x17D86, offset: 0x17D86, size: 0x8, addend: 0x0, symName: __ZNSt3__18ios_baseC2B8ue170006Ev, symObjAddr: 0x3330, symBinAddr: 0x100006400, symSize: 0x20 }
  - { offsetInCU: 0x17DB0, offset: 0x17DB0, size: 0x8, addend: 0x0, symName: __ZNSt3__19basic_iosIcNS_11char_traitsIcEEE4initB8ue170006EPNS_15basic_streambufIcS2_EE, symObjAddr: 0x3350, symBinAddr: 0x100006420, symSize: 0x50 }
  - { offsetInCU: 0x17DE7, offset: 0x17DE7, size: 0x8, addend: 0x0, symName: __ZNKSt3__18ios_base4goodB8ue170006Ev, symObjAddr: 0x33A0, symBinAddr: 0x100006470, symSize: 0x20 }
  - { offsetInCU: 0x17E0F, offset: 0x17E0F, size: 0x8, addend: 0x0, symName: __ZNKSt3__112basic_stringIcNS_11char_traitsIcEENS_9allocatorIcEEE4dataB8ue170006Ev, symObjAddr: 0x33C0, symBinAddr: 0x100006490, symSize: 0x30 }
  - { offsetInCU: 0x17E35, offset: 0x17E35, size: 0x8, addend: 0x0, symName: __ZNKSt3__112basic_stringIcNS_11char_traitsIcEENS_9allocatorIcEEE13__get_pointerB8ue170006Ev, symObjAddr: 0x3400, symBinAddr: 0x1000064D0, symSize: 0x50 }
  - { offsetInCU: 0x17E5B, offset: 0x17E5B, size: 0x8, addend: 0x0, symName: __ZNKSt3__112basic_stringIcNS_11char_traitsIcEENS_9allocatorIcEEE18__get_long_pointerB8ue170006Ev, symObjAddr: 0x3450, symBinAddr: 0x100006520, symSize: 0x20 }
  - { offsetInCU: 0x17E81, offset: 0x17E81, size: 0x8, addend: 0x0, symName: __ZNKSt3__112basic_stringIcNS_11char_traitsIcEENS_9allocatorIcEEE19__get_short_pointerB8ue170006Ev, symObjAddr: 0x3470, symBinAddr: 0x100006540, symSize: 0x30 }
  - { offsetInCU: 0x17EA7, offset: 0x17EA7, size: 0x8, addend: 0x0, symName: __ZNSt3__114pointer_traitsIPKcE10pointer_toB8ue170006ERS1_, symObjAddr: 0x34A0, symBinAddr: 0x100006570, symSize: 0x10 }
  - { offsetInCU: 0x17ECA, offset: 0x17ECA, size: 0x8, addend: 0x0, symName: __ZNSt3__113basic_istreamIcNS_11char_traitsIcEEEC2B8ue170006EPNS_15basic_streambufIcS2_EE, symObjAddr: 0x34B0, symBinAddr: 0x100006580, symSize: 0x50 }
  - { offsetInCU: 0x17F30, offset: 0x17F30, size: 0x8, addend: 0x0, symName: __ZNKSt3__113basic_istreamIcNS_11char_traitsIcEEE6sentrycvbB8ue170006Ev, symObjAddr: 0x3720, symBinAddr: 0x1000067F0, symSize: 0x20 }
  - { offsetInCU: 0x17F56, offset: 0x17F56, size: 0x8, addend: 0x0, symName: __ZNSt3__112basic_stringIcNS_11char_traitsIcEENS_9allocatorIcEEE5clearB8ue170006Ev, symObjAddr: 0x3740, symBinAddr: 0x100006810, symSize: 0x80 }
  - { offsetInCU: 0x17F7E, offset: 0x17F7E, size: 0x8, addend: 0x0, symName: __ZNSt3__115basic_streambufIcNS_11char_traitsIcEEE6sbumpcB8ue170006Ev, symObjAddr: 0x37C0, symBinAddr: 0x100006890, symSize: 0x60 }
  - { offsetInCU: 0x17FA4, offset: 0x17FA4, size: 0x8, addend: 0x0, symName: __ZNSt3__111char_traitsIcE12to_char_typeB8ue170006Ei, symObjAddr: 0x3820, symBinAddr: 0x1000068F0, symSize: 0x10 }
  - { offsetInCU: 0x17FC7, offset: 0x17FC7, size: 0x8, addend: 0x0, symName: __ZNSt3__111char_traitsIcE2eqEcc, symObjAddr: 0x3830, symBinAddr: 0x100006900, symSize: 0x30 }
  - { offsetInCU: 0x17FF8, offset: 0x17FF8, size: 0x8, addend: 0x0, symName: __ZNKSt3__112basic_stringIcNS_11char_traitsIcEENS_9allocatorIcEEE8max_sizeB8ue170006Ev, symObjAddr: 0x3860, symBinAddr: 0x100006930, symSize: 0xA0 }
  - { offsetInCU: 0x1804A, offset: 0x1804A, size: 0x8, addend: 0x0, symName: __ZNSt3__18ios_base18__setstate_nothrowB8ue170006Ej, symObjAddr: 0x3900, symBinAddr: 0x1000069D0, symSize: 0x50 }
  - { offsetInCU: 0x1807F, offset: 0x1807F, size: 0x8, addend: 0x0, symName: __ZNKSt3__19basic_iosIcNS_11char_traitsIcEEE10exceptionsB8ue170006Ev, symObjAddr: 0x3950, symBinAddr: 0x100006A20, symSize: 0x20 }
  - { offsetInCU: 0x180A5, offset: 0x180A5, size: 0x8, addend: 0x0, symName: __ZNSt3__111char_traitsIcE6assignB8ue170006ERcRKc, symObjAddr: 0x3970, symBinAddr: 0x100006A40, symSize: 0x20 }
  - { offsetInCU: 0x180D6, offset: 0x180D6, size: 0x8, addend: 0x0, symName: __ZNSt3__112basic_stringIcNS_11char_traitsIcEENS_9allocatorIcEEE15__set_long_sizeB8ue170006Em, symObjAddr: 0x3990, symBinAddr: 0x100006A60, symSize: 0x30 }
  - { offsetInCU: 0x1810B, offset: 0x1810B, size: 0x8, addend: 0x0, symName: __ZNSt3__112basic_stringIcNS_11char_traitsIcEENS_9allocatorIcEEE16__set_short_sizeB8ue170006Em, symObjAddr: 0x39C0, symBinAddr: 0x100006A90, symSize: 0x50 }
  - { offsetInCU: 0x18140, offset: 0x18140, size: 0x8, addend: 0x0, symName: __ZNSt3__111char_traitsIcE11to_int_typeB8ue170006Ec, symObjAddr: 0x3A10, symBinAddr: 0x100006AE0, symSize: 0x10 }
  - { offsetInCU: 0x1816F, offset: 0x1816F, size: 0x8, addend: 0x0, symName: __ZNSt3__116allocator_traitsINS_9allocatorIcEEE8max_sizeB8ue170006IS2_vvEEmRKS2_, symObjAddr: 0x3A20, symBinAddr: 0x100006AF0, symSize: 0x20 }
  - { offsetInCU: 0x1819B, offset: 0x1819B, size: 0x8, addend: 0x0, symName: __ZNKSt3__112basic_stringIcNS_11char_traitsIcEENS_9allocatorIcEEE7__allocB8ue170006Ev, symObjAddr: 0x3A40, symBinAddr: 0x100006B10, symSize: 0x20 }
  - { offsetInCU: 0x181C1, offset: 0x181C1, size: 0x8, addend: 0x0, symName: __ZNSt3__114numeric_limitsImE3maxB8ue170006Ev, symObjAddr: 0x3A60, symBinAddr: 0x100006B30, symSize: 0x10 }
  - { offsetInCU: 0x181D5, offset: 0x181D5, size: 0x8, addend: 0x0, symName: __ZNKSt3__117__compressed_pairINS_12basic_stringIcNS_11char_traitsIcEENS_9allocatorIcEEE5__repES5_E6secondB8ue170006Ev, symObjAddr: 0x3A70, symBinAddr: 0x100006B40, symSize: 0x20 }
  - { offsetInCU: 0x181FB, offset: 0x181FB, size: 0x8, addend: 0x0, symName: __ZNKSt3__122__compressed_pair_elemINS_9allocatorIcEELi1ELb1EE5__getB8ue170006Ev, symObjAddr: 0x3A90, symBinAddr: 0x100006B60, symSize: 0x10 }
  - { offsetInCU: 0x18221, offset: 0x18221, size: 0x8, addend: 0x0, symName: __ZNSt3__123__libcpp_numeric_limitsImLb1EE3maxB8ue170006Ev, symObjAddr: 0x3AA0, symBinAddr: 0x100006B70, symSize: 0x10 }
  - { offsetInCU: 0x18235, offset: 0x18235, size: 0x8, addend: 0x0, symName: __ZNKSt3__18ios_base10exceptionsB8ue170006Ev, symObjAddr: 0x3AB0, symBinAddr: 0x100006B80, symSize: 0x20 }
  - { offsetInCU: 0x1825D, offset: 0x1825D, size: 0x8, addend: 0x0, symName: __ZNSt3__14listINS_12basic_stringIcNS_11char_traitsIcEENS_9allocatorIcEEEENS4_IS6_EEE15__allocate_nodeB8ue170006ERNS4_INS_11__list_nodeIS6_PvEEEE, symObjAddr: 0x3AD0, symBinAddr: 0x100006BA0, symSize: 0x80 }
  - { offsetInCU: 0x182A1, offset: 0x182A1, size: 0x8, addend: 0x0, symName: __ZNSt3__116allocator_traitsINS_9allocatorINS_11__list_nodeINS_12basic_stringIcNS_11char_traitsIcEENS1_IcEEEEPvEEEEE9constructB8ue170006IS7_JRKS7_EvvEEvRSA_PT_DpOT0_, symObjAddr: 0x3B50, symBinAddr: 0x100006C20, symSize: 0x30 }
  - { offsetInCU: 0x182F6, offset: 0x182F6, size: 0x8, addend: 0x0, symName: __ZNKSt3__110unique_ptrINS_11__list_nodeINS_12basic_stringIcNS_11char_traitsIcEENS_9allocatorIcEEEEPvEENS_22__allocator_destructorINS5_IS9_EEEEEptB8ue170006Ev, symObjAddr: 0x3B80, symBinAddr: 0x100006C50, symSize: 0x20 }
  - { offsetInCU: 0x1831C, offset: 0x1831C, size: 0x8, addend: 0x0, symName: __ZNSt3__14listINS_12basic_stringIcNS_11char_traitsIcEENS_9allocatorIcEEEENS4_IS6_EEE20__link_nodes_at_backEPNS_16__list_node_baseIS6_PvEESC_, symObjAddr: 0x3BA0, symBinAddr: 0x100006C70, symSize: 0x60 }
  - { offsetInCU: 0x18362, offset: 0x18362, size: 0x8, addend: 0x0, symName: __ZNKSt3__110unique_ptrINS_11__list_nodeINS_12basic_stringIcNS_11char_traitsIcEENS_9allocatorIcEEEEPvEENS_22__allocator_destructorINS5_IS9_EEEEE3getB8ue170006Ev, symObjAddr: 0x3C00, symBinAddr: 0x100006CD0, symSize: 0x20 }
  - { offsetInCU: 0x18388, offset: 0x18388, size: 0x8, addend: 0x0, symName: __ZNSt3__111__list_nodeINS_12basic_stringIcNS_11char_traitsIcEENS_9allocatorIcEEEEPvE9__as_linkB8ue170006Ev, symObjAddr: 0x3C20, symBinAddr: 0x100006CF0, symSize: 0x20 }
  - { offsetInCU: 0x183AE, offset: 0x183AE, size: 0x8, addend: 0x0, symName: __ZNSt3__110unique_ptrINS_11__list_nodeINS_12basic_stringIcNS_11char_traitsIcEENS_9allocatorIcEEEEPvEENS_22__allocator_destructorINS5_IS9_EEEEE7releaseB8ue170006Ev, symObjAddr: 0x3C40, symBinAddr: 0x100006D10, symSize: 0x40 }
  - { offsetInCU: 0x183E3, offset: 0x183E3, size: 0x8, addend: 0x0, symName: __ZNSt3__110unique_ptrINS_11__list_nodeINS_12basic_stringIcNS_11char_traitsIcEENS_9allocatorIcEEEEPvEENS_22__allocator_destructorINS5_IS9_EEEEED1B8ue170006Ev, symObjAddr: 0x3C80, symBinAddr: 0x100006D50, symSize: 0x20 }
  - { offsetInCU: 0x1840D, offset: 0x1840D, size: 0x8, addend: 0x0, symName: __ZNSt3__116allocator_traitsINS_9allocatorINS_11__list_nodeINS_12basic_stringIcNS_11char_traitsIcEENS1_IcEEEEPvEEEEE8allocateB8ue170006ERSA_m, symObjAddr: 0x3CA0, symBinAddr: 0x100006D70, symSize: 0x30 }
  - { offsetInCU: 0x18440, offset: 0x18440, size: 0x8, addend: 0x0, symName: __ZNSt3__122__allocator_destructorINS_9allocatorINS_11__list_nodeINS_12basic_stringIcNS_11char_traitsIcEENS1_IcEEEEPvEEEEEC1B8ue170006ERSA_m, symObjAddr: 0x3CD0, symBinAddr: 0x100006DA0, symSize: 0x30 }
  - { offsetInCU: 0x1848C, offset: 0x1848C, size: 0x8, addend: 0x0, symName: __ZNSt3__110unique_ptrINS_11__list_nodeINS_12basic_stringIcNS_11char_traitsIcEENS_9allocatorIcEEEEPvEENS_22__allocator_destructorINS5_IS9_EEEEEC1B8ue170006ILb1EvEEPS9_NS_16__dependent_typeINS_27__unique_ptr_deleter_sfinaeISC_EEXT_EE20__good_rval_ref_typeE, symObjAddr: 0x3D00, symBinAddr: 0x100006DD0, symSize: 0x30 }
  - { offsetInCU: 0x184DD, offset: 0x184DD, size: 0x8, addend: 0x0, symName: __ZNSt3__19allocatorINS_11__list_nodeINS_12basic_stringIcNS_11char_traitsIcEENS0_IcEEEEPvEEE8allocateB8ue170006Em, symObjAddr: 0x3D30, symBinAddr: 0x100006E00, symSize: 0x50 }
  - { offsetInCU: 0x1851C, offset: 0x1851C, size: 0x8, addend: 0x0, symName: __ZNSt3__116allocator_traitsINS_9allocatorINS_11__list_nodeINS_12basic_stringIcNS_11char_traitsIcEENS1_IcEEEEPvEEEEE8max_sizeB8ue170006ISA_vvEEmRKSA_, symObjAddr: 0x3D80, symBinAddr: 0x100006E50, symSize: 0x30 }
  - { offsetInCU: 0x18548, offset: 0x18548, size: 0x8, addend: 0x0, symName: __ZNSt3__122__allocator_destructorINS_9allocatorINS_11__list_nodeINS_12basic_stringIcNS_11char_traitsIcEENS1_IcEEEEPvEEEEEC2B8ue170006ERSA_m, symObjAddr: 0x3EA0, symBinAddr: 0x100006F70, symSize: 0x30 }
  - { offsetInCU: 0x1858E, offset: 0x1858E, size: 0x8, addend: 0x0, symName: __ZNSt3__110unique_ptrINS_11__list_nodeINS_12basic_stringIcNS_11char_traitsIcEENS_9allocatorIcEEEEPvEENS_22__allocator_destructorINS5_IS9_EEEEEC2B8ue170006ILb1EvEEPS9_NS_16__dependent_typeINS_27__unique_ptr_deleter_sfinaeISC_EEXT_EE20__good_rval_ref_typeE, symObjAddr: 0x3ED0, symBinAddr: 0x100006FA0, symSize: 0x40 }
  - { offsetInCU: 0x185DF, offset: 0x185DF, size: 0x8, addend: 0x0, symName: __ZNSt3__117__compressed_pairIPNS_11__list_nodeINS_12basic_stringIcNS_11char_traitsIcEENS_9allocatorIcEEEEPvEENS_22__allocator_destructorINS5_IS9_EEEEEC1B8ue170006IRSA_SD_EEOT_OT0_, symObjAddr: 0x3F10, symBinAddr: 0x100006FE0, symSize: 0x30 }
  - { offsetInCU: 0x18637, offset: 0x18637, size: 0x8, addend: 0x0, symName: __ZNSt3__117__compressed_pairIPNS_11__list_nodeINS_12basic_stringIcNS_11char_traitsIcEENS_9allocatorIcEEEEPvEENS_22__allocator_destructorINS5_IS9_EEEEEC2B8ue170006IRSA_SD_EEOT_OT0_, symObjAddr: 0x3F40, symBinAddr: 0x100007010, symSize: 0x40 }
  - { offsetInCU: 0x1868F, offset: 0x1868F, size: 0x8, addend: 0x0, symName: __ZNSt3__122__compressed_pair_elemIPNS_11__list_nodeINS_12basic_stringIcNS_11char_traitsIcEENS_9allocatorIcEEEEPvEELi0ELb0EEC2B8ue170006IRSA_vEEOT_, symObjAddr: 0x3F80, symBinAddr: 0x100007050, symSize: 0x20 }
  - { offsetInCU: 0x186D1, offset: 0x186D1, size: 0x8, addend: 0x0, symName: __ZNSt3__122__compressed_pair_elemINS_22__allocator_destructorINS_9allocatorINS_11__list_nodeINS_12basic_stringIcNS_11char_traitsIcEENS2_IcEEEEPvEEEEEELi1ELb0EEC2B8ue170006ISC_vEEOT_, symObjAddr: 0x3FA0, symBinAddr: 0x100007070, symSize: 0x30 }
  - { offsetInCU: 0x18713, offset: 0x18713, size: 0x8, addend: 0x0, symName: __ZNKSt3__117__compressed_pairIPNS_11__list_nodeINS_12basic_stringIcNS_11char_traitsIcEENS_9allocatorIcEEEEPvEENS_22__allocator_destructorINS5_IS9_EEEEE5firstB8ue170006Ev, symObjAddr: 0x4010, symBinAddr: 0x1000070E0, symSize: 0x20 }
  - { offsetInCU: 0x18739, offset: 0x18739, size: 0x8, addend: 0x0, symName: __ZNKSt3__122__compressed_pair_elemIPNS_11__list_nodeINS_12basic_stringIcNS_11char_traitsIcEENS_9allocatorIcEEEEPvEELi0ELb0EE5__getB8ue170006Ev, symObjAddr: 0x4030, symBinAddr: 0x100007100, symSize: 0x10 }
  - { offsetInCU: 0x1875F, offset: 0x1875F, size: 0x8, addend: 0x0, symName: __ZNSt3__117__compressed_pairIPNS_11__list_nodeINS_12basic_stringIcNS_11char_traitsIcEENS_9allocatorIcEEEEPvEENS_22__allocator_destructorINS5_IS9_EEEEE5firstB8ue170006Ev, symObjAddr: 0x4040, symBinAddr: 0x100007110, symSize: 0x20 }
  - { offsetInCU: 0x18785, offset: 0x18785, size: 0x8, addend: 0x0, symName: __ZNSt3__122__compressed_pair_elemIPNS_11__list_nodeINS_12basic_stringIcNS_11char_traitsIcEENS_9allocatorIcEEEEPvEELi0ELb0EE5__getB8ue170006Ev, symObjAddr: 0x4060, symBinAddr: 0x100007130, symSize: 0x10 }
  - { offsetInCU: 0x187AB, offset: 0x187AB, size: 0x8, addend: 0x0, symName: __ZNSt3__110unique_ptrINS_11__list_nodeINS_12basic_stringIcNS_11char_traitsIcEENS_9allocatorIcEEEEPvEENS_22__allocator_destructorINS5_IS9_EEEEED2B8ue170006Ev, symObjAddr: 0x4070, symBinAddr: 0x100007140, symSize: 0x20 }
  - { offsetInCU: 0x187D5, offset: 0x187D5, size: 0x8, addend: 0x0, symName: __ZNSt3__110unique_ptrINS_11__list_nodeINS_12basic_stringIcNS_11char_traitsIcEENS_9allocatorIcEEEEPvEENS_22__allocator_destructorINS5_IS9_EEEEE5resetB8ue170006EPS9_, symObjAddr: 0x4090, symBinAddr: 0x100007160, symSize: 0x70 }
  - { offsetInCU: 0x18819, offset: 0x18819, size: 0x8, addend: 0x0, symName: __ZNSt3__117__compressed_pairIPNS_11__list_nodeINS_12basic_stringIcNS_11char_traitsIcEENS_9allocatorIcEEEEPvEENS_22__allocator_destructorINS5_IS9_EEEEE6secondB8ue170006Ev, symObjAddr: 0x4100, symBinAddr: 0x1000071D0, symSize: 0x20 }
  - { offsetInCU: 0x1883F, offset: 0x1883F, size: 0x8, addend: 0x0, symName: __ZNSt3__122__allocator_destructorINS_9allocatorINS_11__list_nodeINS_12basic_stringIcNS_11char_traitsIcEENS1_IcEEEEPvEEEEEclB8ue170006EPS9_, symObjAddr: 0x4120, symBinAddr: 0x1000071F0, symSize: 0x30 }
  - { offsetInCU: 0x18873, offset: 0x18873, size: 0x8, addend: 0x0, symName: __ZNSt3__122__compressed_pair_elemINS_22__allocator_destructorINS_9allocatorINS_11__list_nodeINS_12basic_stringIcNS_11char_traitsIcEENS2_IcEEEEPvEEEEEELi1ELb0EE5__getB8ue170006Ev, symObjAddr: 0x4150, symBinAddr: 0x100007220, symSize: 0x10 }
  - { offsetInCU: 0x18899, offset: 0x18899, size: 0x8, addend: 0x0, symName: __ZNSt3__14listINS_12basic_stringIcNS_11char_traitsIcEENS_9allocatorIcEEEENS4_IS6_EEEC2ESt16initializer_listIS6_E, symObjAddr: 0x4160, symBinAddr: 0x100007230, symSize: 0xA0 }
  - { offsetInCU: 0x18900, offset: 0x18900, size: 0x8, addend: 0x0, symName: __ZNKSt16initializer_listINSt3__112basic_stringIcNS0_11char_traitsIcEENS0_9allocatorIcEEEEE5beginB8ue170006Ev, symObjAddr: 0x4200, symBinAddr: 0x1000072D0, symSize: 0x20 }
  - { offsetInCU: 0x18926, offset: 0x18926, size: 0x8, addend: 0x0, symName: __ZNKSt16initializer_listINSt3__112basic_stringIcNS0_11char_traitsIcEENS0_9allocatorIcEEEEE3endB8ue170006Ev, symObjAddr: 0x4220, symBinAddr: 0x1000072F0, symSize: 0x20 }
  - { offsetInCU: 0x1894C, offset: 0x1894C, size: 0x8, addend: 0x0, symName: __ZNSt3__14listINS_12basic_stringIcNS_11char_traitsIcEENS_9allocatorIcEEEENS4_IS6_EEE12insert_rangeB8ue170006IRS8_EENS_15__list_iteratorIS6_PvEENS_21__list_const_iteratorIS6_SC_EEOT_, symObjAddr: 0x4240, symBinAddr: 0x100007310, symSize: 0x70 }
  - { offsetInCU: 0x18999, offset: 0x18999, size: 0x8, addend: 0x0, symName: __ZNSt3__14listINS_12basic_stringIcNS_11char_traitsIcEENS_9allocatorIcEEEENS4_IS6_EEE22__insert_with_sentinelB8ue170006INS_15__list_iteratorIS6_PvEESC_EESC_NS_21__list_const_iteratorIS6_SB_EET_T0_, symObjAddr: 0x42B0, symBinAddr: 0x100007380, symSize: 0x370 }
  - { offsetInCU: 0x18A6E, offset: 0x18A6E, size: 0x8, addend: 0x0, symName: __ZNKSt3__16ranges7__begin4__fnclB8ue170006IRNS_4listINS_12basic_stringIcNS_11char_traitsIcEENS_9allocatorIcEEEENS8_ISA_EEEEEEDaOT_, symObjAddr: 0x4620, symBinAddr: 0x1000076F0, symSize: 0x30 }
  - { offsetInCU: 0x18AB0, offset: 0x18AB0, size: 0x8, addend: 0x0, symName: __ZNKSt3__16ranges5__end4__fnclB8ue170006IRNS_4listINS_12basic_stringIcNS_11char_traitsIcEENS_9allocatorIcEEEENS8_ISA_EEEEEEDaOT_, symObjAddr: 0x4650, symBinAddr: 0x100007720, symSize: 0x30 }
  - { offsetInCU: 0x18AED, offset: 0x18AED, size: 0x8, addend: 0x0, symName: __ZNSt3__116allocator_traitsINS_9allocatorINS_11__list_nodeINS_12basic_stringIcNS_11char_traitsIcEENS1_IcEEEEPvEEEEE9constructB8ue170006IS7_JRS7_EvvEEvRSA_PT_DpOT0_, symObjAddr: 0x4680, symBinAddr: 0x100007750, symSize: 0x30 }
  - { offsetInCU: 0x18B42, offset: 0x18B42, size: 0x8, addend: 0x0, symName: __ZNSt3__14listINS_12basic_stringIcNS_11char_traitsIcEENS_9allocatorIcEEEENS4_IS6_EEE12__link_nodesEPNS_16__list_node_baseIS6_PvEESC_SC_, symObjAddr: 0x46B0, symBinAddr: 0x100007780, symSize: 0x50 }
  - { offsetInCU: 0x39, offset: 0x18CAA, size: 0x8, addend: 0x0, symName: __ZN10primesieve8stepSizeE, symObjAddr: 0x8F30, symBinAddr: 0x100014000, symSize: 0x0 }
  - { offsetInCU: 0x62AB, offset: 0x1EF1C, size: 0x8, addend: 0x0, symName: __ZNSt3__17advanceB8ue170006IPNS_4pairIllEEllvEEvRT_T0_, symObjAddr: 0x3130, symBinAddr: 0x10000A620, symSize: 0x30 }
  - { offsetInCU: 0x666D, offset: 0x1F2DE, size: 0x8, addend: 0x0, symName: __ZNSt3__17advanceB8ue170006INS_16reverse_iteratorIPNS_4pairIllEEEEllvEEvRT_T0_, symObjAddr: 0x4210, symBinAddr: 0x10000B6F0, symSize: 0x30 }
  - { offsetInCU: 0x66D8, offset: 0x1F349, size: 0x8, addend: 0x0, symName: __ZNSt3__16copy_nB8ue170006IPKcmPcEENS_9enable_ifIXsr37__has_random_access_iterator_categoryIT_EE5valueET1_E4typeES5_T0_S6_, symObjAddr: 0x51D0, symBinAddr: 0x10000C090, symSize: 0x40 }
  - { offsetInCU: 0x675F, offset: 0x1F3D0, size: 0x8, addend: 0x0, symName: __ZNSt3__17advanceB8ue170006INS_11__wrap_iterIPlEEllvEEvRT_T0_, symObjAddr: 0x5D00, symBinAddr: 0x10000CBC0, symSize: 0x30 }
  - { offsetInCU: 0x78B8, offset: 0x20529, size: 0x8, addend: 0x0, symName: __ZNSt3__113__fill_n_trueB8ue170006INS_6vectorIbNS_9allocatorIbEEEEEEvNS_14__bit_iteratorIT_Lb0EXLi0EEEENS6_9size_typeE, symObjAddr: 0x64C0, symBinAddr: 0x10000D350, symSize: 0x140 }
  - { offsetInCU: 0x797E, offset: 0x205EF, size: 0x8, addend: 0x0, symName: __ZNSt3__114__fill_n_falseB8ue170006INS_6vectorIbNS_9allocatorIbEEEEEEvNS_14__bit_iteratorIT_Lb0EXLi0EEEENS6_9size_typeE, symObjAddr: 0x6630, symBinAddr: 0x10000D4C0, symSize: 0x140 }
  - { offsetInCU: 0x7C34, offset: 0x208A5, size: 0x8, addend: 0x0, symName: __ZNSt3__17advanceB8ue170006INS_15__list_iteratorIiPvEEllvEEvRT_T0_, symObjAddr: 0x7FC0, symBinAddr: 0x10000EE50, symSize: 0x30 }
  - { offsetInCU: 0x9D26, offset: 0x22997, size: 0x8, addend: 0x0, symName: __ZNSt3__1lsB8ue170006INS_11char_traitsIcEEEERNS_13basic_ostreamIcT_EES6_c, symObjAddr: 0x120, symBinAddr: 0x1000078C0, symSize: 0x30 }
  - { offsetInCU: 0x9D6C, offset: 0x229DD, size: 0x8, addend: 0x0, symName: __ZNSt3__1plB8ue170006IcNS_11char_traitsIcEENS_9allocatorIcEEEENS_12basic_stringIT_T0_T1_EEOS9_SA_, symObjAddr: 0xAE0, symBinAddr: 0x100008250, symSize: 0x50 }
  - { offsetInCU: 0x9DC4, offset: 0x22A35, size: 0x8, addend: 0x0, symName: __ZNSt3__1plB8ue170006IcNS_11char_traitsIcEENS_9allocatorIcEEEENS_12basic_stringIT_T0_T1_EEOS9_PKS6_, symObjAddr: 0xB30, symBinAddr: 0x1000082A0, symSize: 0x50 }
  - { offsetInCU: 0x9E1C, offset: 0x22A8D, size: 0x8, addend: 0x0, symName: __ZNSt3__1plB8ue170006IcNS_11char_traitsIcEENS_9allocatorIcEEEENS_12basic_stringIT_T0_T1_EERKS9_PKS6_, symObjAddr: 0xC40, symBinAddr: 0x1000083B0, symSize: 0x100 }
  - { offsetInCU: 0x9EBE, offset: 0x22B2F, size: 0x8, addend: 0x0, symName: __ZNSt3__113binary_searchB8ue170006INS_11__wrap_iterIPlEElEEbT_S4_RKT0_, symObjAddr: 0x11E0, symBinAddr: 0x100008950, symSize: 0x40 }
  - { offsetInCU: 0x9F18, offset: 0x22B89, size: 0x8, addend: 0x0, symName: __ZNSt3__1neB8ue170006IPlEEbRKNS_11__wrap_iterIT_EES6_, symObjAddr: 0x12B0, symBinAddr: 0x100008A20, symSize: 0x30 }
  - { offsetInCU: 0xA772, offset: 0x233E3, size: 0x8, addend: 0x0, symName: __ZNSt3__1neB8ue170006ERKNS_15__list_iteratorIiPvEES4_, symObjAddr: 0x1640, symBinAddr: 0x100008D70, symSize: 0x30 }
  - { offsetInCU: 0xA7AF, offset: 0x23420, size: 0x8, addend: 0x0, symName: __ZNSt3__14nextB8ue170006INS_15__list_iteratorIiPvEEEENS_9enable_ifIXsr29__has_input_iterator_categoryIT_EE5valueES5_E4typeES5_NS_15iterator_traitsIS5_E15difference_typeE, symObjAddr: 0x16D0, symBinAddr: 0x100008E00, symSize: 0x30 }
  - { offsetInCU: 0xA7F2, offset: 0x23463, size: 0x8, addend: 0x0, symName: __ZNSt3__112__to_addressB8ue170006IlEEPT_S2_, symObjAddr: 0x1A40, symBinAddr: 0x100009160, symSize: 0x10 }
  - { offsetInCU: 0xA827, offset: 0x23498, size: 0x8, addend: 0x0, symName: __ZNSt3__110destroy_atB8ue170006IlLi0EEEvPT_, symObjAddr: 0x1A50, symBinAddr: 0x100009170, symSize: 0x20 }
  - { offsetInCU: 0xA85E, offset: 0x234CF, size: 0x8, addend: 0x0, symName: __ZNSt3__112__destroy_atB8ue170006IlLi0EEEvPT_, symObjAddr: 0x1A70, symBinAddr: 0x100009190, symSize: 0x10 }
  - { offsetInCU: 0xA895, offset: 0x23506, size: 0x8, addend: 0x0, symName: __ZNSt3__122__make_exception_guardB8ue170006INS_6vectorINS_4pairIllEENS_9allocatorIS3_EEE16__destroy_vectorEEENS_28__exception_guard_exceptionsIT_EES9_, symObjAddr: 0x1F30, symBinAddr: 0x100009530, symSize: 0x40 }
  - { offsetInCU: 0xA8CA, offset: 0x2353B, size: 0x8, addend: 0x0, symName: __ZNSt3__119__allocate_at_leastB8ue170006INS_9allocatorINS_4pairIllEEEEEEDaRT_m, symObjAddr: 0x2260, symBinAddr: 0x100009860, symSize: 0x40 }
  - { offsetInCU: 0xA90D, offset: 0x2357E, size: 0x8, addend: 0x0, symName: __ZNSt3__13minB8ue170006ImEERKT_S3_S3_, symObjAddr: 0x2390, symBinAddr: 0x100009990, symSize: 0x30 }
  - { offsetInCU: 0xAB3A, offset: 0x237AB, size: 0x8, addend: 0x0, symName: __ZNSt3__13minB8ue170006ImNS_6__lessIvvEEEERKT_S5_S5_T0_, symObjAddr: 0x2410, symBinAddr: 0x100009A10, symSize: 0x50 }
  - { offsetInCU: 0xAC0A, offset: 0x2387B, size: 0x8, addend: 0x0, symName: __ZNSt3__120__throw_length_errorB8ue170006EPKc, symObjAddr: 0x24F0, symBinAddr: 0x100009AD0, symSize: 0x70 }
  - { offsetInCU: 0xAC35, offset: 0x238A6, size: 0x8, addend: 0x0, symName: __ZNSt3__117allocate_at_leastB8ue170006INS_9allocatorINS_4pairIllEEEEEENS_17allocation_resultINS_16allocator_traitsIT_E7pointerEEERS7_m, symObjAddr: 0x25D0, symBinAddr: 0x100009BB0, symSize: 0x40 }
  - { offsetInCU: 0xAC78, offset: 0x238E9, size: 0x8, addend: 0x0, symName: __ZNSt3__112__to_addressB8ue170006INS_4pairIllEEEEPT_S4_, symObjAddr: 0x2860, symBinAddr: 0x100009D50, symSize: 0x10 }
  - { offsetInCU: 0xACAD, offset: 0x2391E, size: 0x8, addend: 0x0, symName: __ZNSt3__130__uninitialized_allocator_copyB8ue170006INS_9allocatorINS_4pairIllEEEEPKS3_S6_PS3_EET2_RT_T0_T1_S8_, symObjAddr: 0x28F0, symBinAddr: 0x100009DE0, symSize: 0x80 }
  - { offsetInCU: 0xAD4A, offset: 0x239BB, size: 0x8, addend: 0x0, symName: __ZNSt3__114__unwrap_rangeB8ue170006IPKNS_4pairIllEES4_EEDaT_T0_, symObjAddr: 0x29D0, symBinAddr: 0x100009EC0, symSize: 0x40 }
  - { offsetInCU: 0xAD96, offset: 0x23A07, size: 0x8, addend: 0x0, symName: __ZNSt3__135__uninitialized_allocator_copy_implB8ue170006INS_9allocatorINS_4pairIllEEEEPKS3_S6_PS3_EET2_RT_T0_T1_S8_, symObjAddr: 0x2A10, symBinAddr: 0x100009F00, symSize: 0x100 }
  - { offsetInCU: 0xAE34, offset: 0x23AA5, size: 0x8, addend: 0x0, symName: __ZNSt3__113__unwrap_iterB8ue170006IPNS_4pairIllEENS_18__unwrap_iter_implIS3_Lb1EEELi0EEEDTclsrT0_8__unwrapclsr3stdE7declvalIT_EEEES7_, symObjAddr: 0x2B10, symBinAddr: 0x10000A000, symSize: 0x20 }
  - { offsetInCU: 0xAE78, offset: 0x23AE9, size: 0x8, addend: 0x0, symName: __ZNSt3__113__rewrap_iterB8ue170006IPNS_4pairIllEES3_NS_18__unwrap_iter_implIS3_Lb1EEEEET_S6_T0_, symObjAddr: 0x2B30, symBinAddr: 0x10000A020, symSize: 0x40 }
  - { offsetInCU: 0xB01C, offset: 0x23C8D, size: 0x8, addend: 0x0, symName: __ZNSt3__113__unwrap_iterB8ue170006IPKNS_4pairIllEENS_18__unwrap_iter_implIS4_Lb1EEELi0EEEDTclsrT0_8__unwrapclsr3stdE7declvalIT_EEEES8_, symObjAddr: 0x2BC0, symBinAddr: 0x10000A0B0, symSize: 0x20 }
  - { offsetInCU: 0xB0B3, offset: 0x23D24, size: 0x8, addend: 0x0, symName: __ZNSt3__112__to_addressB8ue170006IKNS_4pairIllEEEEPT_S5_, symObjAddr: 0x2C30, symBinAddr: 0x10000A120, symSize: 0x10 }
  - { offsetInCU: 0xB0E8, offset: 0x23D59, size: 0x8, addend: 0x0, symName: __ZNSt3__122__make_exception_guardB8ue170006INS_29_AllocatorDestroyRangeReverseINS_9allocatorINS_4pairIllEEEEPS4_EEEENS_28__exception_guard_exceptionsIT_EES9_, symObjAddr: 0x2C70, symBinAddr: 0x10000A160, symSize: 0x60 }
  - { offsetInCU: 0xB142, offset: 0x23DB3, size: 0x8, addend: 0x0, symName: __ZNSt3__112construct_atB8ue170006INS_4pairIllEEJRKS2_EPS2_EEPT_S7_DpOT0_, symObjAddr: 0x2E30, symBinAddr: 0x10000A320, symSize: 0x30 }
  - { offsetInCU: 0xB1B2, offset: 0x23E23, size: 0x8, addend: 0x0, symName: __ZNSt3__119__allocator_destroyB8ue170006INS_9allocatorINS_4pairIllEEEENS_16reverse_iteratorIPS3_EES7_EEvRT_T0_T1_, symObjAddr: 0x2F00, symBinAddr: 0x10000A3F0, symSize: 0x70 }
  - { offsetInCU: 0xB215, offset: 0x23E86, size: 0x8, addend: 0x0, symName: __ZNSt3__1neB8ue170006IPNS_4pairIllEES3_EEbRKNS_16reverse_iteratorIT_EERKNS4_IT0_EE, symObjAddr: 0x2FA0, symBinAddr: 0x10000A490, symSize: 0x40 }
  - { offsetInCU: 0xB261, offset: 0x23ED2, size: 0x8, addend: 0x0, symName: __ZNSt3__112__to_addressB8ue170006INS_16reverse_iteratorIPNS_4pairIllEEEEvEEu7__decayIDTclsr19__to_address_helperIT_EE6__callclsr3stdE7declvalIRKS6_EEEEES8_, symObjAddr: 0x3000, symBinAddr: 0x10000A4F0, symSize: 0x20 }
  - { offsetInCU: 0xB297, offset: 0x23F08, size: 0x8, addend: 0x0, symName: __ZNSt3__110destroy_atB8ue170006INS_4pairIllEELi0EEEvPT_, symObjAddr: 0x3060, symBinAddr: 0x10000A550, symSize: 0x20 }
  - { offsetInCU: 0xB2CE, offset: 0x23F3F, size: 0x8, addend: 0x0, symName: __ZNSt3__112__destroy_atB8ue170006INS_4pairIllEELi0EEEvPT_, symObjAddr: 0x3080, symBinAddr: 0x10000A570, symSize: 0x10 }
  - { offsetInCU: 0xB32F, offset: 0x23FA0, size: 0x8, addend: 0x0, symName: __ZNSt3__14prevB8ue170006IPNS_4pairIllEEEENS_9enable_ifIXsr29__has_input_iterator_categoryIT_EE5valueES5_E4typeES5_NS_15iterator_traitsIS5_E15difference_typeE, symObjAddr: 0x3100, symBinAddr: 0x10000A5F0, symSize: 0x30 }
  - { offsetInCU: 0xB372, offset: 0x23FE3, size: 0x8, addend: 0x0, symName: __ZNSt3__19__advanceB8ue170006IPNS_4pairIllEEEEvRT_NS_15iterator_traitsIS4_E15difference_typeENS_26random_access_iterator_tagE, symObjAddr: 0x3170, symBinAddr: 0x10000A650, symSize: 0x20 }
  - { offsetInCU: 0xB40E, offset: 0x2407F, size: 0x8, addend: 0x0, symName: __ZNSt3__112construct_atB8ue170006INS_4pairIllEEJS2_EPS2_EEPT_S5_DpOT0_, symObjAddr: 0x3660, symBinAddr: 0x10000AB40, symSize: 0x30 }
  - { offsetInCU: 0xB47E, offset: 0x240EF, size: 0x8, addend: 0x0, symName: __ZNSt3__13maxB8ue170006ImEERKT_S3_S3_, symObjAddr: 0x38B0, symBinAddr: 0x10000AD90, symSize: 0x30 }
  - { offsetInCU: 0xB4C1, offset: 0x24132, size: 0x8, addend: 0x0, symName: __ZNSt3__13maxB8ue170006ImNS_6__lessIvvEEEERKT_S5_S5_T0_, symObjAddr: 0x38E0, symBinAddr: 0x10000ADC0, symSize: 0x50 }
  - { offsetInCU: 0xB51B, offset: 0x2418C, size: 0x8, addend: 0x0, symName: __ZNSt3__142__uninitialized_allocator_move_if_noexceptB8ue170006INS_9allocatorINS_4pairIllEEEENS_16reverse_iteratorIPS3_EES7_S7_EET2_RT_T0_T1_S8_, symObjAddr: 0x3B30, symBinAddr: 0x10000B010, symSize: 0x180 }
  - { offsetInCU: 0xB5BA, offset: 0x2422B, size: 0x8, addend: 0x0, symName: __ZNSt3__14swapB8ue170006IPNS_4pairIllEEEENS_9enable_ifIXaasr21is_move_constructibleIT_EE5valuesr18is_move_assignableIS5_EE5valueEvE4typeERS5_S8_, symObjAddr: 0x3CB0, symBinAddr: 0x10000B190, symSize: 0x40 }
  - { offsetInCU: 0xB60B, offset: 0x2427C, size: 0x8, addend: 0x0, symName: __ZNSt3__122__make_exception_guardB8ue170006INS_29_AllocatorDestroyRangeReverseINS_9allocatorINS_4pairIllEEEENS_16reverse_iteratorIPS4_EEEEEENS_28__exception_guard_exceptionsIT_EESB_, symObjAddr: 0x3CF0, symBinAddr: 0x10000B1D0, symSize: 0x60 }
  - { offsetInCU: 0xB640, offset: 0x242B1, size: 0x8, addend: 0x0, symName: __ZNSt3__119__allocator_destroyB8ue170006INS_9allocatorINS_4pairIllEEEENS_16reverse_iteratorINS5_IPS3_EEEES8_EEvRT_T0_T1_, symObjAddr: 0x3FE0, symBinAddr: 0x10000B4C0, symSize: 0x70 }
  - { offsetInCU: 0xB6A3, offset: 0x24314, size: 0x8, addend: 0x0, symName: __ZNSt3__1neB8ue170006INS_16reverse_iteratorIPNS_4pairIllEEEES5_EEbRKNS1_IT_EERKNS1_IT0_EE, symObjAddr: 0x4080, symBinAddr: 0x10000B560, symSize: 0x50 }
  - { offsetInCU: 0xB6EF, offset: 0x24360, size: 0x8, addend: 0x0, symName: __ZNSt3__112__to_addressB8ue170006INS_16reverse_iteratorINS1_IPNS_4pairIllEEEEEEvEEu7__decayIDTclsr19__to_address_helperIT_EE6__callclsr3stdE7declvalIRKS7_EEEEES9_, symObjAddr: 0x40D0, symBinAddr: 0x10000B5B0, symSize: 0x20 }
  - { offsetInCU: 0xB74F, offset: 0x243C0, size: 0x8, addend: 0x0, symName: __ZNSt3__14prevB8ue170006INS_16reverse_iteratorIPNS_4pairIllEEEEEENS_9enable_ifIXsr29__has_input_iterator_categoryIT_EE5valueES7_E4typeES7_NS_15iterator_traitsIS7_E15difference_typeE, symObjAddr: 0x41D0, symBinAddr: 0x10000B6B0, symSize: 0x40 }
  - { offsetInCU: 0xB792, offset: 0x24403, size: 0x8, addend: 0x0, symName: __ZNSt3__19__advanceB8ue170006INS_16reverse_iteratorIPNS_4pairIllEEEEEEvRT_NS_15iterator_traitsIS6_E15difference_typeENS_26random_access_iterator_tagE, symObjAddr: 0x4240, symBinAddr: 0x10000B720, symSize: 0x30 }
  - { offsetInCU: 0xB7DB, offset: 0x2444C, size: 0x8, addend: 0x0, symName: __ZNSt3__120__throw_out_of_rangeB8ue170006EPKc, symObjAddr: 0x49E0, symBinAddr: 0x10000BAF0, symSize: 0x70 }
  - { offsetInCU: 0xB806, offset: 0x24477, size: 0x8, addend: 0x0, symName: __ZNSt3__14copyB8ue170006IPKcPcEET0_T_S5_S4_, symObjAddr: 0x5210, symBinAddr: 0x10000C0D0, symSize: 0x40 }
  - { offsetInCU: 0xB860, offset: 0x244D1, size: 0x8, addend: 0x0, symName: __ZNSt3__16__copyB8ue170006INS_17_ClassicAlgPolicyEPKcS3_PcEENS_4pairIT0_T2_EES6_T1_S7_, symObjAddr: 0x5250, symBinAddr: 0x10000C110, symSize: 0x40 }
  - { offsetInCU: 0xB8CC, offset: 0x2453D, size: 0x8, addend: 0x0, symName: __ZNSt3__123__dispatch_copy_or_moveB8ue170006INS_17_ClassicAlgPolicyENS_11__copy_loopIS1_EENS_14__copy_trivialEPKcS6_PcEENS_4pairIT2_T4_EES9_T3_SA_, symObjAddr: 0x5290, symBinAddr: 0x10000C150, symSize: 0x40 }
  - { offsetInCU: 0xB94A, offset: 0x245BB, size: 0x8, addend: 0x0, symName: __ZNSt3__121__unwrap_and_dispatchB8ue170006INS_10__overloadINS_11__copy_loopINS_17_ClassicAlgPolicyEEENS_14__copy_trivialEEEPKcS8_PcLi0EEENS_4pairIT0_T2_EESB_T1_SC_, symObjAddr: 0x52D0, symBinAddr: 0x10000C190, symSize: 0xB0 }
  - { offsetInCU: 0xB9D9, offset: 0x2464A, size: 0x8, addend: 0x0, symName: __ZNSt3__114__unwrap_rangeB8ue170006IPKcS2_EEDaT_T0_, symObjAddr: 0x5380, symBinAddr: 0x10000C240, symSize: 0x40 }
  - { offsetInCU: 0xBBBB, offset: 0x2482C, size: 0x8, addend: 0x0, symName: __ZNSt3__113__unwrap_iterB8ue170006IPcNS_18__unwrap_iter_implIS1_Lb1EEELi0EEEDTclsrT0_8__unwrapclsr3stdE7declvalIT_EEEES5_, symObjAddr: 0x5400, symBinAddr: 0x10000C2C0, symSize: 0x20 }
  - { offsetInCU: 0xBBFF, offset: 0x24870, size: 0x8, addend: 0x0, symName: __ZNSt3__19make_pairB8ue170006IPKcPcEENS_4pairINS_18__unwrap_ref_decayIT_E4typeENS5_IT0_E4typeEEEOS6_OS9_, symObjAddr: 0x5420, symBinAddr: 0x10000C2E0, symSize: 0x30 }
  - { offsetInCU: 0xBC4E, offset: 0x248BF, size: 0x8, addend: 0x0, symName: __ZNSt3__114__rewrap_rangeB8ue170006IPKcS2_S2_EET0_S3_T1_, symObjAddr: 0x5450, symBinAddr: 0x10000C310, symSize: 0x30 }
  - { offsetInCU: 0xBCA3, offset: 0x24914, size: 0x8, addend: 0x0, symName: __ZNSt3__113__rewrap_iterB8ue170006IPcS1_NS_18__unwrap_iter_implIS1_Lb1EEEEET_S4_T0_, symObjAddr: 0x5480, symBinAddr: 0x10000C340, symSize: 0x40 }
  - { offsetInCU: 0xBE61, offset: 0x24AD2, size: 0x8, addend: 0x0, symName: __ZNSt3__113__unwrap_iterB8ue170006IPKcNS_18__unwrap_iter_implIS2_Lb1EEELi0EEEDTclsrT0_8__unwrapclsr3stdE7declvalIT_EEEES6_, symObjAddr: 0x5510, symBinAddr: 0x10000C3D0, symSize: 0x20 }
  - { offsetInCU: 0xBEF8, offset: 0x24B69, size: 0x8, addend: 0x0, symName: __ZNSt3__119__copy_trivial_implB8ue170006IKccEENS_4pairIPT_PT0_EES4_S4_S6_, symObjAddr: 0x55B0, symBinAddr: 0x10000C470, symSize: 0x70 }
  - { offsetInCU: 0xBF60, offset: 0x24BD1, size: 0x8, addend: 0x0, symName: __ZNSt3__119__constexpr_memmoveB8ue170006IcKcLi0EEEPT_S3_PT0_NS_15__element_countE, symObjAddr: 0x5620, symBinAddr: 0x10000C4E0, symSize: 0x50 }
  - { offsetInCU: 0xBFCE, offset: 0x24C3F, size: 0x8, addend: 0x0, symName: __ZNSt3__19make_pairB8ue170006IRPKcPcEENS_4pairINS_18__unwrap_ref_decayIT_E4typeENS6_IT0_E4typeEEEOS7_OSA_, symObjAddr: 0x5670, symBinAddr: 0x10000C530, symSize: 0x30 }
  - { offsetInCU: 0xC070, offset: 0x24CE1, size: 0x8, addend: 0x0, symName: __ZNSt3__113__rewrap_iterB8ue170006IPKcS2_NS_18__unwrap_iter_implIS2_Lb1EEEEET_S5_T0_, symObjAddr: 0x57B0, symBinAddr: 0x10000C670, symSize: 0x40 }
  - { offsetInCU: 0xC0C5, offset: 0x24D36, size: 0x8, addend: 0x0, symName: __ZNSt3__16fill_nB8ue170006IPcmcEET_S2_T0_RKT1_, symObjAddr: 0x5870, symBinAddr: 0x10000C730, symSize: 0x40 }
  - { offsetInCU: 0xC128, offset: 0x24D99, size: 0x8, addend: 0x0, symName: __ZNSt3__18__fill_nB8ue170006IPcmcEET_S2_T0_RKT1_, symObjAddr: 0x58B0, symBinAddr: 0x10000C770, symSize: 0x50 }
  - { offsetInCU: 0xC18B, offset: 0x24DFC, size: 0x8, addend: 0x0, symName: __ZNSt3__121__convert_to_integralB8ue170006Em, symObjAddr: 0x5900, symBinAddr: 0x10000C7C0, symSize: 0x10 }
  - { offsetInCU: 0xC1B7, offset: 0x24E28, size: 0x8, addend: 0x0, symName: __ZNSt3__113binary_searchB8ue170006INS_11__wrap_iterIPlEElNS_6__lessIvvEEEEbT_S6_RKT0_T1_, symObjAddr: 0x5910, symBinAddr: 0x10000C7D0, symSize: 0xA0 }
  - { offsetInCU: 0xC228, offset: 0x24E99, size: 0x8, addend: 0x0, symName: __ZNSt3__111lower_boundB8ue170006INS_11__wrap_iterIPlEElRNS_6__lessIvvEEEET_S7_S7_RKT0_T1_, symObjAddr: 0x59B0, symBinAddr: 0x10000C870, symSize: 0x60 }
  - { offsetInCU: 0xC2A7, offset: 0x24F18, size: 0x8, addend: 0x0, symName: __ZNSt3__113__lower_boundB8ue170006INS_17_ClassicAlgPolicyENS_11__wrap_iterIPlEES4_lNS_10__identityENS_6__lessIvvEEEET0_S8_T1_RKT2_RT4_RT3_, symObjAddr: 0x5A40, symBinAddr: 0x10000C900, symSize: 0x100 }
  - { offsetInCU: 0xC415, offset: 0x25086, size: 0x8, addend: 0x0, symName: __ZNSt3__115__half_positiveB8ue170006IlEENS_9enable_ifIXsr11is_integralIT_EE5valueES2_E4typeES2_, symObjAddr: 0x5B80, symBinAddr: 0x10000CA40, symSize: 0x20 }
  - { offsetInCU: 0xC44A, offset: 0x250BB, size: 0x8, addend: 0x0, symName: __ZNSt3__18__invokeB8ue170006IRNS_6__lessIvvEEJRlRKlEEEDTclclsr3stdE7declvalIT_EEspclsr3stdE7declvalIT0_EEEEOS7_DpOS8_, symObjAddr: 0x5BD0, symBinAddr: 0x10000CA90, symSize: 0x30 }
  - { offsetInCU: 0xC4AF, offset: 0x25120, size: 0x8, addend: 0x0, symName: __ZNSt3__18__invokeB8ue170006IRNS_10__identityEJRlEEEDTclclsr3stdE7declvalIT_EEspclsr3stdE7declvalIT0_EEEEOS4_DpOS5_, symObjAddr: 0x5C00, symBinAddr: 0x10000CAC0, symSize: 0x30 }
  - { offsetInCU: 0xC500, offset: 0x25171, size: 0x8, addend: 0x0, symName: __ZNSt3__18distanceB8ue170006INS_11__wrap_iterIPlEEEENS_15iterator_traitsIT_E15difference_typeES5_S5_, symObjAddr: 0x5C30, symBinAddr: 0x10000CAF0, symSize: 0x40 }
  - { offsetInCU: 0xC543, offset: 0x251B4, size: 0x8, addend: 0x0, symName: __ZNSt3__110__distanceB8ue170006INS_11__wrap_iterIPlEEEENS_15iterator_traitsIT_E15difference_typeES5_S5_NS_26random_access_iterator_tagE, symObjAddr: 0x5C70, symBinAddr: 0x10000CB30, symSize: 0x30 }
  - { offsetInCU: 0xC590, offset: 0x25201, size: 0x8, addend: 0x0, symName: __ZNSt3__1miB8ue170006IPlS1_EEDTmicldtfp_4baseEcldtfp0_4baseEERKNS_11__wrap_iterIT_EERKNS3_IT0_EE, symObjAddr: 0x5CA0, symBinAddr: 0x10000CB60, symSize: 0x40 }
  - { offsetInCU: 0xC5DC, offset: 0x2524D, size: 0x8, addend: 0x0, symName: __ZNSt3__19__advanceB8ue170006INS_11__wrap_iterIPlEEEEvRT_NS_15iterator_traitsIS4_E15difference_typeENS_26random_access_iterator_tagE, symObjAddr: 0x5D30, symBinAddr: 0x10000CBF0, symSize: 0x30 }
  - { offsetInCU: 0xC652, offset: 0x252C3, size: 0x8, addend: 0x0, symName: __ZNSt3__119__allocate_at_leastB8ue170006INS_9allocatorImEEEEDaRT_m, symObjAddr: 0x6190, symBinAddr: 0x10000D030, symSize: 0x40 }
  - { offsetInCU: 0xC695, offset: 0x25306, size: 0x8, addend: 0x0, symName: __ZNSt3__117allocate_at_leastB8ue170006INS_9allocatorImEEEENS_17allocation_resultINS_16allocator_traitsIT_E7pointerEEERS5_m, symObjAddr: 0x62C0, symBinAddr: 0x10000D160, symSize: 0x40 }
  - { offsetInCU: 0xC6D8, offset: 0x25349, size: 0x8, addend: 0x0, symName: __ZNSt3__16fill_nB8ue170006INS_6vectorIbNS_9allocatorIbEEEEEEvNS_14__bit_iteratorIT_Lb0EXLi0EEEENS6_9size_typeEb, symObjAddr: 0x63F0, symBinAddr: 0x10000D280, symSize: 0x80 }
  - { offsetInCU: 0xC72A, offset: 0x2539B, size: 0x8, addend: 0x0, symName: __ZNSt3__16fill_nB8ue170006IPmmmEET_S2_T0_RKT1_, symObjAddr: 0x6770, symBinAddr: 0x10000D600, symSize: 0x40 }
  - { offsetInCU: 0xC78D, offset: 0x253FE, size: 0x8, addend: 0x0, symName: __ZNSt3__112__to_addressB8ue170006ImEEPT_S2_, symObjAddr: 0x67B0, symBinAddr: 0x10000D640, symSize: 0x10 }
  - { offsetInCU: 0xC7C2, offset: 0x25433, size: 0x8, addend: 0x0, symName: __ZNSt3__18__fill_nB8ue170006IPmmmEET_S2_T0_RKT1_, symObjAddr: 0x67C0, symBinAddr: 0x10000D650, symSize: 0x50 }
  - { offsetInCU: 0xC825, offset: 0x25496, size: 0x8, addend: 0x0, symName: __ZNSt3__16fill_nB8ue170006IPmmiEET_S2_T0_RKT1_, symObjAddr: 0x6840, symBinAddr: 0x10000D6D0, symSize: 0x40 }
  - { offsetInCU: 0xC888, offset: 0x254F9, size: 0x8, addend: 0x0, symName: __ZNSt3__18__fill_nB8ue170006IPmmiEET_S2_T0_RKT1_, symObjAddr: 0x6880, symBinAddr: 0x10000D710, symSize: 0x50 }
  - { offsetInCU: 0xC8EB, offset: 0x2555C, size: 0x8, addend: 0x0, symName: __ZNSt3__1eqB8ue170006IPlEEbRKNS_11__wrap_iterIT_EES6_, symObjAddr: 0x6930, symBinAddr: 0x10000D7C0, symSize: 0x40 }
  - { offsetInCU: 0xC953, offset: 0x255C4, size: 0x8, addend: 0x0, symName: __ZNSt3__112construct_atB8ue170006IlJlEPlEEPT_S3_DpOT0_, symObjAddr: 0x6BE0, symBinAddr: 0x10000DA70, symSize: 0x30 }
  - { offsetInCU: 0xC9C3, offset: 0x25634, size: 0x8, addend: 0x0, symName: __ZNSt3__119__allocate_at_leastB8ue170006INS_9allocatorIlEEEEDaRT_m, symObjAddr: 0x7040, symBinAddr: 0x10000DED0, symSize: 0x40 }
  - { offsetInCU: 0xCA06, offset: 0x25677, size: 0x8, addend: 0x0, symName: __ZNSt3__117allocate_at_leastB8ue170006INS_9allocatorIlEEEENS_17allocation_resultINS_16allocator_traitsIT_E7pointerEEERS5_m, symObjAddr: 0x7140, symBinAddr: 0x10000DFD0, symSize: 0x40 }
  - { offsetInCU: 0xCA49, offset: 0x256BA, size: 0x8, addend: 0x0, symName: __ZNSt3__142__uninitialized_allocator_move_if_noexceptB8ue170006INS_9allocatorIlEENS_16reverse_iteratorIPlEES5_lvEET1_RT_T0_S9_S6_, symObjAddr: 0x7270, symBinAddr: 0x10000E100, symSize: 0x70 }
  - { offsetInCU: 0xCAC6, offset: 0x25737, size: 0x8, addend: 0x0, symName: __ZNSt3__14swapB8ue170006IPlEENS_9enable_ifIXaasr21is_move_constructibleIT_EE5valuesr18is_move_assignableIS3_EE5valueEvE4typeERS3_S6_, symObjAddr: 0x7330, symBinAddr: 0x10000E1C0, symSize: 0x40 }
  - { offsetInCU: 0xCB17, offset: 0x25788, size: 0x8, addend: 0x0, symName: __ZNSt3__14moveB8ue170006INS_16reverse_iteratorIPlEES3_EET0_T_S5_S4_, symObjAddr: 0x7420, symBinAddr: 0x10000E2B0, symSize: 0x80 }
  - { offsetInCU: 0xCB71, offset: 0x257E2, size: 0x8, addend: 0x0, symName: __ZNSt3__16__moveB8ue170006INS_17_ClassicAlgPolicyENS_16reverse_iteratorIPlEES4_S4_EENS_4pairIT0_T2_EES6_T1_S7_, symObjAddr: 0x74A0, symBinAddr: 0x10000E330, symSize: 0x90 }
  - { offsetInCU: 0xCBDD, offset: 0x2584E, size: 0x8, addend: 0x0, symName: __ZNSt3__123__dispatch_copy_or_moveB8ue170006INS_17_ClassicAlgPolicyENS_11__move_loopIS1_EENS_14__move_trivialENS_16reverse_iteratorIPlEES7_S7_EENS_4pairIT2_T4_EES9_T3_SA_, symObjAddr: 0x7530, symBinAddr: 0x10000E3C0, symSize: 0x90 }
  - { offsetInCU: 0xCC5B, offset: 0x258CC, size: 0x8, addend: 0x0, symName: __ZNSt3__121__unwrap_and_dispatchB8ue170006INS_10__overloadINS_11__move_loopINS_17_ClassicAlgPolicyEEENS_14__move_trivialEEENS_16reverse_iteratorIPlEES9_S9_Li0EEENS_4pairIT0_T2_EESB_T1_SC_, symObjAddr: 0x75C0, symBinAddr: 0x10000E450, symSize: 0x210 }
  - { offsetInCU: 0xCCEA, offset: 0x2595B, size: 0x8, addend: 0x0, symName: __ZNSt3__114__unwrap_rangeB8ue170006INS_16reverse_iteratorIPlEES3_EEDaT_T0_, symObjAddr: 0x77D0, symBinAddr: 0x10000E660, symSize: 0x60 }
  - { offsetInCU: 0xCEA9, offset: 0x25B1A, size: 0x8, addend: 0x0, symName: __ZNSt3__113__unwrap_iterB8ue170006INS_16reverse_iteratorIPlEENS_18__unwrap_iter_implIS3_Lb0EEELi0EEEDTclsrT0_8__unwrapclsr3stdE7declvalIT_EEEES7_, symObjAddr: 0x78D0, symBinAddr: 0x10000E760, symSize: 0x40 }
  - { offsetInCU: 0xCEED, offset: 0x25B5E, size: 0x8, addend: 0x0, symName: __ZNSt3__19make_pairB8ue170006INS_16reverse_iteratorIPlEES3_EENS_4pairINS_18__unwrap_ref_decayIT_E4typeENS5_IT0_E4typeEEEOS6_OS9_, symObjAddr: 0x7910, symBinAddr: 0x10000E7A0, symSize: 0x30 }
  - { offsetInCU: 0xCF3C, offset: 0x25BAD, size: 0x8, addend: 0x0, symName: __ZNSt3__114__rewrap_rangeB8ue170006INS_16reverse_iteratorIPlEES3_S3_EET0_S4_T1_, symObjAddr: 0x7940, symBinAddr: 0x10000E7D0, symSize: 0x60 }
  - { offsetInCU: 0xCF91, offset: 0x25C02, size: 0x8, addend: 0x0, symName: __ZNSt3__113__rewrap_iterB8ue170006INS_16reverse_iteratorIPlEES3_NS_18__unwrap_iter_implIS3_Lb0EEEEET_S6_T0_, symObjAddr: 0x79A0, symBinAddr: 0x10000E830, symSize: 0x70 }
  - { offsetInCU: 0xD036, offset: 0x25CA7, size: 0x8, addend: 0x0, symName: __ZNSt3__1neB8ue170006IPlS1_EEbRKNS_16reverse_iteratorIT_EERKNS2_IT0_EE, symObjAddr: 0x7B10, symBinAddr: 0x10000E9A0, symSize: 0x40 }
  - { offsetInCU: 0xD0EE, offset: 0x25D5F, size: 0x8, addend: 0x0, symName: __ZNSt3__19__advanceB8ue170006INS_15__list_iteratorIiPvEEEEvRT_NS_15iterator_traitsIS4_E15difference_typeENS_26bidirectional_iterator_tagE, symObjAddr: 0x7FF0, symBinAddr: 0x10000EE80, symSize: 0x80 }
  - { offsetInCU: 0xD16A, offset: 0x25DDB, size: 0x8, addend: 0x0, symName: __ZNSt3__1eqB8ue170006ERKNS_15__list_iteratorIiPvEES4_, symObjAddr: 0x8B60, symBinAddr: 0x10000F1B0, symSize: 0x30 }
  - { offsetInCU: 0xD874, offset: 0x264E5, size: 0x8, addend: 0x0, symName: __ZN10primesieve5limitE, symObjAddr: 0x8F38, symBinAddr: 0x100014008, symSize: 0x0 }
  - { offsetInCU: 0xD888, offset: 0x264F9, size: 0x8, addend: 0x0, symName: __ZN10primesieve6primesE, symObjAddr: 0x59DA8, symBinAddr: 0x100014010, symSize: 0x0 }
  - { offsetInCU: 0xDD0F, offset: 0x26980, size: 0x8, addend: 0x0, symName: __ZNSt3__16vectorINS_4pairIllEENS_9allocatorIS2_EEE26__swap_out_circular_bufferERNS_14__split_bufferIS2_RS4_EE, symObjAddr: 0x3770, symBinAddr: 0x10000AC50, symSize: 0x120 }
  - { offsetInCU: 0xDEDB, offset: 0x26B4C, size: 0x8, addend: 0x0, symName: __ZNSt3__16vectorIlNS_9allocatorIlEEE26__swap_out_circular_bufferERNS_14__split_bufferIlRS2_EE, symObjAddr: 0x6D10, symBinAddr: 0x10000DBA0, symSize: 0x120 }
  - { offsetInCU: 0xFF81, offset: 0x28BF2, size: 0x8, addend: 0x0, symName: __Z6spaceri, symObjAddr: 0x0, symBinAddr: 0x100007810, symSize: 0xB0 }
  - { offsetInCU: 0xFFFD, offset: 0x28C6E, size: 0x8, addend: 0x0, symName: __Z5powerll, symObjAddr: 0x150, symBinAddr: 0x1000078F0, symSize: 0x50 }
  - { offsetInCU: 0x10045, offset: 0x28CB6, size: 0x8, addend: 0x0, symName: __Z7isPrimei, symObjAddr: 0x1A0, symBinAddr: 0x100007940, symSize: 0xC0 }
  - { offsetInCU: 0x1009B, offset: 0x28D0C, size: 0x8, addend: 0x0, symName: __Z4sqrtB8ue170006IiENSt3__19enable_ifIXsr3std11is_integralIT_EE5valueEdE4typeES2_, symObjAddr: 0x260, symBinAddr: 0x100007A00, symSize: 0x20 }
  - { offsetInCU: 0x100D3, offset: 0x28D44, size: 0x8, addend: 0x0, symName: __ZNSt3__16vectorIlNS_9allocatorIlEEED1B8ue170006Ev, symObjAddr: 0x280, symBinAddr: 0x100007A20, symSize: 0x20 }
  - { offsetInCU: 0x100FC, offset: 0x28D6D, size: 0x8, addend: 0x0, symName: __Z14properDivisorsl, symObjAddr: 0x2A0, symBinAddr: 0x100007A40, symSize: 0x90 }
  - { offsetInCU: 0x10152, offset: 0x28DC3, size: 0x8, addend: 0x0, symName: __Z18primeFactorizationl, symObjAddr: 0x330, symBinAddr: 0x100007AD0, symSize: 0x3A0 }
  - { offsetInCU: 0x101AC, offset: 0x28E1D, size: 0x8, addend: 0x0, symName: __ZNSt3__16vectorINS_4pairIllEENS_9allocatorIS2_EEEC1B8ue170006Ev, symObjAddr: 0x6D0, symBinAddr: 0x100007E70, symSize: 0x20 }
  - { offsetInCU: 0x101DC, offset: 0x28E4D, size: 0x8, addend: 0x0, symName: __ZNSt3__14pairIllEC1B8ue170006IiiLPv0EEEOT_OT0_, symObjAddr: 0x6F0, symBinAddr: 0x100007E90, symSize: 0x30 }
  - { offsetInCU: 0x1023A, offset: 0x28EAB, size: 0x8, addend: 0x0, symName: __ZNSt3__16vectorINS_4pairIllEENS_9allocatorIS2_EEEC1B8ue170006ESt16initializer_listIS2_E, symObjAddr: 0x720, symBinAddr: 0x100007EC0, symSize: 0x30 }
  - { offsetInCU: 0x10275, offset: 0x28EE6, size: 0x8, addend: 0x0, symName: __ZNSt3__16vectorINS_4pairIllEENS_9allocatorIS2_EEE9push_backB8ue170006EOS2_, symObjAddr: 0x750, symBinAddr: 0x100007EF0, symSize: 0x60 }
  - { offsetInCU: 0x102AC, offset: 0x28F1D, size: 0x8, addend: 0x0, symName: __ZNSt3__16vectorINS_4pairIllEENS_9allocatorIS2_EEE4backB8ue170006Ev, symObjAddr: 0x7B0, symBinAddr: 0x100007F50, symSize: 0x20 }
  - { offsetInCU: 0x102D2, offset: 0x28F43, size: 0x8, addend: 0x0, symName: __ZNSt3__14pairIllEC1B8ue170006IRiiLPv0EEEOT_OT0_, symObjAddr: 0x7D0, symBinAddr: 0x100007F70, symSize: 0x30 }
  - { offsetInCU: 0x10330, offset: 0x28FA1, size: 0x8, addend: 0x0, symName: __ZNSt3__16vectorINS_4pairIllEENS_9allocatorIS2_EEED1B8ue170006Ev, symObjAddr: 0x800, symBinAddr: 0x100007FA0, symSize: 0x20 }
  - { offsetInCU: 0x10359, offset: 0x28FCA, size: 0x8, addend: 0x0, symName: __Z21factorizationToStringNSt3__16vectorINS_4pairIllEENS_9allocatorIS2_EEEE, symObjAddr: 0x820, symBinAddr: 0x100007FC0, symSize: 0x270 }
  - { offsetInCU: 0x103B6, offset: 0x29027, size: 0x8, addend: 0x0, symName: __ZNKSt3__16vectorINS_4pairIllEENS_9allocatorIS2_EEE4sizeB8ue170006Ev, symObjAddr: 0xAC0, symBinAddr: 0x100008230, symSize: 0x20 }
  - { offsetInCU: 0x103DC, offset: 0x2904D, size: 0x8, addend: 0x0, symName: __ZNSt3__16vectorINS_4pairIllEENS_9allocatorIS2_EEE2atEm, symObjAddr: 0xB80, symBinAddr: 0x1000082F0, symSize: 0x60 }
  - { offsetInCU: 0x10413, offset: 0x29084, size: 0x8, addend: 0x0, symName: __ZNSt3__112basic_stringIcNS_11char_traitsIcEENS_9allocatorIcEEEpLB8ue170006ERKS5_, symObjAddr: 0xBE0, symBinAddr: 0x100008350, symSize: 0x30 }
  - { offsetInCU: 0x10448, offset: 0x290B9, size: 0x8, addend: 0x0, symName: __ZNSt3__112basic_stringIcNS_11char_traitsIcEENS_9allocatorIcEEEpLB8ue170006EPKc, symObjAddr: 0xC10, symBinAddr: 0x100008380, symSize: 0x30 }
  - { offsetInCU: 0x1047D, offset: 0x290EE, size: 0x8, addend: 0x0, symName: __ZN10primesieve7isPrimeEl, symObjAddr: 0xD40, symBinAddr: 0x1000084B0, symSize: 0x4A0 }
  - { offsetInCU: 0x105B1, offset: 0x29222, size: 0x8, addend: 0x0, symName: __ZNSt3__16vectorIlNS_9allocatorIlEEE5beginB8ue170006Ev, symObjAddr: 0x1220, symBinAddr: 0x100008990, symSize: 0x30 }
  - { offsetInCU: 0x105D9, offset: 0x2924A, size: 0x8, addend: 0x0, symName: __ZNSt3__16vectorIlNS_9allocatorIlEEE3endB8ue170006Ev, symObjAddr: 0x1250, symBinAddr: 0x1000089C0, symSize: 0x30 }
  - { offsetInCU: 0x10601, offset: 0x29272, size: 0x8, addend: 0x0, symName: __ZNSt3__16vectorIbNS_9allocatorIbEEEC1EmRKb, symObjAddr: 0x1280, symBinAddr: 0x1000089F0, symSize: 0x30 }
  - { offsetInCU: 0x1064B, offset: 0x292BC, size: 0x8, addend: 0x0, symName: __ZNKSt3__111__wrap_iterIPlEdeB8ue170006Ev, symObjAddr: 0x12E0, symBinAddr: 0x100008A50, symSize: 0x20 }
  - { offsetInCU: 0x10671, offset: 0x292E2, size: 0x8, addend: 0x0, symName: __ZNSt3__16vectorIbNS_9allocatorIbEEE2atEm, symObjAddr: 0x1300, symBinAddr: 0x100008A70, symSize: 0x70 }
  - { offsetInCU: 0x106A8, offset: 0x29319, size: 0x8, addend: 0x0, symName: __ZNSt3__115__bit_referenceINS_6vectorIbNS_9allocatorIbEEEELb1EEaSB8ue170006Eb, symObjAddr: 0x1370, symBinAddr: 0x100008AE0, symSize: 0x60 }
  - { offsetInCU: 0x106DC, offset: 0x2934D, size: 0x8, addend: 0x0, symName: __ZNSt3__111__wrap_iterIPlEppB8ue170006Ev, symObjAddr: 0x13D0, symBinAddr: 0x100008B40, symSize: 0x20 }
  - { offsetInCU: 0x10702, offset: 0x29373, size: 0x8, addend: 0x0, symName: __ZNKSt3__115__bit_referenceINS_6vectorIbNS_9allocatorIbEEEELb1EEcvbB8ue170006Ev, symObjAddr: 0x13F0, symBinAddr: 0x100008B60, symSize: 0x30 }
  - { offsetInCU: 0x10728, offset: 0x29399, size: 0x8, addend: 0x0, symName: __ZNSt3__16vectorIlNS_9allocatorIlEEE9push_backB8ue170006EOl, symObjAddr: 0x1420, symBinAddr: 0x100008B90, symSize: 0x60 }
  - { offsetInCU: 0x1075F, offset: 0x293D0, size: 0x8, addend: 0x0, symName: __ZNSt3__16vectorIbNS_9allocatorIbEEED1B8ue170006Ev, symObjAddr: 0x1480, symBinAddr: 0x100008BF0, symSize: 0x20 }
  - { offsetInCU: 0x10789, offset: 0x293FA, size: 0x8, addend: 0x0, symName: __ZN10primesieve11setStepsizeEl, symObjAddr: 0x14A0, symBinAddr: 0x100008C10, symSize: 0x20 }
  - { offsetInCU: 0x107AE, offset: 0x2941F, size: 0x8, addend: 0x0, symName: __ZN10primesieve11knownPrimesEv, symObjAddr: 0x14C0, symBinAddr: 0x100008C30, symSize: 0x10 }
  - { offsetInCU: 0x107C3, offset: 0x29434, size: 0x8, addend: 0x0, symName: __ZlsRNSt3__113basic_ostreamIcNS_11char_traitsIcEEEERNS_4listIiNS_9allocatorIiEEEE, symObjAddr: 0x14D0, symBinAddr: 0x100008C40, symSize: 0x100 }
  - { offsetInCU: 0x1086E, offset: 0x294DF, size: 0x8, addend: 0x0, symName: __ZNSt3__14listIiNS_9allocatorIiEEE5beginB8ue170006Ev, symObjAddr: 0x1610, symBinAddr: 0x100008D40, symSize: 0x30 }
  - { offsetInCU: 0x10894, offset: 0x29505, size: 0x8, addend: 0x0, symName: __ZNSt3__14listIiNS_9allocatorIiEEE3endB8ue170006Ev, symObjAddr: 0x1670, symBinAddr: 0x100008DA0, symSize: 0x30 }
  - { offsetInCU: 0x108BA, offset: 0x2952B, size: 0x8, addend: 0x0, symName: __ZNKSt3__115__list_iteratorIiPvEdeB8ue170006Ev, symObjAddr: 0x16A0, symBinAddr: 0x100008DD0, symSize: 0x30 }
  - { offsetInCU: 0x108E0, offset: 0x29551, size: 0x8, addend: 0x0, symName: __ZNSt3__115__list_iteratorIiPvEppB8ue170006Ei, symObjAddr: 0x1700, symBinAddr: 0x100008E30, symSize: 0x30 }
  - { offsetInCU: 0x10921, offset: 0x29592, size: 0x8, addend: 0x0, symName: __ZNSt3__16vectorIlNS_9allocatorIlEEED2B8ue170006Ev, symObjAddr: 0x1730, symBinAddr: 0x100008E60, symSize: 0x40 }
  - { offsetInCU: 0x1094B, offset: 0x295BC, size: 0x8, addend: 0x0, symName: __ZNSt3__16vectorIlNS_9allocatorIlEEE16__destroy_vectorC1B8ue170006ERS3_, symObjAddr: 0x1770, symBinAddr: 0x100008EA0, symSize: 0x30 }
  - { offsetInCU: 0x10984, offset: 0x295F5, size: 0x8, addend: 0x0, symName: __ZNSt3__16vectorIlNS_9allocatorIlEEE16__destroy_vectorclB8ue170006Ev, symObjAddr: 0x17B0, symBinAddr: 0x100008ED0, symSize: 0x80 }
  - { offsetInCU: 0x109AA, offset: 0x2961B, size: 0x8, addend: 0x0, symName: __ZNSt3__16vectorIlNS_9allocatorIlEEE16__destroy_vectorC2B8ue170006ERS3_, symObjAddr: 0x1830, symBinAddr: 0x100008F50, symSize: 0x20 }
  - { offsetInCU: 0x109E3, offset: 0x29654, size: 0x8, addend: 0x0, symName: __ZNSt3__16vectorIlNS_9allocatorIlEEE7__clearB8ue170006Ev, symObjAddr: 0x1850, symBinAddr: 0x100008F70, symSize: 0x20 }
  - { offsetInCU: 0x10A09, offset: 0x2967A, size: 0x8, addend: 0x0, symName: __ZNKSt3__16vectorIlNS_9allocatorIlEEE17__annotate_deleteB8ue170006Ev, symObjAddr: 0x1870, symBinAddr: 0x100008F90, symSize: 0xB0 }
  - { offsetInCU: 0x10A2F, offset: 0x296A0, size: 0x8, addend: 0x0, symName: __ZNSt3__116allocator_traitsINS_9allocatorIlEEE10deallocateB8ue170006ERS2_Plm, symObjAddr: 0x1920, symBinAddr: 0x100009040, symSize: 0x30 }
  - { offsetInCU: 0x10A71, offset: 0x296E2, size: 0x8, addend: 0x0, symName: __ZNSt3__16vectorIlNS_9allocatorIlEEE7__allocB8ue170006Ev, symObjAddr: 0x1950, symBinAddr: 0x100009070, symSize: 0x20 }
  - { offsetInCU: 0x10A97, offset: 0x29708, size: 0x8, addend: 0x0, symName: __ZNKSt3__16vectorIlNS_9allocatorIlEEE8capacityB8ue170006Ev, symObjAddr: 0x1970, symBinAddr: 0x100009090, symSize: 0x30 }
  - { offsetInCU: 0x10ABD, offset: 0x2972E, size: 0x8, addend: 0x0, symName: __ZNSt3__16vectorIlNS_9allocatorIlEEE22__base_destruct_at_endB8ue170006EPl, symObjAddr: 0x19A0, symBinAddr: 0x1000090C0, symSize: 0x80 }
  - { offsetInCU: 0x10B01, offset: 0x29772, size: 0x8, addend: 0x0, symName: __ZNSt3__116allocator_traitsINS_9allocatorIlEEE7destroyB8ue170006IlvvEEvRS2_PT_, symObjAddr: 0x1A20, symBinAddr: 0x100009140, symSize: 0x20 }
  - { offsetInCU: 0x10B3C, offset: 0x297AD, size: 0x8, addend: 0x0, symName: __ZNKSt3__16vectorIlNS_9allocatorIlEEE31__annotate_contiguous_containerB8ue170006EPKvS5_S5_S5_, symObjAddr: 0x1A80, symBinAddr: 0x1000091A0, symSize: 0x20 }
  - { offsetInCU: 0x10B92, offset: 0x29803, size: 0x8, addend: 0x0, symName: __ZNKSt3__16vectorIlNS_9allocatorIlEEE4dataB8ue170006Ev, symObjAddr: 0x1AA0, symBinAddr: 0x1000091C0, symSize: 0x20 }
  - { offsetInCU: 0x10BB8, offset: 0x29829, size: 0x8, addend: 0x0, symName: __ZNKSt3__16vectorIlNS_9allocatorIlEEE4sizeB8ue170006Ev, symObjAddr: 0x1AC0, symBinAddr: 0x1000091E0, symSize: 0x20 }
  - { offsetInCU: 0x10BDE, offset: 0x2984F, size: 0x8, addend: 0x0, symName: __ZNSt3__19allocatorIlE10deallocateB8ue170006EPlm, symObjAddr: 0x1AE0, symBinAddr: 0x100009200, symSize: 0x40 }
  - { offsetInCU: 0x10C20, offset: 0x29891, size: 0x8, addend: 0x0, symName: __ZNSt3__117__compressed_pairIPlNS_9allocatorIlEEE6secondB8ue170006Ev, symObjAddr: 0x1C40, symBinAddr: 0x100009240, symSize: 0x20 }
  - { offsetInCU: 0x10C46, offset: 0x298B7, size: 0x8, addend: 0x0, symName: __ZNSt3__122__compressed_pair_elemINS_9allocatorIlEELi1ELb1EE5__getB8ue170006Ev, symObjAddr: 0x1C60, symBinAddr: 0x100009260, symSize: 0x10 }
  - { offsetInCU: 0x10C6C, offset: 0x298DD, size: 0x8, addend: 0x0, symName: __ZNKSt3__16vectorIlNS_9allocatorIlEEE9__end_capB8ue170006Ev, symObjAddr: 0x1C70, symBinAddr: 0x100009270, symSize: 0x20 }
  - { offsetInCU: 0x10C92, offset: 0x29903, size: 0x8, addend: 0x0, symName: __ZNKSt3__117__compressed_pairIPlNS_9allocatorIlEEE5firstB8ue170006Ev, symObjAddr: 0x1C90, symBinAddr: 0x100009290, symSize: 0x20 }
  - { offsetInCU: 0x10CB8, offset: 0x29929, size: 0x8, addend: 0x0, symName: __ZNKSt3__122__compressed_pair_elemIPlLi0ELb0EE5__getB8ue170006Ev, symObjAddr: 0x1CB0, symBinAddr: 0x1000092B0, symSize: 0x10 }
  - { offsetInCU: 0x10CDE, offset: 0x2994F, size: 0x8, addend: 0x0, symName: __ZNSt3__16vectorINS_4pairIllEENS_9allocatorIS2_EEEC2B8ue170006Ev, symObjAddr: 0x1CC0, symBinAddr: 0x1000092C0, symSize: 0x50 }
  - { offsetInCU: 0x10D14, offset: 0x29985, size: 0x8, addend: 0x0, symName: __ZNSt3__117__compressed_pairIPNS_4pairIllEENS_9allocatorIS2_EEEC1B8ue170006IDnNS_18__default_init_tagEEEOT_OT0_, symObjAddr: 0x1D10, symBinAddr: 0x100009310, symSize: 0x30 }
  - { offsetInCU: 0x10D6C, offset: 0x299DD, size: 0x8, addend: 0x0, symName: __ZNSt3__117__compressed_pairIPNS_4pairIllEENS_9allocatorIS2_EEEC2B8ue170006IDnNS_18__default_init_tagEEEOT_OT0_, symObjAddr: 0x1D40, symBinAddr: 0x100009340, symSize: 0x40 }
  - { offsetInCU: 0x10DC4, offset: 0x29A35, size: 0x8, addend: 0x0, symName: __ZNSt3__122__compressed_pair_elemIPNS_4pairIllEELi0ELb0EEC2B8ue170006IDnvEEOT_, symObjAddr: 0x1D80, symBinAddr: 0x100009380, symSize: 0x20 }
  - { offsetInCU: 0x10E06, offset: 0x29A77, size: 0x8, addend: 0x0, symName: __ZNSt3__122__compressed_pair_elemINS_9allocatorINS_4pairIllEEEELi1ELb1EEC2B8ue170006ENS_18__default_init_tagE, symObjAddr: 0x1DA0, symBinAddr: 0x1000093A0, symSize: 0x20 }
  - { offsetInCU: 0x10E3A, offset: 0x29AAB, size: 0x8, addend: 0x0, symName: __ZNSt3__19allocatorINS_4pairIllEEEC2B8ue170006Ev, symObjAddr: 0x1DC0, symBinAddr: 0x1000093C0, symSize: 0x20 }
  - { offsetInCU: 0x10E64, offset: 0x29AD5, size: 0x8, addend: 0x0, symName: __ZNSt3__116__non_trivial_ifILb1ENS_9allocatorINS_4pairIllEEEEEC2B8ue170006Ev, symObjAddr: 0x1DE0, symBinAddr: 0x1000093E0, symSize: 0x10 }
  - { offsetInCU: 0x10E8E, offset: 0x29AFF, size: 0x8, addend: 0x0, symName: __ZNSt3__14pairIllEC2B8ue170006IiiLPv0EEEOT_OT0_, symObjAddr: 0x1DF0, symBinAddr: 0x1000093F0, symSize: 0x30 }
  - { offsetInCU: 0x10EEC, offset: 0x29B5D, size: 0x8, addend: 0x0, symName: __ZNSt3__16vectorINS_4pairIllEENS_9allocatorIS2_EEEC2B8ue170006ESt16initializer_listIS2_E, symObjAddr: 0x1E20, symBinAddr: 0x100009420, symSize: 0x110 }
  - { offsetInCU: 0x10F3C, offset: 0x29BAD, size: 0x8, addend: 0x0, symName: __ZNSt3__16vectorINS_4pairIllEENS_9allocatorIS2_EEE16__destroy_vectorC1B8ue170006ERS5_, symObjAddr: 0x1F70, symBinAddr: 0x100009570, symSize: 0x30 }
  - { offsetInCU: 0x10F75, offset: 0x29BE6, size: 0x8, addend: 0x0, symName: __ZNKSt16initializer_listINSt3__14pairIllEEE4sizeB8ue170006Ev, symObjAddr: 0x1FA0, symBinAddr: 0x1000095A0, symSize: 0x20 }
  - { offsetInCU: 0x10F9B, offset: 0x29C0C, size: 0x8, addend: 0x0, symName: __ZNSt3__16vectorINS_4pairIllEENS_9allocatorIS2_EEE11__vallocateB8ue170006Em, symObjAddr: 0x1FC0, symBinAddr: 0x1000095C0, symSize: 0xA0 }
  - { offsetInCU: 0x10FDF, offset: 0x29C50, size: 0x8, addend: 0x0, symName: __ZNSt3__16vectorINS_4pairIllEENS_9allocatorIS2_EEE18__construct_at_endIPKS2_S8_EEvT_T0_m, symObjAddr: 0x2060, symBinAddr: 0x100009660, symSize: 0x90 }
  - { offsetInCU: 0x11055, offset: 0x29CC6, size: 0x8, addend: 0x0, symName: __ZNKSt16initializer_listINSt3__14pairIllEEE5beginB8ue170006Ev, symObjAddr: 0x20F0, symBinAddr: 0x1000096F0, symSize: 0x20 }
  - { offsetInCU: 0x1107B, offset: 0x29CEC, size: 0x8, addend: 0x0, symName: __ZNKSt16initializer_listINSt3__14pairIllEEE3endB8ue170006Ev, symObjAddr: 0x2110, symBinAddr: 0x100009710, symSize: 0x20 }
  - { offsetInCU: 0x110A1, offset: 0x29D12, size: 0x8, addend: 0x0, symName: __ZNSt3__128__exception_guard_exceptionsINS_6vectorINS_4pairIllEENS_9allocatorIS3_EEE16__destroy_vectorEE10__completeB8ue170006Ev, symObjAddr: 0x2130, symBinAddr: 0x100009730, symSize: 0x20 }
  - { offsetInCU: 0x110C7, offset: 0x29D38, size: 0x8, addend: 0x0, symName: __ZNSt3__128__exception_guard_exceptionsINS_6vectorINS_4pairIllEENS_9allocatorIS3_EEE16__destroy_vectorEED1B8ue170006Ev, symObjAddr: 0x2150, symBinAddr: 0x100009750, symSize: 0x20 }
  - { offsetInCU: 0x110F1, offset: 0x29D62, size: 0x8, addend: 0x0, symName: __ZNSt3__128__exception_guard_exceptionsINS_6vectorINS_4pairIllEENS_9allocatorIS3_EEE16__destroy_vectorEEC1B8ue170006ES7_, symObjAddr: 0x2170, symBinAddr: 0x100009770, symSize: 0x30 }
  - { offsetInCU: 0x11129, offset: 0x29D9A, size: 0x8, addend: 0x0, symName: __ZNSt3__128__exception_guard_exceptionsINS_6vectorINS_4pairIllEENS_9allocatorIS3_EEE16__destroy_vectorEEC2B8ue170006ES7_, symObjAddr: 0x21A0, symBinAddr: 0x1000097A0, symSize: 0x20 }
  - { offsetInCU: 0x11161, offset: 0x29DD2, size: 0x8, addend: 0x0, symName: __ZNSt3__16vectorINS_4pairIllEENS_9allocatorIS2_EEE16__destroy_vectorC2B8ue170006ERS5_, symObjAddr: 0x21C0, symBinAddr: 0x1000097C0, symSize: 0x20 }
  - { offsetInCU: 0x1119A, offset: 0x29E0B, size: 0x8, addend: 0x0, symName: __ZNKSt3__16vectorINS_4pairIllEENS_9allocatorIS2_EEE8max_sizeEv, symObjAddr: 0x21E0, symBinAddr: 0x1000097E0, symSize: 0x60 }
  - { offsetInCU: 0x111C2, offset: 0x29E33, size: 0x8, addend: 0x0, symName: __ZNKSt3__16vectorINS_4pairIllEENS_9allocatorIS2_EEE20__throw_length_errorB8ue170006Ev, symObjAddr: 0x2240, symBinAddr: 0x100009840, symSize: 0x20 }
  - { offsetInCU: 0x111E8, offset: 0x29E59, size: 0x8, addend: 0x0, symName: __ZNSt3__16vectorINS_4pairIllEENS_9allocatorIS2_EEE7__allocB8ue170006Ev, symObjAddr: 0x22A0, symBinAddr: 0x1000098A0, symSize: 0x20 }
  - { offsetInCU: 0x1120E, offset: 0x29E7F, size: 0x8, addend: 0x0, symName: __ZNSt3__16vectorINS_4pairIllEENS_9allocatorIS2_EEE9__end_capB8ue170006Ev, symObjAddr: 0x22C0, symBinAddr: 0x1000098C0, symSize: 0x20 }
  - { offsetInCU: 0x11234, offset: 0x29EA5, size: 0x8, addend: 0x0, symName: __ZNKSt3__16vectorINS_4pairIllEENS_9allocatorIS2_EEE14__annotate_newB8ue170006Em, symObjAddr: 0x22E0, symBinAddr: 0x1000098E0, symSize: 0xB0 }
  - { offsetInCU: 0x11274, offset: 0x29EE5, size: 0x8, addend: 0x0, symName: __ZNSt3__116allocator_traitsINS_9allocatorINS_4pairIllEEEEE8max_sizeB8ue170006IS4_vvEEmRKS4_, symObjAddr: 0x23C0, symBinAddr: 0x1000099C0, symSize: 0x20 }
  - { offsetInCU: 0x112A0, offset: 0x29F11, size: 0x8, addend: 0x0, symName: __ZNKSt3__16vectorINS_4pairIllEENS_9allocatorIS2_EEE7__allocB8ue170006Ev, symObjAddr: 0x23E0, symBinAddr: 0x1000099E0, symSize: 0x20 }
  - { offsetInCU: 0x112C6, offset: 0x29F37, size: 0x8, addend: 0x0, symName: __ZNSt3__114numeric_limitsIlE3maxB8ue170006Ev, symObjAddr: 0x2400, symBinAddr: 0x100009A00, symSize: 0x10 }
  - { offsetInCU: 0x112E4, offset: 0x29F55, size: 0x8, addend: 0x0, symName: __ZNKSt3__16__lessIvvEclB8ue170006ImmEEbRKT_RKT0_, symObjAddr: 0x2460, symBinAddr: 0x100009A60, symSize: 0x30 }
  - { offsetInCU: 0x11338, offset: 0x29FA9, size: 0x8, addend: 0x0, symName: __ZNKSt3__117__compressed_pairIPNS_4pairIllEENS_9allocatorIS2_EEE6secondB8ue170006Ev, symObjAddr: 0x24B0, symBinAddr: 0x100009A90, symSize: 0x20 }
  - { offsetInCU: 0x1135E, offset: 0x29FCF, size: 0x8, addend: 0x0, symName: __ZNKSt3__122__compressed_pair_elemINS_9allocatorINS_4pairIllEEEELi1ELb1EE5__getB8ue170006Ev, symObjAddr: 0x24D0, symBinAddr: 0x100009AB0, symSize: 0x10 }
  - { offsetInCU: 0x11384, offset: 0x29FF5, size: 0x8, addend: 0x0, symName: __ZNSt3__123__libcpp_numeric_limitsIlLb1EE3maxB8ue170006Ev, symObjAddr: 0x24E0, symBinAddr: 0x100009AC0, symSize: 0x10 }
  - { offsetInCU: 0x11398, offset: 0x2A009, size: 0x8, addend: 0x0, symName: __ZNSt12length_errorC1B8ue170006EPKc, symObjAddr: 0x2560, symBinAddr: 0x100009B40, symSize: 0x30 }
  - { offsetInCU: 0x113D0, offset: 0x2A041, size: 0x8, addend: 0x0, symName: __ZNSt12length_errorC2B8ue170006EPKc, symObjAddr: 0x2590, symBinAddr: 0x100009B70, symSize: 0x40 }
  - { offsetInCU: 0x11408, offset: 0x2A079, size: 0x8, addend: 0x0, symName: __ZNSt3__19allocatorINS_4pairIllEEE17allocate_at_leastB8ue170006Em, symObjAddr: 0x2610, symBinAddr: 0x100009BF0, symSize: 0x40 }
  - { offsetInCU: 0x1143C, offset: 0x2A0AD, size: 0x8, addend: 0x0, symName: __ZNSt3__19allocatorINS_4pairIllEEE8allocateB8ue170006Em, symObjAddr: 0x2650, symBinAddr: 0x100009C30, symSize: 0x50 }
  - { offsetInCU: 0x11470, offset: 0x2A0E1, size: 0x8, addend: 0x0, symName: __ZNSt3__117__compressed_pairIPNS_4pairIllEENS_9allocatorIS2_EEE6secondB8ue170006Ev, symObjAddr: 0x2790, symBinAddr: 0x100009C80, symSize: 0x20 }
  - { offsetInCU: 0x11496, offset: 0x2A107, size: 0x8, addend: 0x0, symName: __ZNSt3__122__compressed_pair_elemINS_9allocatorINS_4pairIllEEEELi1ELb1EE5__getB8ue170006Ev, symObjAddr: 0x27B0, symBinAddr: 0x100009CA0, symSize: 0x10 }
  - { offsetInCU: 0x114BC, offset: 0x2A12D, size: 0x8, addend: 0x0, symName: __ZNSt3__117__compressed_pairIPNS_4pairIllEENS_9allocatorIS2_EEE5firstB8ue170006Ev, symObjAddr: 0x27C0, symBinAddr: 0x100009CB0, symSize: 0x20 }
  - { offsetInCU: 0x114E2, offset: 0x2A153, size: 0x8, addend: 0x0, symName: __ZNSt3__122__compressed_pair_elemIPNS_4pairIllEELi0ELb0EE5__getB8ue170006Ev, symObjAddr: 0x27E0, symBinAddr: 0x100009CD0, symSize: 0x10 }
  - { offsetInCU: 0x11508, offset: 0x2A179, size: 0x8, addend: 0x0, symName: __ZNKSt3__16vectorINS_4pairIllEENS_9allocatorIS2_EEE31__annotate_contiguous_containerB8ue170006EPKvS7_S7_S7_, symObjAddr: 0x27F0, symBinAddr: 0x100009CE0, symSize: 0x20 }
  - { offsetInCU: 0x1155E, offset: 0x2A1CF, size: 0x8, addend: 0x0, symName: __ZNKSt3__16vectorINS_4pairIllEENS_9allocatorIS2_EEE4dataB8ue170006Ev, symObjAddr: 0x2810, symBinAddr: 0x100009D00, symSize: 0x20 }
  - { offsetInCU: 0x11584, offset: 0x2A1F5, size: 0x8, addend: 0x0, symName: __ZNKSt3__16vectorINS_4pairIllEENS_9allocatorIS2_EEE8capacityB8ue170006Ev, symObjAddr: 0x2830, symBinAddr: 0x100009D20, symSize: 0x30 }
  - { offsetInCU: 0x115AA, offset: 0x2A21B, size: 0x8, addend: 0x0, symName: __ZNKSt3__16vectorINS_4pairIllEENS_9allocatorIS2_EEE9__end_capB8ue170006Ev, symObjAddr: 0x2870, symBinAddr: 0x100009D60, symSize: 0x20 }
  - { offsetInCU: 0x115D0, offset: 0x2A241, size: 0x8, addend: 0x0, symName: __ZNKSt3__117__compressed_pairIPNS_4pairIllEENS_9allocatorIS2_EEE5firstB8ue170006Ev, symObjAddr: 0x2890, symBinAddr: 0x100009D80, symSize: 0x20 }
  - { offsetInCU: 0x115F6, offset: 0x2A267, size: 0x8, addend: 0x0, symName: __ZNKSt3__122__compressed_pair_elemIPNS_4pairIllEELi0ELb0EE5__getB8ue170006Ev, symObjAddr: 0x28B0, symBinAddr: 0x100009DA0, symSize: 0x10 }
  - { offsetInCU: 0x11637, offset: 0x2A2A8, size: 0x8, addend: 0x0, symName: __ZNSt3__16vectorINS_4pairIllEENS_9allocatorIS2_EEE21_ConstructTransactionC1B8ue170006ERS5_m, symObjAddr: 0x28C0, symBinAddr: 0x100009DB0, symSize: 0x30 }
  - { offsetInCU: 0x1167F, offset: 0x2A2F0, size: 0x8, addend: 0x0, symName: __ZNSt3__16vectorINS_4pairIllEENS_9allocatorIS2_EEE21_ConstructTransactionD1B8ue170006Ev, symObjAddr: 0x2970, symBinAddr: 0x100009E60, symSize: 0x20 }
  - { offsetInCU: 0x116A9, offset: 0x2A31A, size: 0x8, addend: 0x0, symName: __ZNSt3__16vectorINS_4pairIllEENS_9allocatorIS2_EEE21_ConstructTransactionC2B8ue170006ERS5_m, symObjAddr: 0x2990, symBinAddr: 0x100009E80, symSize: 0x40 }
  - { offsetInCU: 0x11712, offset: 0x2A383, size: 0x8, addend: 0x0, symName: __ZNSt3__119__unwrap_range_implIPKNS_4pairIllEES4_E8__unwrapB8ue170006ES4_S4_, symObjAddr: 0x2B70, symBinAddr: 0x10000A060, symSize: 0x50 }
  - { offsetInCU: 0x11749, offset: 0x2A3BA, size: 0x8, addend: 0x0, symName: __ZNSt3__14pairIPKNS0_IllEES3_EC1B8ue170006IS3_S3_LPv0EEEOT_OT0_, symObjAddr: 0x2BE0, symBinAddr: 0x10000A0D0, symSize: 0x30 }
  - { offsetInCU: 0x117A7, offset: 0x2A418, size: 0x8, addend: 0x0, symName: __ZNSt3__118__unwrap_iter_implIPKNS_4pairIllEELb1EE8__unwrapB8ue170006ES4_, symObjAddr: 0x2C10, symBinAddr: 0x10000A100, symSize: 0x20 }
  - { offsetInCU: 0x117CA, offset: 0x2A43B, size: 0x8, addend: 0x0, symName: __ZNSt3__14pairIPKNS0_IllEES3_EC2B8ue170006IS3_S3_LPv0EEEOT_OT0_, symObjAddr: 0x2C40, symBinAddr: 0x10000A130, symSize: 0x30 }
  - { offsetInCU: 0x11828, offset: 0x2A499, size: 0x8, addend: 0x0, symName: __ZNSt3__129_AllocatorDestroyRangeReverseINS_9allocatorINS_4pairIllEEEEPS3_EC1B8ue170006ERS4_RS5_S8_, symObjAddr: 0x2CD0, symBinAddr: 0x10000A1C0, symSize: 0x40 }
  - { offsetInCU: 0x1187F, offset: 0x2A4F0, size: 0x8, addend: 0x0, symName: __ZNSt3__116allocator_traitsINS_9allocatorINS_4pairIllEEEEE9constructB8ue170006IS3_JRKS3_EvvEEvRS4_PT_DpOT0_, symObjAddr: 0x2D10, symBinAddr: 0x10000A200, symSize: 0x30 }
  - { offsetInCU: 0x118D4, offset: 0x2A545, size: 0x8, addend: 0x0, symName: __ZNSt3__128__exception_guard_exceptionsINS_29_AllocatorDestroyRangeReverseINS_9allocatorINS_4pairIllEEEEPS4_EEE10__completeB8ue170006Ev, symObjAddr: 0x2D40, symBinAddr: 0x10000A230, symSize: 0x20 }
  - { offsetInCU: 0x118FA, offset: 0x2A56B, size: 0x8, addend: 0x0, symName: __ZNSt3__128__exception_guard_exceptionsINS_29_AllocatorDestroyRangeReverseINS_9allocatorINS_4pairIllEEEEPS4_EEED1B8ue170006Ev, symObjAddr: 0x2D60, symBinAddr: 0x10000A250, symSize: 0x20 }
  - { offsetInCU: 0x11924, offset: 0x2A595, size: 0x8, addend: 0x0, symName: __ZNSt3__128__exception_guard_exceptionsINS_29_AllocatorDestroyRangeReverseINS_9allocatorINS_4pairIllEEEEPS4_EEEC1B8ue170006ES7_, symObjAddr: 0x2D80, symBinAddr: 0x10000A270, symSize: 0x40 }
  - { offsetInCU: 0x1195C, offset: 0x2A5CD, size: 0x8, addend: 0x0, symName: __ZNSt3__128__exception_guard_exceptionsINS_29_AllocatorDestroyRangeReverseINS_9allocatorINS_4pairIllEEEEPS4_EEEC2B8ue170006ES7_, symObjAddr: 0x2DC0, symBinAddr: 0x10000A2B0, symSize: 0x30 }
  - { offsetInCU: 0x11994, offset: 0x2A605, size: 0x8, addend: 0x0, symName: __ZNSt3__129_AllocatorDestroyRangeReverseINS_9allocatorINS_4pairIllEEEEPS3_EC2B8ue170006ERS4_RS5_S8_, symObjAddr: 0x2DF0, symBinAddr: 0x10000A2E0, symSize: 0x40 }
  - { offsetInCU: 0x119EB, offset: 0x2A65C, size: 0x8, addend: 0x0, symName: __ZNSt3__128__exception_guard_exceptionsINS_29_AllocatorDestroyRangeReverseINS_9allocatorINS_4pairIllEEEEPS4_EEED2B8ue170006Ev, symObjAddr: 0x2E60, symBinAddr: 0x10000A350, symSize: 0x40 }
  - { offsetInCU: 0x11A15, offset: 0x2A686, size: 0x8, addend: 0x0, symName: __ZNKSt3__129_AllocatorDestroyRangeReverseINS_9allocatorINS_4pairIllEEEEPS3_EclB8ue170006Ev, symObjAddr: 0x2EA0, symBinAddr: 0x10000A390, symSize: 0x60 }
  - { offsetInCU: 0x11A3B, offset: 0x2A6AC, size: 0x8, addend: 0x0, symName: __ZNSt3__116reverse_iteratorIPNS_4pairIllEEEC1B8ue170006ES3_, symObjAddr: 0x2F70, symBinAddr: 0x10000A460, symSize: 0x30 }
  - { offsetInCU: 0x11A73, offset: 0x2A6E4, size: 0x8, addend: 0x0, symName: __ZNSt3__116allocator_traitsINS_9allocatorINS_4pairIllEEEEE7destroyB8ue170006IS3_vvEEvRS4_PT_, symObjAddr: 0x2FE0, symBinAddr: 0x10000A4D0, symSize: 0x20 }
  - { offsetInCU: 0x11AAE, offset: 0x2A71F, size: 0x8, addend: 0x0, symName: __ZNSt3__116reverse_iteratorIPNS_4pairIllEEEppB8ue170006Ev, symObjAddr: 0x3020, symBinAddr: 0x10000A510, symSize: 0x20 }
  - { offsetInCU: 0x11AD4, offset: 0x2A745, size: 0x8, addend: 0x0, symName: __ZNKSt3__116reverse_iteratorIPNS_4pairIllEEE4baseB8ue170006Ev, symObjAddr: 0x3040, symBinAddr: 0x10000A530, symSize: 0x20 }
  - { offsetInCU: 0x11B00, offset: 0x2A771, size: 0x8, addend: 0x0, symName: __ZNSt3__119__to_address_helperINS_16reverse_iteratorIPNS_4pairIllEEEEvE6__callB8ue170006ERKS5_, symObjAddr: 0x3090, symBinAddr: 0x10000A580, symSize: 0x40 }
  - { offsetInCU: 0x11B23, offset: 0x2A794, size: 0x8, addend: 0x0, symName: __ZNKSt3__116reverse_iteratorIPNS_4pairIllEEEptB8ue170006Ev, symObjAddr: 0x30D0, symBinAddr: 0x10000A5C0, symSize: 0x30 }
  - { offsetInCU: 0x11B49, offset: 0x2A7BA, size: 0x8, addend: 0x0, symName: __ZNSt3__116reverse_iteratorIPNS_4pairIllEEEC2B8ue170006ES3_, symObjAddr: 0x3190, symBinAddr: 0x10000A670, symSize: 0x30 }
  - { offsetInCU: 0x11B81, offset: 0x2A7F2, size: 0x8, addend: 0x0, symName: __ZNSt3__118__unwrap_iter_implIPNS_4pairIllEELb1EE8__unwrapB8ue170006ES3_, symObjAddr: 0x31C0, symBinAddr: 0x10000A6A0, symSize: 0x20 }
  - { offsetInCU: 0x11BA4, offset: 0x2A815, size: 0x8, addend: 0x0, symName: __ZNSt3__118__unwrap_iter_implIPNS_4pairIllEELb1EE8__rewrapB8ue170006ES3_S3_, symObjAddr: 0x31E0, symBinAddr: 0x10000A6C0, symSize: 0x50 }
  - { offsetInCU: 0x11BD5, offset: 0x2A846, size: 0x8, addend: 0x0, symName: __ZNSt3__16vectorINS_4pairIllEENS_9allocatorIS2_EEE21_ConstructTransactionD2B8ue170006Ev, symObjAddr: 0x3230, symBinAddr: 0x10000A710, symSize: 0x20 }
  - { offsetInCU: 0x11BFF, offset: 0x2A870, size: 0x8, addend: 0x0, symName: __ZNSt3__128__exception_guard_exceptionsINS_6vectorINS_4pairIllEENS_9allocatorIS3_EEE16__destroy_vectorEED2B8ue170006Ev, symObjAddr: 0x3250, symBinAddr: 0x10000A730, symSize: 0x40 }
  - { offsetInCU: 0x11C29, offset: 0x2A89A, size: 0x8, addend: 0x0, symName: __ZNSt3__16vectorINS_4pairIllEENS_9allocatorIS2_EEE16__destroy_vectorclB8ue170006Ev, symObjAddr: 0x3290, symBinAddr: 0x10000A770, symSize: 0x80 }
  - { offsetInCU: 0x11C4F, offset: 0x2A8C0, size: 0x8, addend: 0x0, symName: __ZNSt3__16vectorINS_4pairIllEENS_9allocatorIS2_EEE7__clearB8ue170006Ev, symObjAddr: 0x3310, symBinAddr: 0x10000A7F0, symSize: 0x20 }
  - { offsetInCU: 0x11C75, offset: 0x2A8E6, size: 0x8, addend: 0x0, symName: __ZNKSt3__16vectorINS_4pairIllEENS_9allocatorIS2_EEE17__annotate_deleteB8ue170006Ev, symObjAddr: 0x3330, symBinAddr: 0x10000A810, symSize: 0xB0 }
  - { offsetInCU: 0x11C9B, offset: 0x2A90C, size: 0x8, addend: 0x0, symName: __ZNSt3__116allocator_traitsINS_9allocatorINS_4pairIllEEEEE10deallocateB8ue170006ERS4_PS3_m, symObjAddr: 0x33E0, symBinAddr: 0x10000A8C0, symSize: 0x30 }
  - { offsetInCU: 0x11CDD, offset: 0x2A94E, size: 0x8, addend: 0x0, symName: __ZNSt3__16vectorINS_4pairIllEENS_9allocatorIS2_EEE22__base_destruct_at_endB8ue170006EPS2_, symObjAddr: 0x3410, symBinAddr: 0x10000A8F0, symSize: 0x80 }
  - { offsetInCU: 0x11D21, offset: 0x2A992, size: 0x8, addend: 0x0, symName: __ZNSt3__19allocatorINS_4pairIllEEE10deallocateB8ue170006EPS2_m, symObjAddr: 0x3490, symBinAddr: 0x10000A970, symSize: 0x40 }
  - { offsetInCU: 0x11D63, offset: 0x2A9D4, size: 0x8, addend: 0x0, symName: __ZNSt3__16vectorINS_4pairIllEENS_9allocatorIS2_EEE22__construct_one_at_endB8ue170006IJS2_EEEvDpOT_, symObjAddr: 0x34D0, symBinAddr: 0x10000A9B0, symSize: 0x90 }
  - { offsetInCU: 0x11DB2, offset: 0x2AA23, size: 0x8, addend: 0x0, symName: __ZNSt3__16vectorINS_4pairIllEENS_9allocatorIS2_EEE21__push_back_slow_pathIS2_EEvOT_, symObjAddr: 0x3560, symBinAddr: 0x10000AA40, symSize: 0xD0 }
  - { offsetInCU: 0x11E10, offset: 0x2AA81, size: 0x8, addend: 0x0, symName: __ZNSt3__116allocator_traitsINS_9allocatorINS_4pairIllEEEEE9constructB8ue170006IS3_JS3_EvvEEvRS4_PT_DpOT0_, symObjAddr: 0x3630, symBinAddr: 0x10000AB10, symSize: 0x30 }
  - { offsetInCU: 0x11E65, offset: 0x2AAD6, size: 0x8, addend: 0x0, symName: __ZNKSt3__16vectorINS_4pairIllEENS_9allocatorIS2_EEE11__recommendB8ue170006Em, symObjAddr: 0x3690, symBinAddr: 0x10000AB70, symSize: 0xA0 }
  - { offsetInCU: 0x11EBA, offset: 0x2AB2B, size: 0x8, addend: 0x0, symName: __ZNSt3__114__split_bufferINS_4pairIllEERNS_9allocatorIS2_EEEC1EmmS5_, symObjAddr: 0x3730, symBinAddr: 0x10000AC10, symSize: 0x40 }
  - { offsetInCU: 0x11F10, offset: 0x2AB81, size: 0x8, addend: 0x0, symName: __ZNSt3__114__split_bufferINS_4pairIllEERNS_9allocatorIS2_EEED1Ev, symObjAddr: 0x3890, symBinAddr: 0x10000AD70, symSize: 0x20 }
  - { offsetInCU: 0x11F3C, offset: 0x2ABAD, size: 0x8, addend: 0x0, symName: __ZNSt3__114__split_bufferINS_4pairIllEERNS_9allocatorIS2_EEEC2EmmS5_, symObjAddr: 0x3930, symBinAddr: 0x10000AE10, symSize: 0xD0 }
  - { offsetInCU: 0x11FAF, offset: 0x2AC20, size: 0x8, addend: 0x0, symName: __ZNSt3__117__compressed_pairIPNS_4pairIllEERNS_9allocatorIS2_EEEC1B8ue170006IDnS6_EEOT_OT0_, symObjAddr: 0x3A00, symBinAddr: 0x10000AEE0, symSize: 0x30 }
  - { offsetInCU: 0x12007, offset: 0x2AC78, size: 0x8, addend: 0x0, symName: __ZNSt3__114__split_bufferINS_4pairIllEERNS_9allocatorIS2_EEE7__allocB8ue170006Ev, symObjAddr: 0x3A30, symBinAddr: 0x10000AF10, symSize: 0x20 }
  - { offsetInCU: 0x1202D, offset: 0x2AC9E, size: 0x8, addend: 0x0, symName: __ZNSt3__114__split_bufferINS_4pairIllEERNS_9allocatorIS2_EEE9__end_capB8ue170006Ev, symObjAddr: 0x3A50, symBinAddr: 0x10000AF30, symSize: 0x20 }
  - { offsetInCU: 0x12053, offset: 0x2ACC4, size: 0x8, addend: 0x0, symName: __ZNSt3__117__compressed_pairIPNS_4pairIllEERNS_9allocatorIS2_EEEC2B8ue170006IDnS6_EEOT_OT0_, symObjAddr: 0x3A70, symBinAddr: 0x10000AF50, symSize: 0x40 }
  - { offsetInCU: 0x120AB, offset: 0x2AD1C, size: 0x8, addend: 0x0, symName: __ZNSt3__122__compressed_pair_elemIRNS_9allocatorINS_4pairIllEEEELi1ELb0EEC2B8ue170006IS5_vEEOT_, symObjAddr: 0x3AB0, symBinAddr: 0x10000AF90, symSize: 0x20 }
  - { offsetInCU: 0x120ED, offset: 0x2AD5E, size: 0x8, addend: 0x0, symName: __ZNSt3__117__compressed_pairIPNS_4pairIllEERNS_9allocatorIS2_EEE6secondB8ue170006Ev, symObjAddr: 0x3AD0, symBinAddr: 0x10000AFB0, symSize: 0x20 }
  - { offsetInCU: 0x12113, offset: 0x2AD84, size: 0x8, addend: 0x0, symName: __ZNSt3__122__compressed_pair_elemIRNS_9allocatorINS_4pairIllEEEELi1ELb0EE5__getB8ue170006Ev, symObjAddr: 0x3AF0, symBinAddr: 0x10000AFD0, symSize: 0x20 }
  - { offsetInCU: 0x12139, offset: 0x2ADAA, size: 0x8, addend: 0x0, symName: __ZNSt3__117__compressed_pairIPNS_4pairIllEERNS_9allocatorIS2_EEE5firstB8ue170006Ev, symObjAddr: 0x3B10, symBinAddr: 0x10000AFF0, symSize: 0x20 }
  - { offsetInCU: 0x1215F, offset: 0x2ADD0, size: 0x8, addend: 0x0, symName: __ZNSt3__129_AllocatorDestroyRangeReverseINS_9allocatorINS_4pairIllEEEENS_16reverse_iteratorIPS3_EEEC1B8ue170006ERS4_RS7_SA_, symObjAddr: 0x3D50, symBinAddr: 0x10000B230, symSize: 0x40 }
  - { offsetInCU: 0x121B6, offset: 0x2AE27, size: 0x8, addend: 0x0, symName: __ZNKSt3__116reverse_iteratorIPNS_4pairIllEEEdeB8ue170006Ev, symObjAddr: 0x3D90, symBinAddr: 0x10000B270, symSize: 0x30 }
  - { offsetInCU: 0x121EA, offset: 0x2AE5B, size: 0x8, addend: 0x0, symName: __ZNSt3__128__exception_guard_exceptionsINS_29_AllocatorDestroyRangeReverseINS_9allocatorINS_4pairIllEEEENS_16reverse_iteratorIPS4_EEEEE10__completeB8ue170006Ev, symObjAddr: 0x3DC0, symBinAddr: 0x10000B2A0, symSize: 0x20 }
  - { offsetInCU: 0x12210, offset: 0x2AE81, size: 0x8, addend: 0x0, symName: __ZNSt3__128__exception_guard_exceptionsINS_29_AllocatorDestroyRangeReverseINS_9allocatorINS_4pairIllEEEENS_16reverse_iteratorIPS4_EEEEED1B8ue170006Ev, symObjAddr: 0x3DE0, symBinAddr: 0x10000B2C0, symSize: 0x20 }
  - { offsetInCU: 0x1223A, offset: 0x2AEAB, size: 0x8, addend: 0x0, symName: __ZNSt3__128__exception_guard_exceptionsINS_29_AllocatorDestroyRangeReverseINS_9allocatorINS_4pairIllEEEENS_16reverse_iteratorIPS4_EEEEEC1B8ue170006ES9_, symObjAddr: 0x3E00, symBinAddr: 0x10000B2E0, symSize: 0x40 }
  - { offsetInCU: 0x12272, offset: 0x2AEE3, size: 0x8, addend: 0x0, symName: __ZNSt3__128__exception_guard_exceptionsINS_29_AllocatorDestroyRangeReverseINS_9allocatorINS_4pairIllEEEENS_16reverse_iteratorIPS4_EEEEEC2B8ue170006ES9_, symObjAddr: 0x3E40, symBinAddr: 0x10000B320, symSize: 0x30 }
  - { offsetInCU: 0x122AA, offset: 0x2AF1B, size: 0x8, addend: 0x0, symName: __ZNSt3__129_AllocatorDestroyRangeReverseINS_9allocatorINS_4pairIllEEEENS_16reverse_iteratorIPS3_EEEC2B8ue170006ERS4_RS7_SA_, symObjAddr: 0x3E70, symBinAddr: 0x10000B350, symSize: 0x40 }
  - { offsetInCU: 0x12301, offset: 0x2AF72, size: 0x8, addend: 0x0, symName: __ZNSt3__128__exception_guard_exceptionsINS_29_AllocatorDestroyRangeReverseINS_9allocatorINS_4pairIllEEEENS_16reverse_iteratorIPS4_EEEEED2B8ue170006Ev, symObjAddr: 0x3EB0, symBinAddr: 0x10000B390, symSize: 0x40 }
  - { offsetInCU: 0x1232B, offset: 0x2AF9C, size: 0x8, addend: 0x0, symName: __ZNKSt3__129_AllocatorDestroyRangeReverseINS_9allocatorINS_4pairIllEEEENS_16reverse_iteratorIPS3_EEEclB8ue170006Ev, symObjAddr: 0x3EF0, symBinAddr: 0x10000B3D0, symSize: 0xF0 }
  - { offsetInCU: 0x12352, offset: 0x2AFC3, size: 0x8, addend: 0x0, symName: __ZNSt3__116reverse_iteratorINS0_IPNS_4pairIllEEEEEC1B8ue170006ES4_, symObjAddr: 0x4050, symBinAddr: 0x10000B530, symSize: 0x30 }
  - { offsetInCU: 0x1238A, offset: 0x2AFFB, size: 0x8, addend: 0x0, symName: __ZNSt3__116reverse_iteratorINS0_IPNS_4pairIllEEEEEppB8ue170006Ev, symObjAddr: 0x40F0, symBinAddr: 0x10000B5D0, symSize: 0x30 }
  - { offsetInCU: 0x123B0, offset: 0x2B021, size: 0x8, addend: 0x0, symName: __ZNKSt3__116reverse_iteratorINS0_IPNS_4pairIllEEEEE4baseB8ue170006Ev, symObjAddr: 0x4120, symBinAddr: 0x10000B600, symSize: 0x20 }
  - { offsetInCU: 0x123DC, offset: 0x2B04D, size: 0x8, addend: 0x0, symName: __ZNSt3__119__to_address_helperINS_16reverse_iteratorINS1_IPNS_4pairIllEEEEEEvE6__callB8ue170006ERKS6_, symObjAddr: 0x4140, symBinAddr: 0x10000B620, symSize: 0x40 }
  - { offsetInCU: 0x123FF, offset: 0x2B070, size: 0x8, addend: 0x0, symName: __ZNKSt3__116reverse_iteratorINS0_IPNS_4pairIllEEEEEptB8ue170006Ev, symObjAddr: 0x4180, symBinAddr: 0x10000B660, symSize: 0x50 }
  - { offsetInCU: 0x12425, offset: 0x2B096, size: 0x8, addend: 0x0, symName: __ZNSt3__116reverse_iteratorIPNS_4pairIllEEEpLB8ue170006El, symObjAddr: 0x4270, symBinAddr: 0x10000B750, symSize: 0x30 }
  - { offsetInCU: 0x12459, offset: 0x2B0CA, size: 0x8, addend: 0x0, symName: __ZNSt3__116reverse_iteratorIPNS_4pairIllEEEmmB8ue170006Ev, symObjAddr: 0x42A0, symBinAddr: 0x10000B780, symSize: 0x20 }
  - { offsetInCU: 0x1247F, offset: 0x2B0F0, size: 0x8, addend: 0x0, symName: __ZNSt3__116reverse_iteratorINS0_IPNS_4pairIllEEEEEC2B8ue170006ES4_, symObjAddr: 0x42C0, symBinAddr: 0x10000B7A0, symSize: 0x40 }
  - { offsetInCU: 0x124B7, offset: 0x2B128, size: 0x8, addend: 0x0, symName: __ZNSt3__114__split_bufferINS_4pairIllEERNS_9allocatorIS2_EEED2Ev, symObjAddr: 0x4300, symBinAddr: 0x10000B7E0, symSize: 0x70 }
  - { offsetInCU: 0x124E3, offset: 0x2B154, size: 0x8, addend: 0x0, symName: __ZNSt3__114__split_bufferINS_4pairIllEERNS_9allocatorIS2_EEE5clearB8ue170006Ev, symObjAddr: 0x4370, symBinAddr: 0x10000B850, symSize: 0x20 }
  - { offsetInCU: 0x12509, offset: 0x2B17A, size: 0x8, addend: 0x0, symName: __ZNKSt3__114__split_bufferINS_4pairIllEERNS_9allocatorIS2_EEE8capacityB8ue170006Ev, symObjAddr: 0x4390, symBinAddr: 0x10000B870, symSize: 0x30 }
  - { offsetInCU: 0x1252F, offset: 0x2B1A0, size: 0x8, addend: 0x0, symName: __ZNSt3__114__split_bufferINS_4pairIllEERNS_9allocatorIS2_EEE17__destruct_at_endB8ue170006EPS2_, symObjAddr: 0x43C0, symBinAddr: 0x10000B8A0, symSize: 0x30 }
  - { offsetInCU: 0x12563, offset: 0x2B1D4, size: 0x8, addend: 0x0, symName: __ZNSt3__114__split_bufferINS_4pairIllEERNS_9allocatorIS2_EEE17__destruct_at_endB8ue170006EPS2_NS_17integral_constantIbLb0EEE, symObjAddr: 0x43F0, symBinAddr: 0x10000B8D0, symSize: 0x80 }
  - { offsetInCU: 0x125A3, offset: 0x2B214, size: 0x8, addend: 0x0, symName: __ZNKSt3__114__split_bufferINS_4pairIllEERNS_9allocatorIS2_EEE9__end_capB8ue170006Ev, symObjAddr: 0x4470, symBinAddr: 0x10000B950, symSize: 0x20 }
  - { offsetInCU: 0x125C9, offset: 0x2B23A, size: 0x8, addend: 0x0, symName: __ZNKSt3__117__compressed_pairIPNS_4pairIllEERNS_9allocatorIS2_EEE5firstB8ue170006Ev, symObjAddr: 0x4490, symBinAddr: 0x10000B970, symSize: 0x20 }
  - { offsetInCU: 0x125EF, offset: 0x2B260, size: 0x8, addend: 0x0, symName: __ZNSt3__14pairIllEC2B8ue170006IRiiLPv0EEEOT_OT0_, symObjAddr: 0x44B0, symBinAddr: 0x10000B990, symSize: 0x30 }
  - { offsetInCU: 0x1264D, offset: 0x2B2BE, size: 0x8, addend: 0x0, symName: __ZNSt3__16vectorINS_4pairIllEENS_9allocatorIS2_EEED2B8ue170006Ev, symObjAddr: 0x44E0, symBinAddr: 0x10000B9C0, symSize: 0x40 }
  - { offsetInCU: 0x12677, offset: 0x2B2E8, size: 0x8, addend: 0x0, symName: __ZNSt3__112basic_stringIcNS_11char_traitsIcEENS_9allocatorIcEEE6appendB8ue170006ERKS5_, symObjAddr: 0x4680, symBinAddr: 0x10000BA00, symSize: 0x50 }
  - { offsetInCU: 0x126AC, offset: 0x2B31D, size: 0x8, addend: 0x0, symName: __ZNSt3__112basic_stringIcNS_11char_traitsIcEENS_9allocatorIcEEEC1B8ue170006EOS5_, symObjAddr: 0x46D0, symBinAddr: 0x10000BA50, symSize: 0x30 }
  - { offsetInCU: 0x126E5, offset: 0x2B356, size: 0x8, addend: 0x0, symName: __ZNSt3__112basic_stringIcNS_11char_traitsIcEENS_9allocatorIcEEEC2B8ue170006EOS5_, symObjAddr: 0x48F0, symBinAddr: 0x10000BA80, symSize: 0x50 }
  - { offsetInCU: 0x1271E, offset: 0x2B38F, size: 0x8, addend: 0x0, symName: __ZNKSt3__16vectorINS_4pairIllEENS_9allocatorIS2_EEE20__throw_out_of_rangeB8ue170006Ev, symObjAddr: 0x49C0, symBinAddr: 0x10000BAD0, symSize: 0x20 }
  - { offsetInCU: 0x12744, offset: 0x2B3B5, size: 0x8, addend: 0x0, symName: __ZNSt12out_of_rangeC1B8ue170006EPKc, symObjAddr: 0x4A50, symBinAddr: 0x10000BB60, symSize: 0x30 }
  - { offsetInCU: 0x1277C, offset: 0x2B3ED, size: 0x8, addend: 0x0, symName: __ZNSt12out_of_rangeC2B8ue170006EPKc, symObjAddr: 0x4A80, symBinAddr: 0x10000BB90, symSize: 0x40 }
  - { offsetInCU: 0x127BF, offset: 0x2B430, size: 0x8, addend: 0x0, symName: __ZNSt3__116allocator_traitsINS_9allocatorIcEEE37select_on_container_copy_constructionB8ue170006IS2_vvEES2_RKS2_, symObjAddr: 0x4AC0, symBinAddr: 0x10000BBD0, symSize: 0x10 }
  - { offsetInCU: 0x127EE, offset: 0x2B45F, size: 0x8, addend: 0x0, symName: __ZNKSt3__112basic_stringIcNS_11char_traitsIcEENS_9allocatorIcEEE13get_allocatorB8ue170006Ev, symObjAddr: 0x4AD0, symBinAddr: 0x10000BBE0, symSize: 0x20 }
  - { offsetInCU: 0x12814, offset: 0x2B485, size: 0x8, addend: 0x0, symName: __ZNSt3__112basic_stringIcNS_11char_traitsIcEENS_9allocatorIcEEEC1B8ue170006ENS_24__uninitialized_size_tagEmRKS4_, symObjAddr: 0x4AF0, symBinAddr: 0x10000BC00, symSize: 0x30 }
  - { offsetInCU: 0x12868, offset: 0x2B4D9, size: 0x8, addend: 0x0, symName: __ZNSt3__111char_traitsIcE4copyB8ue170006EPcPKcm, symObjAddr: 0x4B80, symBinAddr: 0x10000BC30, symSize: 0x40 }
  - { offsetInCU: 0x128A7, offset: 0x2B518, size: 0x8, addend: 0x0, symName: __ZNSt3__111char_traitsIcE6assignB8ue170006EPcmc, symObjAddr: 0x4BC0, symBinAddr: 0x10000BC70, symSize: 0x40 }
  - { offsetInCU: 0x128E6, offset: 0x2B557, size: 0x8, addend: 0x0, symName: __ZNSt3__112basic_stringIcNS_11char_traitsIcEENS_9allocatorIcEEEC2B8ue170006ENS_24__uninitialized_size_tagEmRKS4_, symObjAddr: 0x4C50, symBinAddr: 0x10000BCB0, symSize: 0x110 }
  - { offsetInCU: 0x12968, offset: 0x2B5D9, size: 0x8, addend: 0x0, symName: __ZNSt3__117__compressed_pairINS_12basic_stringIcNS_11char_traitsIcEENS_9allocatorIcEEE5__repES5_EC1B8ue170006INS_18__default_init_tagERKS5_EEOT_OT0_, symObjAddr: 0x4D60, symBinAddr: 0x10000BDC0, symSize: 0x30 }
  - { offsetInCU: 0x129C0, offset: 0x2B631, size: 0x8, addend: 0x0, symName: __ZNKSt3__112basic_stringIcNS_11char_traitsIcEENS_9allocatorIcEEE20__throw_length_errorB8ue170006Ev, symObjAddr: 0x4E30, symBinAddr: 0x10000BDF0, symSize: 0x20 }
  - { offsetInCU: 0x129E6, offset: 0x2B657, size: 0x8, addend: 0x0, symName: __ZNSt3__112basic_stringIcNS_11char_traitsIcEENS_9allocatorIcEEE13__fits_in_ssoB8ue170006Em, symObjAddr: 0x4E50, symBinAddr: 0x10000BE10, symSize: 0x20 }
  - { offsetInCU: 0x12A0A, offset: 0x2B67B, size: 0x8, addend: 0x0, symName: __ZNSt3__112basic_stringIcNS_11char_traitsIcEENS_9allocatorIcEEE11__recommendB8ue170006Em, symObjAddr: 0x4EC0, symBinAddr: 0x10000BE30, symSize: 0x70 }
  - { offsetInCU: 0x12A3D, offset: 0x2B6AE, size: 0x8, addend: 0x0, symName: __ZNSt3__116allocator_traitsINS_9allocatorIcEEE8allocateB8ue170006ERS2_m, symObjAddr: 0x4F30, symBinAddr: 0x10000BEA0, symSize: 0x30 }
  - { offsetInCU: 0x12A70, offset: 0x2B6E1, size: 0x8, addend: 0x0, symName: __ZNSt3__112basic_stringIcNS_11char_traitsIcEENS_9allocatorIcEEE7__allocB8ue170006Ev, symObjAddr: 0x4F60, symBinAddr: 0x10000BED0, symSize: 0x20 }
  - { offsetInCU: 0x12A96, offset: 0x2B707, size: 0x8, addend: 0x0, symName: __ZNSt3__112basic_stringIcNS_11char_traitsIcEENS_9allocatorIcEEE16__begin_lifetimeB8ue170006EPcm, symObjAddr: 0x4F80, symBinAddr: 0x10000BEF0, symSize: 0x10 }
  - { offsetInCU: 0x12AC9, offset: 0x2B73A, size: 0x8, addend: 0x0, symName: __ZNSt3__112basic_stringIcNS_11char_traitsIcEENS_9allocatorIcEEE14__set_long_capB8ue170006Em, symObjAddr: 0x4F90, symBinAddr: 0x10000BF00, symSize: 0x70 }
  - { offsetInCU: 0x12AFE, offset: 0x2B76F, size: 0x8, addend: 0x0, symName: __ZNSt3__112basic_stringIcNS_11char_traitsIcEENS_9allocatorIcEEE18__set_long_pointerB8ue170006EPc, symObjAddr: 0x5000, symBinAddr: 0x10000BF70, symSize: 0x30 }
  - { offsetInCU: 0x12B33, offset: 0x2B7A4, size: 0x8, addend: 0x0, symName: __ZNSt3__117__compressed_pairINS_12basic_stringIcNS_11char_traitsIcEENS_9allocatorIcEEE5__repES5_EC2B8ue170006INS_18__default_init_tagERKS5_EEOT_OT0_, symObjAddr: 0x5060, symBinAddr: 0x10000BFA0, symSize: 0x40 }
  - { offsetInCU: 0x12B8B, offset: 0x2B7FC, size: 0x8, addend: 0x0, symName: __ZNSt3__122__compressed_pair_elemINS_9allocatorIcEELi1ELb1EEC2B8ue170006IRKS2_vEEOT_, symObjAddr: 0x50A0, symBinAddr: 0x10000BFE0, symSize: 0x10 }
  - { offsetInCU: 0x12BCD, offset: 0x2B83E, size: 0x8, addend: 0x0, symName: __ZNSt3__112basic_stringIcNS_11char_traitsIcEENS_9allocatorIcEEE10__align_itB8ue170006ILm16EEEmm, symObjAddr: 0x50D0, symBinAddr: 0x10000BFF0, symSize: 0x20 }
  - { offsetInCU: 0x12BFB, offset: 0x2B86C, size: 0x8, addend: 0x0, symName: __ZNSt3__19allocatorIcE8allocateB8ue170006Em, symObjAddr: 0x50F0, symBinAddr: 0x10000C010, symSize: 0x50 }
  - { offsetInCU: 0x12C2F, offset: 0x2B8A0, size: 0x8, addend: 0x0, symName: __ZNSt3__117__compressed_pairINS_12basic_stringIcNS_11char_traitsIcEENS_9allocatorIcEEE5__repES5_E6secondB8ue170006Ev, symObjAddr: 0x5140, symBinAddr: 0x10000C060, symSize: 0x20 }
  - { offsetInCU: 0x12C55, offset: 0x2B8C6, size: 0x8, addend: 0x0, symName: __ZNSt3__122__compressed_pair_elemINS_9allocatorIcEELi1ELb1EE5__getB8ue170006Ev, symObjAddr: 0x5160, symBinAddr: 0x10000C080, symSize: 0x10 }
  - { offsetInCU: 0x12CA6, offset: 0x2B917, size: 0x8, addend: 0x0, symName: __ZNKSt3__114__copy_trivialclB8ue170006IKccLi0EEENS_4pairIPT_PT0_EES5_S5_S7_, symObjAddr: 0x53C0, symBinAddr: 0x10000C280, symSize: 0x40 }
  - { offsetInCU: 0x12D2F, offset: 0x2B9A0, size: 0x8, addend: 0x0, symName: __ZNSt3__119__unwrap_range_implIPKcS2_E8__unwrapB8ue170006ES2_S2_, symObjAddr: 0x54C0, symBinAddr: 0x10000C380, symSize: 0x50 }
  - { offsetInCU: 0x12D66, offset: 0x2B9D7, size: 0x8, addend: 0x0, symName: __ZNSt3__14pairIPKcS2_EC1B8ue170006IS2_S2_LPv0EEEOT_OT0_, symObjAddr: 0x5530, symBinAddr: 0x10000C3F0, symSize: 0x30 }
  - { offsetInCU: 0x12DC4, offset: 0x2BA35, size: 0x8, addend: 0x0, symName: __ZNSt3__118__unwrap_iter_implIPKcLb1EE8__unwrapB8ue170006ES2_, symObjAddr: 0x5560, symBinAddr: 0x10000C420, symSize: 0x20 }
  - { offsetInCU: 0x12DE7, offset: 0x2BA58, size: 0x8, addend: 0x0, symName: __ZNSt3__14pairIPKcS2_EC2B8ue170006IS2_S2_LPv0EEEOT_OT0_, symObjAddr: 0x5580, symBinAddr: 0x10000C440, symSize: 0x30 }
  - { offsetInCU: 0x12E51, offset: 0x2BAC2, size: 0x8, addend: 0x0, symName: __ZNSt3__14pairIPKcPcEC1B8ue170006IRS2_S3_LPv0EEEOT_OT0_, symObjAddr: 0x56A0, symBinAddr: 0x10000C560, symSize: 0x30 }
  - { offsetInCU: 0x12EAF, offset: 0x2BB20, size: 0x8, addend: 0x0, symName: __ZNSt3__14pairIPKcPcEC2B8ue170006IRS2_S3_LPv0EEEOT_OT0_, symObjAddr: 0x56D0, symBinAddr: 0x10000C590, symSize: 0x30 }
  - { offsetInCU: 0x12F0D, offset: 0x2BB7E, size: 0x8, addend: 0x0, symName: __ZNSt3__118__unwrap_iter_implIPcLb1EE8__unwrapB8ue170006ES1_, symObjAddr: 0x5700, symBinAddr: 0x10000C5C0, symSize: 0x20 }
  - { offsetInCU: 0x12F30, offset: 0x2BBA1, size: 0x8, addend: 0x0, symName: __ZNSt3__14pairIPKcPcEC1B8ue170006IS2_S3_LPv0EEEOT_OT0_, symObjAddr: 0x5720, symBinAddr: 0x10000C5E0, symSize: 0x30 }
  - { offsetInCU: 0x12F8E, offset: 0x2BBFF, size: 0x8, addend: 0x0, symName: __ZNSt3__14pairIPKcPcEC2B8ue170006IS2_S3_LPv0EEEOT_OT0_, symObjAddr: 0x5750, symBinAddr: 0x10000C610, symSize: 0x30 }
  - { offsetInCU: 0x12FEC, offset: 0x2BC5D, size: 0x8, addend: 0x0, symName: __ZNSt3__119__unwrap_range_implIPKcS2_E8__rewrapB8ue170006ES2_S2_, symObjAddr: 0x5780, symBinAddr: 0x10000C640, symSize: 0x30 }
  - { offsetInCU: 0x1301D, offset: 0x2BC8E, size: 0x8, addend: 0x0, symName: __ZNSt3__118__unwrap_iter_implIPKcLb1EE8__rewrapB8ue170006ES2_S2_, symObjAddr: 0x57F0, symBinAddr: 0x10000C6B0, symSize: 0x40 }
  - { offsetInCU: 0x1304E, offset: 0x2BCBF, size: 0x8, addend: 0x0, symName: __ZNSt3__118__unwrap_iter_implIPcLb1EE8__rewrapB8ue170006ES1_S1_, symObjAddr: 0x5830, symBinAddr: 0x10000C6F0, symSize: 0x40 }
  - { offsetInCU: 0x13085, offset: 0x2BCF6, size: 0x8, addend: 0x0, symName: __ZNKSt3__16__lessIvvEclB8ue170006IllEEbRKT_RKT0_, symObjAddr: 0x5A10, symBinAddr: 0x10000C8D0, symSize: 0x30 }
  - { offsetInCU: 0x130D9, offset: 0x2BD4A, size: 0x8, addend: 0x0, symName: __ZNSt3__18_IterOpsINS_17_ClassicAlgPolicyEE8distanceB8ue170006INS_11__wrap_iterIPlEEEENS_15iterator_traitsIT_E15difference_typeES8_S8_, symObjAddr: 0x5B40, symBinAddr: 0x10000CA00, symSize: 0x40 }
  - { offsetInCU: 0x13113, offset: 0x2BD84, size: 0x8, addend: 0x0, symName: __ZNSt3__18_IterOpsINS_17_ClassicAlgPolicyEE7advanceB8ue170006INS_11__wrap_iterIPlEElEEvRT_T0_, symObjAddr: 0x5BA0, symBinAddr: 0x10000CA60, symSize: 0x30 }
  - { offsetInCU: 0x13156, offset: 0x2BDC7, size: 0x8, addend: 0x0, symName: __ZNKSt3__111__wrap_iterIPlE4baseB8ue170006Ev, symObjAddr: 0x5CE0, symBinAddr: 0x10000CBA0, symSize: 0x20 }
  - { offsetInCU: 0x1317C, offset: 0x2BDED, size: 0x8, addend: 0x0, symName: __ZNSt3__111__wrap_iterIPlEpLB8ue170006El, symObjAddr: 0x5D60, symBinAddr: 0x10000CC20, symSize: 0x20 }
  - { offsetInCU: 0x131BA, offset: 0x2BE2B, size: 0x8, addend: 0x0, symName: __ZNKSt3__110__identityclB8ue170006IRlEEOT_S4_, symObjAddr: 0x5D80, symBinAddr: 0x10000CC40, symSize: 0x20 }
  - { offsetInCU: 0x131F7, offset: 0x2BE68, size: 0x8, addend: 0x0, symName: __ZNSt3__16vectorIlNS_9allocatorIlEEE11__make_iterB8ue170006EPl, symObjAddr: 0x5DA0, symBinAddr: 0x10000CC60, symSize: 0x30 }
  - { offsetInCU: 0x1322C, offset: 0x2BE9D, size: 0x8, addend: 0x0, symName: __ZNSt3__111__wrap_iterIPlEC1B8ue170006ES1_, symObjAddr: 0x5DD0, symBinAddr: 0x10000CC90, symSize: 0x30 }
  - { offsetInCU: 0x13264, offset: 0x2BED5, size: 0x8, addend: 0x0, symName: __ZNSt3__111__wrap_iterIPlEC2B8ue170006ES1_, symObjAddr: 0x5E00, symBinAddr: 0x10000CCC0, symSize: 0x20 }
  - { offsetInCU: 0x1329C, offset: 0x2BF0D, size: 0x8, addend: 0x0, symName: __ZNSt3__16vectorIbNS_9allocatorIbEEEC2EmRKb, symObjAddr: 0x5E20, symBinAddr: 0x10000CCE0, symSize: 0x80 }
  - { offsetInCU: 0x132E6, offset: 0x2BF57, size: 0x8, addend: 0x0, symName: __ZNSt3__117__compressed_pairImNS_9allocatorImEEEC1B8ue170006IiNS_18__default_init_tagEEEOT_OT0_, symObjAddr: 0x5EA0, symBinAddr: 0x10000CD60, symSize: 0x30 }
  - { offsetInCU: 0x1333E, offset: 0x2BFAF, size: 0x8, addend: 0x0, symName: __ZNSt3__16vectorIbNS_9allocatorIbEEE11__vallocateB8ue170006Em, symObjAddr: 0x5ED0, symBinAddr: 0x10000CD90, symSize: 0xA0 }
  - { offsetInCU: 0x13382, offset: 0x2BFF3, size: 0x8, addend: 0x0, symName: __ZNSt3__16vectorIbNS_9allocatorIbEEE18__construct_at_endB8ue170006Emb, symObjAddr: 0x5F70, symBinAddr: 0x10000CE30, symSize: 0xE0 }
  - { offsetInCU: 0x133D7, offset: 0x2C048, size: 0x8, addend: 0x0, symName: __ZNSt3__117__compressed_pairImNS_9allocatorImEEEC2B8ue170006IiNS_18__default_init_tagEEEOT_OT0_, symObjAddr: 0x6050, symBinAddr: 0x10000CF10, symSize: 0x40 }
  - { offsetInCU: 0x1342F, offset: 0x2C0A0, size: 0x8, addend: 0x0, symName: __ZNSt3__122__compressed_pair_elemINS_9allocatorImEELi1ELb1EEC2B8ue170006ENS_18__default_init_tagE, symObjAddr: 0x60B0, symBinAddr: 0x10000CF50, symSize: 0x20 }
  - { offsetInCU: 0x13463, offset: 0x2C0D4, size: 0x8, addend: 0x0, symName: __ZNSt3__19allocatorImEC2B8ue170006Ev, symObjAddr: 0x60D0, symBinAddr: 0x10000CF70, symSize: 0x20 }
  - { offsetInCU: 0x1348D, offset: 0x2C0FE, size: 0x8, addend: 0x0, symName: __ZNSt3__116__non_trivial_ifILb1ENS_9allocatorImEEEC2B8ue170006Ev, symObjAddr: 0x60F0, symBinAddr: 0x10000CF90, symSize: 0x10 }
  - { offsetInCU: 0x134B7, offset: 0x2C128, size: 0x8, addend: 0x0, symName: __ZNKSt3__16vectorIbNS_9allocatorIbEEE8max_sizeEv, symObjAddr: 0x6100, symBinAddr: 0x10000CFA0, symSize: 0x70 }
  - { offsetInCU: 0x134FD, offset: 0x2C16E, size: 0x8, addend: 0x0, symName: __ZNKSt3__16vectorIbNS_9allocatorIbEEE20__throw_length_errorB8ue170006Ev, symObjAddr: 0x6170, symBinAddr: 0x10000D010, symSize: 0x20 }
  - { offsetInCU: 0x13523, offset: 0x2C194, size: 0x8, addend: 0x0, symName: __ZNSt3__16vectorIbNS_9allocatorIbEEE7__allocB8ue170006Ev, symObjAddr: 0x61D0, symBinAddr: 0x10000D070, symSize: 0x20 }
  - { offsetInCU: 0x13549, offset: 0x2C1BA, size: 0x8, addend: 0x0, symName: __ZNSt3__16vectorIbNS_9allocatorIbEEE26__external_cap_to_internalB8ue170006Em, symObjAddr: 0x61F0, symBinAddr: 0x10000D090, symSize: 0x20 }
  - { offsetInCU: 0x1356D, offset: 0x2C1DE, size: 0x8, addend: 0x0, symName: __ZNSt3__16vectorIbNS_9allocatorIbEEE5__capB8ue170006Ev, symObjAddr: 0x6210, symBinAddr: 0x10000D0B0, symSize: 0x20 }
  - { offsetInCU: 0x1359E, offset: 0x2C20F, size: 0x8, addend: 0x0, symName: __ZNSt3__116allocator_traitsINS_9allocatorImEEE8max_sizeB8ue170006IS2_vvEEmRKS2_, symObjAddr: 0x6230, symBinAddr: 0x10000D0D0, symSize: 0x20 }
  - { offsetInCU: 0x135CA, offset: 0x2C23B, size: 0x8, addend: 0x0, symName: __ZNKSt3__16vectorIbNS_9allocatorIbEEE7__allocB8ue170006Ev, symObjAddr: 0x6250, symBinAddr: 0x10000D0F0, symSize: 0x20 }
  - { offsetInCU: 0x135F0, offset: 0x2C261, size: 0x8, addend: 0x0, symName: __ZNSt3__16vectorIbNS_9allocatorIbEEE26__internal_cap_to_externalB8ue170006Em, symObjAddr: 0x6270, symBinAddr: 0x10000D110, symSize: 0x20 }
  - { offsetInCU: 0x13614, offset: 0x2C285, size: 0x8, addend: 0x0, symName: __ZNKSt3__117__compressed_pairImNS_9allocatorImEEE6secondB8ue170006Ev, symObjAddr: 0x6290, symBinAddr: 0x10000D130, symSize: 0x20 }
  - { offsetInCU: 0x1363A, offset: 0x2C2AB, size: 0x8, addend: 0x0, symName: __ZNKSt3__122__compressed_pair_elemINS_9allocatorImEELi1ELb1EE5__getB8ue170006Ev, symObjAddr: 0x62B0, symBinAddr: 0x10000D150, symSize: 0x10 }
  - { offsetInCU: 0x13660, offset: 0x2C2D1, size: 0x8, addend: 0x0, symName: __ZNSt3__19allocatorImE17allocate_at_leastB8ue170006Em, symObjAddr: 0x6300, symBinAddr: 0x10000D1A0, symSize: 0x40 }
  - { offsetInCU: 0x13694, offset: 0x2C305, size: 0x8, addend: 0x0, symName: __ZNSt3__19allocatorImE8allocateB8ue170006Em, symObjAddr: 0x6340, symBinAddr: 0x10000D1E0, symSize: 0x50 }
  - { offsetInCU: 0x136C8, offset: 0x2C339, size: 0x8, addend: 0x0, symName: __ZNSt3__117__compressed_pairImNS_9allocatorImEEE6secondB8ue170006Ev, symObjAddr: 0x6390, symBinAddr: 0x10000D230, symSize: 0x20 }
  - { offsetInCU: 0x136EE, offset: 0x2C35F, size: 0x8, addend: 0x0, symName: __ZNSt3__122__compressed_pair_elemINS_9allocatorImEELi1ELb1EE5__getB8ue170006Ev, symObjAddr: 0x63B0, symBinAddr: 0x10000D250, symSize: 0x10 }
  - { offsetInCU: 0x13714, offset: 0x2C385, size: 0x8, addend: 0x0, symName: __ZNSt3__117__compressed_pairImNS_9allocatorImEEE5firstB8ue170006Ev, symObjAddr: 0x63C0, symBinAddr: 0x10000D260, symSize: 0x20 }
  - { offsetInCU: 0x1373A, offset: 0x2C3AB, size: 0x8, addend: 0x0, symName: __ZNSt3__16vectorIbNS_9allocatorIbEEE11__make_iterB8ue170006Em, symObjAddr: 0x6470, symBinAddr: 0x10000D300, symSize: 0x50 }
  - { offsetInCU: 0x1376F, offset: 0x2C3E0, size: 0x8, addend: 0x0, symName: __ZNSt3__114__bit_iteratorINS_6vectorIbNS_9allocatorIbEEEELb0ELm0EEC1B8ue170006ERKS5_, symObjAddr: 0x6600, symBinAddr: 0x10000D490, symSize: 0x30 }
  - { offsetInCU: 0x137A8, offset: 0x2C419, size: 0x8, addend: 0x0, symName: __ZNSt3__114__bit_iteratorINS_6vectorIbNS_9allocatorIbEEEELb0ELm0EEC2B8ue170006ERKS5_, symObjAddr: 0x6810, symBinAddr: 0x10000D6A0, symSize: 0x30 }
  - { offsetInCU: 0x137E1, offset: 0x2C452, size: 0x8, addend: 0x0, symName: __ZNSt3__114__bit_iteratorINS_6vectorIbNS_9allocatorIbEEEELb0ELm0EEC1B8ue170006EPmj, symObjAddr: 0x68D0, symBinAddr: 0x10000D760, symSize: 0x30 }
  - { offsetInCU: 0x13829, offset: 0x2C49A, size: 0x8, addend: 0x0, symName: __ZNSt3__114__bit_iteratorINS_6vectorIbNS_9allocatorIbEEEELb0ELm0EEC2B8ue170006EPmj, symObjAddr: 0x6900, symBinAddr: 0x10000D790, symSize: 0x30 }
  - { offsetInCU: 0x13871, offset: 0x2C4E2, size: 0x8, addend: 0x0, symName: __ZNSt3__16vectorIlNS_9allocatorIlEEE9__end_capB8ue170006Ev, symObjAddr: 0x6970, symBinAddr: 0x10000D800, symSize: 0x20 }
  - { offsetInCU: 0x1389D, offset: 0x2C50E, size: 0x8, addend: 0x0, symName: __ZNSt3__16vectorIlNS_9allocatorIlEEE22__construct_one_at_endB8ue170006IJlEEEvDpOT_, symObjAddr: 0x6990, symBinAddr: 0x10000D820, symSize: 0x90 }
  - { offsetInCU: 0x138EC, offset: 0x2C55D, size: 0x8, addend: 0x0, symName: __ZNSt3__16vectorIlNS_9allocatorIlEEE21__push_back_slow_pathIlEEvOT_, symObjAddr: 0x6A20, symBinAddr: 0x10000D8B0, symSize: 0xD0 }
  - { offsetInCU: 0x1394A, offset: 0x2C5BB, size: 0x8, addend: 0x0, symName: __ZNSt3__117__compressed_pairIPlNS_9allocatorIlEEE5firstB8ue170006Ev, symObjAddr: 0x6AF0, symBinAddr: 0x10000D980, symSize: 0x20 }
  - { offsetInCU: 0x13970, offset: 0x2C5E1, size: 0x8, addend: 0x0, symName: __ZNSt3__122__compressed_pair_elemIPlLi0ELb0EE5__getB8ue170006Ev, symObjAddr: 0x6B10, symBinAddr: 0x10000D9A0, symSize: 0x10 }
  - { offsetInCU: 0x139B1, offset: 0x2C622, size: 0x8, addend: 0x0, symName: __ZNSt3__16vectorIlNS_9allocatorIlEEE21_ConstructTransactionC1B8ue170006ERS3_m, symObjAddr: 0x6B20, symBinAddr: 0x10000D9B0, symSize: 0x30 }
  - { offsetInCU: 0x139F9, offset: 0x2C66A, size: 0x8, addend: 0x0, symName: __ZNSt3__116allocator_traitsINS_9allocatorIlEEE9constructB8ue170006IlJlEvvEEvRS2_PT_DpOT0_, symObjAddr: 0x6B50, symBinAddr: 0x10000D9E0, symSize: 0x30 }
  - { offsetInCU: 0x13A4E, offset: 0x2C6BF, size: 0x8, addend: 0x0, symName: __ZNSt3__16vectorIlNS_9allocatorIlEEE21_ConstructTransactionD1B8ue170006Ev, symObjAddr: 0x6B80, symBinAddr: 0x10000DA10, symSize: 0x20 }
  - { offsetInCU: 0x13A78, offset: 0x2C6E9, size: 0x8, addend: 0x0, symName: __ZNSt3__16vectorIlNS_9allocatorIlEEE21_ConstructTransactionC2B8ue170006ERS3_m, symObjAddr: 0x6BA0, symBinAddr: 0x10000DA30, symSize: 0x40 }
  - { offsetInCU: 0x13AC0, offset: 0x2C731, size: 0x8, addend: 0x0, symName: __ZNSt3__16vectorIlNS_9allocatorIlEEE21_ConstructTransactionD2B8ue170006Ev, symObjAddr: 0x6C10, symBinAddr: 0x10000DAA0, symSize: 0x20 }
  - { offsetInCU: 0x13AEA, offset: 0x2C75B, size: 0x8, addend: 0x0, symName: __ZNKSt3__16vectorIlNS_9allocatorIlEEE11__recommendB8ue170006Em, symObjAddr: 0x6C30, symBinAddr: 0x10000DAC0, symSize: 0xA0 }
  - { offsetInCU: 0x13B3F, offset: 0x2C7B0, size: 0x8, addend: 0x0, symName: __ZNSt3__114__split_bufferIlRNS_9allocatorIlEEEC1EmmS3_, symObjAddr: 0x6CD0, symBinAddr: 0x10000DB60, symSize: 0x40 }
  - { offsetInCU: 0x13B95, offset: 0x2C806, size: 0x8, addend: 0x0, symName: __ZNSt3__114__split_bufferIlRNS_9allocatorIlEEED1Ev, symObjAddr: 0x6E30, symBinAddr: 0x10000DCC0, symSize: 0x20 }
  - { offsetInCU: 0x13BC1, offset: 0x2C832, size: 0x8, addend: 0x0, symName: __ZNKSt3__16vectorIlNS_9allocatorIlEEE8max_sizeEv, symObjAddr: 0x6E50, symBinAddr: 0x10000DCE0, symSize: 0x60 }
  - { offsetInCU: 0x13BE9, offset: 0x2C85A, size: 0x8, addend: 0x0, symName: __ZNKSt3__16vectorIlNS_9allocatorIlEEE20__throw_length_errorB8ue170006Ev, symObjAddr: 0x6EB0, symBinAddr: 0x10000DD40, symSize: 0x20 }
  - { offsetInCU: 0x13C1A, offset: 0x2C88B, size: 0x8, addend: 0x0, symName: __ZNSt3__116allocator_traitsINS_9allocatorIlEEE8max_sizeB8ue170006IS2_vvEEmRKS2_, symObjAddr: 0x6ED0, symBinAddr: 0x10000DD60, symSize: 0x20 }
  - { offsetInCU: 0x13C46, offset: 0x2C8B7, size: 0x8, addend: 0x0, symName: __ZNKSt3__16vectorIlNS_9allocatorIlEEE7__allocB8ue170006Ev, symObjAddr: 0x6EF0, symBinAddr: 0x10000DD80, symSize: 0x20 }
  - { offsetInCU: 0x13C6C, offset: 0x2C8DD, size: 0x8, addend: 0x0, symName: __ZNKSt3__117__compressed_pairIPlNS_9allocatorIlEEE6secondB8ue170006Ev, symObjAddr: 0x6F10, symBinAddr: 0x10000DDA0, symSize: 0x20 }
  - { offsetInCU: 0x13C92, offset: 0x2C903, size: 0x8, addend: 0x0, symName: __ZNKSt3__122__compressed_pair_elemINS_9allocatorIlEELi1ELb1EE5__getB8ue170006Ev, symObjAddr: 0x6F30, symBinAddr: 0x10000DDC0, symSize: 0x10 }
  - { offsetInCU: 0x13CB8, offset: 0x2C929, size: 0x8, addend: 0x0, symName: __ZNSt3__114__split_bufferIlRNS_9allocatorIlEEEC2EmmS3_, symObjAddr: 0x6F40, symBinAddr: 0x10000DDD0, symSize: 0xD0 }
  - { offsetInCU: 0x13D2B, offset: 0x2C99C, size: 0x8, addend: 0x0, symName: __ZNSt3__117__compressed_pairIPlRNS_9allocatorIlEEEC1B8ue170006IDnS4_EEOT_OT0_, symObjAddr: 0x7010, symBinAddr: 0x10000DEA0, symSize: 0x30 }
  - { offsetInCU: 0x13D83, offset: 0x2C9F4, size: 0x8, addend: 0x0, symName: __ZNSt3__114__split_bufferIlRNS_9allocatorIlEEE7__allocB8ue170006Ev, symObjAddr: 0x7080, symBinAddr: 0x10000DF10, symSize: 0x20 }
  - { offsetInCU: 0x13DA9, offset: 0x2CA1A, size: 0x8, addend: 0x0, symName: __ZNSt3__114__split_bufferIlRNS_9allocatorIlEEE9__end_capB8ue170006Ev, symObjAddr: 0x70A0, symBinAddr: 0x10000DF30, symSize: 0x20 }
  - { offsetInCU: 0x13DCF, offset: 0x2CA40, size: 0x8, addend: 0x0, symName: __ZNSt3__117__compressed_pairIPlRNS_9allocatorIlEEEC2B8ue170006IDnS4_EEOT_OT0_, symObjAddr: 0x70C0, symBinAddr: 0x10000DF50, symSize: 0x40 }
  - { offsetInCU: 0x13E27, offset: 0x2CA98, size: 0x8, addend: 0x0, symName: __ZNSt3__122__compressed_pair_elemIPlLi0ELb0EEC2B8ue170006IDnvEEOT_, symObjAddr: 0x7100, symBinAddr: 0x10000DF90, symSize: 0x20 }
  - { offsetInCU: 0x13E69, offset: 0x2CADA, size: 0x8, addend: 0x0, symName: __ZNSt3__122__compressed_pair_elemIRNS_9allocatorIlEELi1ELb0EEC2B8ue170006IS3_vEEOT_, symObjAddr: 0x7120, symBinAddr: 0x10000DFB0, symSize: 0x20 }
  - { offsetInCU: 0x13EAB, offset: 0x2CB1C, size: 0x8, addend: 0x0, symName: __ZNSt3__19allocatorIlE17allocate_at_leastB8ue170006Em, symObjAddr: 0x7180, symBinAddr: 0x10000E010, symSize: 0x40 }
  - { offsetInCU: 0x13EDF, offset: 0x2CB50, size: 0x8, addend: 0x0, symName: __ZNSt3__19allocatorIlE8allocateB8ue170006Em, symObjAddr: 0x71C0, symBinAddr: 0x10000E050, symSize: 0x50 }
  - { offsetInCU: 0x13F13, offset: 0x2CB84, size: 0x8, addend: 0x0, symName: __ZNSt3__117__compressed_pairIPlRNS_9allocatorIlEEE6secondB8ue170006Ev, symObjAddr: 0x7210, symBinAddr: 0x10000E0A0, symSize: 0x20 }
  - { offsetInCU: 0x13F39, offset: 0x2CBAA, size: 0x8, addend: 0x0, symName: __ZNSt3__122__compressed_pair_elemIRNS_9allocatorIlEELi1ELb0EE5__getB8ue170006Ev, symObjAddr: 0x7230, symBinAddr: 0x10000E0C0, symSize: 0x20 }
  - { offsetInCU: 0x13F5F, offset: 0x2CBD0, size: 0x8, addend: 0x0, symName: __ZNSt3__117__compressed_pairIPlRNS_9allocatorIlEEE5firstB8ue170006Ev, symObjAddr: 0x7250, symBinAddr: 0x10000E0E0, symSize: 0x20 }
  - { offsetInCU: 0x13F85, offset: 0x2CBF6, size: 0x8, addend: 0x0, symName: __ZNSt3__116reverse_iteratorIPlEC1B8ue170006ES1_, symObjAddr: 0x72E0, symBinAddr: 0x10000E170, symSize: 0x30 }
  - { offsetInCU: 0x13FBD, offset: 0x2CC2E, size: 0x8, addend: 0x0, symName: __ZNKSt3__116reverse_iteratorIPlE4baseB8ue170006Ev, symObjAddr: 0x7310, symBinAddr: 0x10000E1A0, symSize: 0x20 }
  - { offsetInCU: 0x13FE3, offset: 0x2CC54, size: 0x8, addend: 0x0, symName: __ZNKSt3__16vectorIlNS_9allocatorIlEEE14__annotate_newB8ue170006Em, symObjAddr: 0x7370, symBinAddr: 0x10000E200, symSize: 0xB0 }
  - { offsetInCU: 0x14043, offset: 0x2CCB4, size: 0x8, addend: 0x0, symName: __ZNKSt3__111__move_loopINS_17_ClassicAlgPolicyEEclB8ue170006INS_16reverse_iteratorIPlEES6_S6_EENS_4pairIT_T1_EES8_T0_S9_, symObjAddr: 0x7830, symBinAddr: 0x10000E6C0, symSize: 0xA0 }
  - { offsetInCU: 0x140AE, offset: 0x2CD1F, size: 0x8, addend: 0x0, symName: __ZNSt3__119__unwrap_range_implINS_16reverse_iteratorIPlEES3_E8__unwrapB8ue170006ES3_S3_, symObjAddr: 0x7A10, symBinAddr: 0x10000E8A0, symSize: 0x90 }
  - { offsetInCU: 0x140E5, offset: 0x2CD56, size: 0x8, addend: 0x0, symName: __ZNSt3__14pairINS_16reverse_iteratorIPlEES3_EC1B8ue170006IS3_S3_LPv0EEEOT_OT0_, symObjAddr: 0x7AA0, symBinAddr: 0x10000E930, symSize: 0x30 }
  - { offsetInCU: 0x14143, offset: 0x2CDB4, size: 0x8, addend: 0x0, symName: __ZNSt3__14pairINS_16reverse_iteratorIPlEES3_EC2B8ue170006IS3_S3_LPv0EEEOT_OT0_, symObjAddr: 0x7AD0, symBinAddr: 0x10000E960, symSize: 0x40 }
  - { offsetInCU: 0x141A1, offset: 0x2CE12, size: 0x8, addend: 0x0, symName: __ZNSt3__18_IterOpsINS_17_ClassicAlgPolicyEE11__iter_moveB8ue170006IRNS_16reverse_iteratorIPlEEEENS_9enable_ifIXsr12is_referenceIDTdeclsr3stdE7declvalIRT_EEEEE5valueEDTclsr3stdE4movedeclsr3stdE7declvalISA_EEEEE4typeEOS9_, symObjAddr: 0x7B50, symBinAddr: 0x10000E9E0, symSize: 0x20 }
  - { offsetInCU: 0x141CD, offset: 0x2CE3E, size: 0x8, addend: 0x0, symName: __ZNKSt3__116reverse_iteratorIPlEdeB8ue170006Ev, symObjAddr: 0x7B70, symBinAddr: 0x10000EA00, symSize: 0x30 }
  - { offsetInCU: 0x14201, offset: 0x2CE72, size: 0x8, addend: 0x0, symName: __ZNSt3__116reverse_iteratorIPlEppB8ue170006Ev, symObjAddr: 0x7BA0, symBinAddr: 0x10000EA30, symSize: 0x20 }
  - { offsetInCU: 0x14227, offset: 0x2CE98, size: 0x8, addend: 0x0, symName: __ZNSt3__18_IterOpsINS_17_ClassicAlgPolicyEE25__validate_iter_referenceB8ue170006IRNS_16reverse_iteratorIPlEEEEvv, symObjAddr: 0x7BC0, symBinAddr: 0x10000EA50, symSize: 0x10 }
  - { offsetInCU: 0x14245, offset: 0x2CEB6, size: 0x8, addend: 0x0, symName: __ZNSt3__118__unwrap_iter_implINS_16reverse_iteratorIPlEELb0EE8__unwrapB8ue170006ES3_, symObjAddr: 0x7BD0, symBinAddr: 0x10000EA60, symSize: 0x20 }
  - { offsetInCU: 0x14268, offset: 0x2CED9, size: 0x8, addend: 0x0, symName: __ZNSt3__119__unwrap_range_implINS_16reverse_iteratorIPlEES3_E8__rewrapB8ue170006ES3_S3_, symObjAddr: 0x7BF0, symBinAddr: 0x10000EA80, symSize: 0x60 }
  - { offsetInCU: 0x14299, offset: 0x2CF0A, size: 0x8, addend: 0x0, symName: __ZNSt3__118__unwrap_iter_implINS_16reverse_iteratorIPlEELb0EE8__rewrapB8ue170006ES3_S3_, symObjAddr: 0x7C50, symBinAddr: 0x10000EAE0, symSize: 0x30 }
  - { offsetInCU: 0x142C6, offset: 0x2CF37, size: 0x8, addend: 0x0, symName: __ZNSt3__116reverse_iteratorIPlEC2B8ue170006ES1_, symObjAddr: 0x7C80, symBinAddr: 0x10000EB10, symSize: 0x30 }
  - { offsetInCU: 0x142FE, offset: 0x2CF6F, size: 0x8, addend: 0x0, symName: __ZNSt3__114__split_bufferIlRNS_9allocatorIlEEED2Ev, symObjAddr: 0x7CB0, symBinAddr: 0x10000EB40, symSize: 0x70 }
  - { offsetInCU: 0x1432A, offset: 0x2CF9B, size: 0x8, addend: 0x0, symName: __ZNSt3__114__split_bufferIlRNS_9allocatorIlEEE5clearB8ue170006Ev, symObjAddr: 0x7D20, symBinAddr: 0x10000EBB0, symSize: 0x20 }
  - { offsetInCU: 0x14350, offset: 0x2CFC1, size: 0x8, addend: 0x0, symName: __ZNKSt3__114__split_bufferIlRNS_9allocatorIlEEE8capacityB8ue170006Ev, symObjAddr: 0x7D40, symBinAddr: 0x10000EBD0, symSize: 0x30 }
  - { offsetInCU: 0x14376, offset: 0x2CFE7, size: 0x8, addend: 0x0, symName: __ZNSt3__114__split_bufferIlRNS_9allocatorIlEEE17__destruct_at_endB8ue170006EPl, symObjAddr: 0x7D70, symBinAddr: 0x10000EC00, symSize: 0x30 }
  - { offsetInCU: 0x143AA, offset: 0x2D01B, size: 0x8, addend: 0x0, symName: __ZNSt3__114__split_bufferIlRNS_9allocatorIlEEE17__destruct_at_endB8ue170006EPlNS_17integral_constantIbLb0EEE, symObjAddr: 0x7DA0, symBinAddr: 0x10000EC30, symSize: 0x80 }
  - { offsetInCU: 0x143EA, offset: 0x2D05B, size: 0x8, addend: 0x0, symName: __ZNKSt3__114__split_bufferIlRNS_9allocatorIlEEE9__end_capB8ue170006Ev, symObjAddr: 0x7E20, symBinAddr: 0x10000ECB0, symSize: 0x20 }
  - { offsetInCU: 0x14410, offset: 0x2D081, size: 0x8, addend: 0x0, symName: __ZNKSt3__117__compressed_pairIPlRNS_9allocatorIlEEE5firstB8ue170006Ev, symObjAddr: 0x7E40, symBinAddr: 0x10000ECD0, symSize: 0x20 }
  - { offsetInCU: 0x14436, offset: 0x2D0A7, size: 0x8, addend: 0x0, symName: __ZNSt3__16vectorIbNS_9allocatorIbEEED2B8ue170006Ev, symObjAddr: 0x7E60, symBinAddr: 0x10000ECF0, symSize: 0x40 }
  - { offsetInCU: 0x14460, offset: 0x2D0D1, size: 0x8, addend: 0x0, symName: __ZNSt3__16vectorIbNS_9allocatorIbEEE16__destroy_vectorC1B8ue170006ERS3_, symObjAddr: 0x7EA0, symBinAddr: 0x10000ED30, symSize: 0x30 }
  - { offsetInCU: 0x14499, offset: 0x2D10A, size: 0x8, addend: 0x0, symName: __ZNSt3__16vectorIbNS_9allocatorIbEEE16__destroy_vectorclB8ue170006Ev, symObjAddr: 0x7ED0, symBinAddr: 0x10000ED60, symSize: 0x60 }
  - { offsetInCU: 0x144BF, offset: 0x2D130, size: 0x8, addend: 0x0, symName: __ZNSt3__16vectorIbNS_9allocatorIbEEE16__destroy_vectorC2B8ue170006ERS3_, symObjAddr: 0x7F30, symBinAddr: 0x10000EDC0, symSize: 0x20 }
  - { offsetInCU: 0x144F8, offset: 0x2D169, size: 0x8, addend: 0x0, symName: __ZNSt3__116allocator_traitsINS_9allocatorImEEE10deallocateB8ue170006ERS2_Pmm, symObjAddr: 0x7F50, symBinAddr: 0x10000EDE0, symSize: 0x30 }
  - { offsetInCU: 0x1453A, offset: 0x2D1AB, size: 0x8, addend: 0x0, symName: __ZNSt3__19allocatorImE10deallocateB8ue170006EPmm, symObjAddr: 0x7F80, symBinAddr: 0x10000EE10, symSize: 0x40 }
  - { offsetInCU: 0x1457C, offset: 0x2D1ED, size: 0x8, addend: 0x0, symName: __ZNSt3__115__list_iteratorIiPvEppB8ue170006Ev, symObjAddr: 0x8070, symBinAddr: 0x10000EF00, symSize: 0x20 }
  - { offsetInCU: 0x145A2, offset: 0x2D213, size: 0x8, addend: 0x0, symName: __ZNSt3__115__list_iteratorIiPvEmmB8ue170006Ev, symObjAddr: 0x8090, symBinAddr: 0x10000EF20, symSize: 0x20 }
  - { offsetInCU: 0x145E9, offset: 0x2D25A, size: 0x8, addend: 0x0, symName: __ZNKSt3__16vectorIbNS_9allocatorIbEEE4sizeB8ue170006Ev, symObjAddr: 0x88F0, symBinAddr: 0x10000EF40, symSize: 0x20 }
  - { offsetInCU: 0x1460F, offset: 0x2D280, size: 0x8, addend: 0x0, symName: __ZNKSt3__16vectorIbNS_9allocatorIbEEE20__throw_out_of_rangeB8ue170006Ev, symObjAddr: 0x8910, symBinAddr: 0x10000EF60, symSize: 0x20 }
  - { offsetInCU: 0x14635, offset: 0x2D2A6, size: 0x8, addend: 0x0, symName: __ZNSt3__16vectorIbNS_9allocatorIbEEEixB8ue170006Em, symObjAddr: 0x8930, symBinAddr: 0x10000EF80, symSize: 0x40 }
  - { offsetInCU: 0x1466A, offset: 0x2D2DB, size: 0x8, addend: 0x0, symName: __ZNSt3__16vectorIbNS_9allocatorIbEEE10__make_refB8ue170006Em, symObjAddr: 0x8970, symBinAddr: 0x10000EFC0, symSize: 0x50 }
  - { offsetInCU: 0x1469F, offset: 0x2D310, size: 0x8, addend: 0x0, symName: __ZNSt3__115__bit_referenceINS_6vectorIbNS_9allocatorIbEEEELb1EEC1B8ue170006EPmm, symObjAddr: 0x89C0, symBinAddr: 0x10000F010, symSize: 0x30 }
  - { offsetInCU: 0x146E5, offset: 0x2D356, size: 0x8, addend: 0x0, symName: __ZNSt3__115__bit_referenceINS_6vectorIbNS_9allocatorIbEEEELb1EEC2B8ue170006EPmm, symObjAddr: 0x89F0, symBinAddr: 0x10000F040, symSize: 0x30 }
  - { offsetInCU: 0x1472B, offset: 0x2D39C, size: 0x8, addend: 0x0, symName: __ZNSt3__110__list_impIiNS_9allocatorIiEEE5beginB8ue170006Ev, symObjAddr: 0x8A20, symBinAddr: 0x10000F070, symSize: 0x30 }
  - { offsetInCU: 0x14751, offset: 0x2D3C2, size: 0x8, addend: 0x0, symName: __ZNSt3__115__list_iteratorIiPvEC1B8ue170006EPNS_16__list_node_baseIiS1_EE, symObjAddr: 0x8A50, symBinAddr: 0x10000F0A0, symSize: 0x30 }
  - { offsetInCU: 0x1478A, offset: 0x2D3FB, size: 0x8, addend: 0x0, symName: __ZNSt3__115__list_iteratorIiPvEC2B8ue170006EPNS_16__list_node_baseIiS1_EE, symObjAddr: 0x8A80, symBinAddr: 0x10000F0D0, symSize: 0x20 }
  - { offsetInCU: 0x147C3, offset: 0x2D434, size: 0x8, addend: 0x0, symName: __ZNSt3__110__list_impIiNS_9allocatorIiEEE3endB8ue170006Ev, symObjAddr: 0x8AA0, symBinAddr: 0x10000F0F0, symSize: 0x30 }
  - { offsetInCU: 0x147E9, offset: 0x2D45A, size: 0x8, addend: 0x0, symName: __ZNKSt3__110__list_impIiNS_9allocatorIiEEE13__end_as_linkB8ue170006Ev, symObjAddr: 0x8AD0, symBinAddr: 0x10000F120, symSize: 0x50 }
  - { offsetInCU: 0x1480F, offset: 0x2D480, size: 0x8, addend: 0x0, symName: __ZNSt3__126__list_node_pointer_traitsIiPvE26__unsafe_link_pointer_castB8ue170006EPNS_16__list_node_baseIiS1_EE, symObjAddr: 0x8B20, symBinAddr: 0x10000F170, symSize: 0x10 }
  - { offsetInCU: 0x14833, offset: 0x2D4A4, size: 0x8, addend: 0x0, symName: __ZNSt3__116__list_node_baseIiPvE6__selfB8ue170006Ev, symObjAddr: 0x8B30, symBinAddr: 0x10000F180, symSize: 0x20 }
  - { offsetInCU: 0x1485F, offset: 0x2D4D0, size: 0x8, addend: 0x0, symName: __ZNSt3__114pointer_traitsIPNS_16__list_node_baseIiPvEEE10pointer_toB8ue170006ERS3_, symObjAddr: 0x8B50, symBinAddr: 0x10000F1A0, symSize: 0x10 }
  - { offsetInCU: 0x14882, offset: 0x2D4F3, size: 0x8, addend: 0x0, symName: __ZNSt3__116__list_node_baseIiPvE9__as_nodeB8ue170006Ev, symObjAddr: 0x8B90, symBinAddr: 0x10000F1E0, symSize: 0x1B }
...
