---
triple:          'x86_64-apple-darwin'
binary-path:     'Problem102/problem102'
relocations:
  - { offsetInCU: 0x31C3, offset: 0x31C3, size: 0x8, addend: 0x0, symName: __ZNSt3__124__put_character_sequenceB8ue170006IcNS_11char_traitsIcEEEERNS_13basic_ostreamIT_T0_EES7_PKS4_m, symObjAddr: 0x5C0, symBinAddr: 0x100001930, symSize: 0x1F0 }
  - { offsetInCU: 0x4B6F, offset: 0x4B6F, size: 0x8, addend: 0x0, symName: __ZNSt3__1lsB8ue170006INS_11char_traitsIcEEEERNS_13basic_ostreamIcT_EES6_PKc, symObjAddr: 0x230, symBinAddr: 0x1000015A0, symSize: 0x40 }
  - { offsetInCU: 0x4BB5, offset: 0x4BB5, size: 0x8, addend: 0x0, symName: __ZNSt3__116__pad_and_outputB8ue170006IcNS_11char_traitsIcEEEENS_19ostreambuf_iteratorIT_T0_EES6_PKS4_S8_S8_RNS_8ios_baseES4_, symObjAddr: 0x800, symBinAddr: 0x100001B70, symSize: 0x220 }
  - { offsetInCU: 0x4C85, offset: 0x4C85, size: 0x8, addend: 0x0, symName: __ZNSt3__112__to_addressB8ue170006IcEEPT_S2_, symObjAddr: 0xD30, symBinAddr: 0x1000020A0, symSize: 0x10 }
  - { offsetInCU: 0x4CBA, offset: 0x4CBA, size: 0x8, addend: 0x0, symName: __ZNSt3__19use_facetB8ue170006INS_5ctypeIcEEEERKT_RKNS_6localeE, symObjAddr: 0xFC0, symBinAddr: 0x100002330, symSize: 0x30 }
  - { offsetInCU: 0x5187, offset: 0x5187, size: 0x8, addend: 0x0, symName: __ZNSt3__118__constexpr_strlenB8ue170006EPKc, symObjAddr: 0x1050, symBinAddr: 0x1000023C0, symSize: 0x1B }
  - { offsetInCU: 0x794A, offset: 0x794A, size: 0x8, addend: 0x0, symName: __ZN3vecC2Edd, symObjAddr: 0x0, symBinAddr: 0x100001370, symSize: 0x30 }
  - { offsetInCU: 0x7990, offset: 0x7990, size: 0x8, addend: 0x0, symName: __ZN3vecC1Edd, symObjAddr: 0x30, symBinAddr: 0x1000013A0, symSize: 0x30 }
  - { offsetInCU: 0x79D6, offset: 0x79D6, size: 0x8, addend: 0x0, symName: __ZN3vec1XEv, symObjAddr: 0x60, symBinAddr: 0x1000013D0, symSize: 0x20 }
  - { offsetInCU: 0x79FC, offset: 0x79FC, size: 0x8, addend: 0x0, symName: __ZN3vec1YEv, symObjAddr: 0x80, symBinAddr: 0x1000013F0, symSize: 0x20 }
  - { offsetInCU: 0x7A22, offset: 0x7A22, size: 0x8, addend: 0x0, symName: __ZN3vecpLERKS_, symObjAddr: 0xA0, symBinAddr: 0x100001410, symSize: 0x40 }
  - { offsetInCU: 0x7A56, offset: 0x7A56, size: 0x8, addend: 0x0, symName: __ZN3vecmIERKS_, symObjAddr: 0xE0, symBinAddr: 0x100001450, symSize: 0x40 }
  - { offsetInCU: 0x7A8A, offset: 0x7A8A, size: 0x8, addend: 0x0, symName: __ZN3vecpLEd, symObjAddr: 0x120, symBinAddr: 0x100001490, symSize: 0x30 }
  - { offsetInCU: 0x7ABE, offset: 0x7ABE, size: 0x8, addend: 0x0, symName: __ZN3vecmIEd, symObjAddr: 0x150, symBinAddr: 0x1000014C0, symSize: 0x40 }
  - { offsetInCU: 0x7AF2, offset: 0x7AF2, size: 0x8, addend: 0x0, symName: __ZN3vecmLEd, symObjAddr: 0x190, symBinAddr: 0x100001500, symSize: 0x30 }
  - { offsetInCU: 0x7B26, offset: 0x7B26, size: 0x8, addend: 0x0, symName: __ZlsRNSt3__113basic_ostreamIcNS_11char_traitsIcEEEE3vec, symObjAddr: 0x1C0, symBinAddr: 0x100001530, symSize: 0x70 }
  - { offsetInCU: 0x7B60, offset: 0x7B60, size: 0x8, addend: 0x0, symName: __Zpld3vec, symObjAddr: 0x270, symBinAddr: 0x1000015E0, symSize: 0x40 }
  - { offsetInCU: 0x7B9A, offset: 0x7B9A, size: 0x8, addend: 0x0, symName: __Zmid3vec, symObjAddr: 0x2B0, symBinAddr: 0x100001620, symSize: 0x40 }
  - { offsetInCU: 0x7BD4, offset: 0x7BD4, size: 0x8, addend: 0x0, symName: __Zmld3vec, symObjAddr: 0x2F0, symBinAddr: 0x100001660, symSize: 0x40 }
  - { offsetInCU: 0x7C0E, offset: 0x7C0E, size: 0x8, addend: 0x0, symName: __ZplRK3vecS1_, symObjAddr: 0x330, symBinAddr: 0x1000016A0, symSize: 0x40 }
  - { offsetInCU: 0x7C56, offset: 0x7C56, size: 0x8, addend: 0x0, symName: __ZmiRK3vecS1_, symObjAddr: 0x370, symBinAddr: 0x1000016E0, symSize: 0x40 }
  - { offsetInCU: 0x7C9E, offset: 0x7C9E, size: 0x8, addend: 0x0, symName: __ZmlRK3vecS1_, symObjAddr: 0x3B0, symBinAddr: 0x100001720, symSize: 0x40 }
  - { offsetInCU: 0x7CD8, offset: 0x7CD8, size: 0x8, addend: 0x0, symName: __Z7projectRK3vecS1_, symObjAddr: 0x3F0, symBinAddr: 0x100001760, symSize: 0x80 }
  - { offsetInCU: 0x7D20, offset: 0x7D20, size: 0x8, addend: 0x0, symName: __Z5pDiffRK3vecS1_, symObjAddr: 0x470, symBinAddr: 0x1000017E0, symSize: 0x50 }
  - { offsetInCU: 0x7D68, offset: 0x7D68, size: 0x8, addend: 0x0, symName: __Z8sameSideRK3vecS1_S1_, symObjAddr: 0x4C0, symBinAddr: 0x100001830, symSize: 0x80 }
  - { offsetInCU: 0x7DCC, offset: 0x7DCC, size: 0x8, addend: 0x0, symName: __Z8sameSideRK3vecS1_S_S_, symObjAddr: 0x540, symBinAddr: 0x1000018B0, symSize: 0x80 }
  - { offsetInCU: 0x7E30, offset: 0x7E30, size: 0x8, addend: 0x0, symName: __ZNSt3__111char_traitsIcE6lengthB8ue170006EPKc, symObjAddr: 0x7B0, symBinAddr: 0x100001B20, symSize: 0x30 }
  - { offsetInCU: 0x7E70, offset: 0x7E70, size: 0x8, addend: 0x0, symName: __ZNKSt3__113basic_ostreamIcNS_11char_traitsIcEEE6sentrycvbB8ue170006Ev, symObjAddr: 0x7E0, symBinAddr: 0x100001B50, symSize: 0x20 }
  - { offsetInCU: 0x7E94, offset: 0x7E94, size: 0x8, addend: 0x0, symName: __ZNSt3__119ostreambuf_iteratorIcNS_11char_traitsIcEEEC1B8ue170006ERNS_13basic_ostreamIcS2_EE, symObjAddr: 0xA20, symBinAddr: 0x100001D90, symSize: 0x30 }
  - { offsetInCU: 0x7ECA, offset: 0x7ECA, size: 0x8, addend: 0x0, symName: __ZNKSt3__18ios_base5flagsB8ue170006Ev, symObjAddr: 0xA50, symBinAddr: 0x100001DC0, symSize: 0x20 }
  - { offsetInCU: 0x7EF0, offset: 0x7EF0, size: 0x8, addend: 0x0, symName: __ZNKSt3__19basic_iosIcNS_11char_traitsIcEEE4fillB8ue170006Ev, symObjAddr: 0xA70, symBinAddr: 0x100001DE0, symSize: 0x70 }
  - { offsetInCU: 0x7F16, offset: 0x7F16, size: 0x8, addend: 0x0, symName: __ZNKSt3__119ostreambuf_iteratorIcNS_11char_traitsIcEEE6failedB8ue170006Ev, symObjAddr: 0xAE0, symBinAddr: 0x100001E50, symSize: 0x20 }
  - { offsetInCU: 0x7F3A, offset: 0x7F3A, size: 0x8, addend: 0x0, symName: __ZNSt3__19basic_iosIcNS_11char_traitsIcEEE8setstateB8ue170006Ej, symObjAddr: 0xB00, symBinAddr: 0x100001E70, symSize: 0x30 }
  - { offsetInCU: 0x7F6D, offset: 0x7F6D, size: 0x8, addend: 0x0, symName: __ZNKSt3__18ios_base5widthB8ue170006Ev, symObjAddr: 0xB40, symBinAddr: 0x100001EB0, symSize: 0x20 }
  - { offsetInCU: 0x7F93, offset: 0x7F93, size: 0x8, addend: 0x0, symName: __ZNSt3__115basic_streambufIcNS_11char_traitsIcEEE5sputnB8ue170006EPKcl, symObjAddr: 0xB60, symBinAddr: 0x100001ED0, symSize: 0x30 }
  - { offsetInCU: 0x7FD3, offset: 0x7FD3, size: 0x8, addend: 0x0, symName: __ZNSt3__112basic_stringIcNS_11char_traitsIcEENS_9allocatorIcEEEC1B8ue170006Emc, symObjAddr: 0xB90, symBinAddr: 0x100001F00, symSize: 0x30 }
  - { offsetInCU: 0x8019, offset: 0x8019, size: 0x8, addend: 0x0, symName: __ZNSt3__112basic_stringIcNS_11char_traitsIcEENS_9allocatorIcEEE4dataB8ue170006Ev, symObjAddr: 0xBC0, symBinAddr: 0x100001F30, symSize: 0x30 }
  - { offsetInCU: 0x803D, offset: 0x803D, size: 0x8, addend: 0x0, symName: __ZNSt3__18ios_base5widthB8ue170006El, symObjAddr: 0xBF0, symBinAddr: 0x100001F60, symSize: 0x30 }
  - { offsetInCU: 0x8081, offset: 0x8081, size: 0x8, addend: 0x0, symName: __ZNSt3__112basic_stringIcNS_11char_traitsIcEENS_9allocatorIcEEEC2B8ue170006Emc, symObjAddr: 0xC20, symBinAddr: 0x100001F90, symSize: 0x50 }
  - { offsetInCU: 0x80CC, offset: 0x80CC, size: 0x8, addend: 0x0, symName: __ZNSt3__117__compressed_pairINS_12basic_stringIcNS_11char_traitsIcEENS_9allocatorIcEEE5__repES5_EC1B8ue170006INS_18__default_init_tagESA_EEOT_OT0_, symObjAddr: 0xC70, symBinAddr: 0x100001FE0, symSize: 0x30 }
  - { offsetInCU: 0x8122, offset: 0x8122, size: 0x8, addend: 0x0, symName: __ZNSt3__117__compressed_pairINS_12basic_stringIcNS_11char_traitsIcEENS_9allocatorIcEEE5__repES5_EC2B8ue170006INS_18__default_init_tagESA_EEOT_OT0_, symObjAddr: 0xCA0, symBinAddr: 0x100002010, symSize: 0x30 }
  - { offsetInCU: 0x8178, offset: 0x8178, size: 0x8, addend: 0x0, symName: __ZNSt3__122__compressed_pair_elemINS_12basic_stringIcNS_11char_traitsIcEENS_9allocatorIcEEE5__repELi0ELb0EEC2B8ue170006ENS_18__default_init_tagE, symObjAddr: 0xCD0, symBinAddr: 0x100002040, symSize: 0x10 }
  - { offsetInCU: 0x81AA, offset: 0x81AA, size: 0x8, addend: 0x0, symName: __ZNSt3__122__compressed_pair_elemINS_9allocatorIcEELi1ELb1EEC2B8ue170006ENS_18__default_init_tagE, symObjAddr: 0xCE0, symBinAddr: 0x100002050, symSize: 0x20 }
  - { offsetInCU: 0x81DC, offset: 0x81DC, size: 0x8, addend: 0x0, symName: __ZNSt3__19allocatorIcEC2B8ue170006Ev, symObjAddr: 0xD00, symBinAddr: 0x100002070, symSize: 0x20 }
  - { offsetInCU: 0x8204, offset: 0x8204, size: 0x8, addend: 0x0, symName: __ZNSt3__116__non_trivial_ifILb1ENS_9allocatorIcEEEC2B8ue170006Ev, symObjAddr: 0xD20, symBinAddr: 0x100002090, symSize: 0x10 }
  - { offsetInCU: 0x822C, offset: 0x822C, size: 0x8, addend: 0x0, symName: __ZNSt3__112basic_stringIcNS_11char_traitsIcEENS_9allocatorIcEEE13__get_pointerB8ue170006Ev, symObjAddr: 0xD40, symBinAddr: 0x1000020B0, symSize: 0x50 }
  - { offsetInCU: 0x8250, offset: 0x8250, size: 0x8, addend: 0x0, symName: __ZNKSt3__112basic_stringIcNS_11char_traitsIcEENS_9allocatorIcEEE9__is_longB8ue170006Ev, symObjAddr: 0xD90, symBinAddr: 0x100002100, symSize: 0x30 }
  - { offsetInCU: 0x8274, offset: 0x8274, size: 0x8, addend: 0x0, symName: __ZNSt3__112basic_stringIcNS_11char_traitsIcEENS_9allocatorIcEEE18__get_long_pointerB8ue170006Ev, symObjAddr: 0xDC0, symBinAddr: 0x100002130, symSize: 0x20 }
  - { offsetInCU: 0x8298, offset: 0x8298, size: 0x8, addend: 0x0, symName: __ZNSt3__112basic_stringIcNS_11char_traitsIcEENS_9allocatorIcEEE19__get_short_pointerB8ue170006Ev, symObjAddr: 0xDE0, symBinAddr: 0x100002150, symSize: 0x30 }
  - { offsetInCU: 0x82BC, offset: 0x82BC, size: 0x8, addend: 0x0, symName: __ZNKSt3__117__compressed_pairINS_12basic_stringIcNS_11char_traitsIcEENS_9allocatorIcEEE5__repES5_E5firstB8ue170006Ev, symObjAddr: 0xE10, symBinAddr: 0x100002180, symSize: 0x20 }
  - { offsetInCU: 0x82E0, offset: 0x82E0, size: 0x8, addend: 0x0, symName: __ZNKSt3__122__compressed_pair_elemINS_12basic_stringIcNS_11char_traitsIcEENS_9allocatorIcEEE5__repELi0ELb0EE5__getB8ue170006Ev, symObjAddr: 0xE30, symBinAddr: 0x1000021A0, symSize: 0x10 }
  - { offsetInCU: 0x8304, offset: 0x8304, size: 0x8, addend: 0x0, symName: __ZNSt3__117__compressed_pairINS_12basic_stringIcNS_11char_traitsIcEENS_9allocatorIcEEE5__repES5_E5firstB8ue170006Ev, symObjAddr: 0xE40, symBinAddr: 0x1000021B0, symSize: 0x20 }
  - { offsetInCU: 0x8328, offset: 0x8328, size: 0x8, addend: 0x0, symName: __ZNSt3__122__compressed_pair_elemINS_12basic_stringIcNS_11char_traitsIcEENS_9allocatorIcEEE5__repELi0ELb0EE5__getB8ue170006Ev, symObjAddr: 0xE60, symBinAddr: 0x1000021D0, symSize: 0x10 }
  - { offsetInCU: 0x834C, offset: 0x834C, size: 0x8, addend: 0x0, symName: __ZNSt3__114pointer_traitsIPcE10pointer_toB8ue170006ERc, symObjAddr: 0xE70, symBinAddr: 0x1000021E0, symSize: 0x10 }
  - { offsetInCU: 0x836E, offset: 0x836E, size: 0x8, addend: 0x0, symName: __ZNSt3__119ostreambuf_iteratorIcNS_11char_traitsIcEEEC2B8ue170006ERNS_13basic_ostreamIcS2_EE, symObjAddr: 0xE80, symBinAddr: 0x1000021F0, symSize: 0x50 }
  - { offsetInCU: 0x83A4, offset: 0x83A4, size: 0x8, addend: 0x0, symName: __ZNKSt3__19basic_iosIcNS_11char_traitsIcEEE5rdbufB8ue170006Ev, symObjAddr: 0xED0, symBinAddr: 0x100002240, symSize: 0x20 }
  - { offsetInCU: 0x83CA, offset: 0x83CA, size: 0x8, addend: 0x0, symName: __ZNKSt3__18ios_base5rdbufB8ue170006Ev, symObjAddr: 0xEF0, symBinAddr: 0x100002260, symSize: 0x20 }
  - { offsetInCU: 0x83EE, offset: 0x83EE, size: 0x8, addend: 0x0, symName: __ZNSt3__111char_traitsIcE11eq_int_typeB8ue170006Eii, symObjAddr: 0xF10, symBinAddr: 0x100002280, symSize: 0x20 }
  - { offsetInCU: 0x8420, offset: 0x8420, size: 0x8, addend: 0x0, symName: __ZNSt3__111char_traitsIcE3eofB8ue170006Ev, symObjAddr: 0xF30, symBinAddr: 0x1000022A0, symSize: 0x10 }
  - { offsetInCU: 0x8433, offset: 0x8433, size: 0x8, addend: 0x0, symName: __ZNKSt3__19basic_iosIcNS_11char_traitsIcEEE5widenB8ue170006Ec, symObjAddr: 0xF40, symBinAddr: 0x1000022B0, symSize: 0x80 }
  - { offsetInCU: 0x849F, offset: 0x849F, size: 0x8, addend: 0x0, symName: __ZNKSt3__15ctypeIcE5widenB8ue170006Ec, symObjAddr: 0xFF0, symBinAddr: 0x100002360, symSize: 0x30 }
  - { offsetInCU: 0x84D2, offset: 0x84D2, size: 0x8, addend: 0x0, symName: __ZNSt3__18ios_base8setstateB8ue170006Ej, symObjAddr: 0x1020, symBinAddr: 0x100002390, symSize: 0x30 }
  - { offsetInCU: 0x1275F, offset: 0x1ACBB, size: 0x8, addend: 0x0, symName: __ZNSt3__17getlineB8ue170006IcNS_11char_traitsIcEENS_9allocatorIcEEEERNS_13basic_istreamIT_T0_EES9_RNS_12basic_stringIS6_S7_T1_EES6_, symObjAddr: 0x3F0, symBinAddr: 0x1000027D0, symSize: 0x220 }
  - { offsetInCU: 0x13098, offset: 0x1B5F4, size: 0x8, addend: 0x0, symName: __ZNSt3__17getlineB8ue170006IcNS_11char_traitsIcEENS_9allocatorIcEEEERNS_13basic_istreamIT_T0_EES9_RNS_12basic_stringIS6_S7_T1_EE, symObjAddr: 0xAA0, symBinAddr: 0x100002E80, symSize: 0x50 }
  - { offsetInCU: 0x130FB, offset: 0x1B657, size: 0x8, addend: 0x0, symName: __ZNSt3__14endlB8ue170006IcNS_11char_traitsIcEEEERNS_13basic_ostreamIT_T0_EES7_, symObjAddr: 0xF70, symBinAddr: 0x100003310, symSize: 0x50 }
  - { offsetInCU: 0x1313B, offset: 0x1B697, size: 0x8, addend: 0x0, symName: __ZNSt3__112__to_addressB8ue170006IiEEPT_S2_, symObjAddr: 0x14C0, symBinAddr: 0x100003760, symSize: 0x10 }
  - { offsetInCU: 0x13197, offset: 0x1B6F3, size: 0x8, addend: 0x0, symName: __ZNSt3__112construct_atB8ue170006IiJiEPiEEPT_S3_DpOT0_, symObjAddr: 0x1530, symBinAddr: 0x1000037D0, symSize: 0x30 }
  - { offsetInCU: 0x1320C, offset: 0x1B768, size: 0x8, addend: 0x0, symName: __ZNSt3__13maxB8ue170006ImEERKT_S3_S3_, symObjAddr: 0x1880, symBinAddr: 0x100003B20, symSize: 0x30 }
  - { offsetInCU: 0x1324F, offset: 0x1B7AB, size: 0x8, addend: 0x0, symName: __ZNSt3__13minB8ue170006ImEERKT_S3_S3_, symObjAddr: 0x18B0, symBinAddr: 0x100003B50, symSize: 0x30 }
  - { offsetInCU: 0x1347C, offset: 0x1B9D8, size: 0x8, addend: 0x0, symName: __ZNSt3__13minB8ue170006ImNS_6__lessIvvEEEERKT_S5_S5_T0_, symObjAddr: 0x1930, symBinAddr: 0x100003BD0, symSize: 0x50 }
  - { offsetInCU: 0x1370A, offset: 0x1BC66, size: 0x8, addend: 0x0, symName: __ZNSt3__120__throw_length_errorB8ue170006EPKc, symObjAddr: 0x1A10, symBinAddr: 0x100003CB0, symSize: 0x70 }
  - { offsetInCU: 0x13735, offset: 0x1BC91, size: 0x8, addend: 0x0, symName: __ZNSt3__13maxB8ue170006ImNS_6__lessIvvEEEERKT_S5_S5_T0_, symObjAddr: 0x1B40, symBinAddr: 0x100003DE0, symSize: 0x50 }
  - { offsetInCU: 0x1378F, offset: 0x1BCEB, size: 0x8, addend: 0x0, symName: __ZNSt3__119__allocate_at_leastB8ue170006INS_9allocatorIiEEEEDaRT_m, symObjAddr: 0x1C90, symBinAddr: 0x100003F30, symSize: 0x40 }
  - { offsetInCU: 0x137D2, offset: 0x1BD2E, size: 0x8, addend: 0x0, symName: __ZNSt3__117allocate_at_leastB8ue170006INS_9allocatorIiEEEENS_17allocation_resultINS_16allocator_traitsIT_E7pointerEEERS5_m, symObjAddr: 0x1D70, symBinAddr: 0x100004010, symSize: 0x40 }
  - { offsetInCU: 0x13815, offset: 0x1BD71, size: 0x8, addend: 0x0, symName: __ZNSt3__117__libcpp_allocateB8ue170006Emm, symObjAddr: 0x1E80, symBinAddr: 0x100004120, symSize: 0x60 }
  - { offsetInCU: 0x13870, offset: 0x1BDCC, size: 0x8, addend: 0x0, symName: __ZNSt3__124__is_overaligned_for_newB8ue170006Em, symObjAddr: 0x1EE0, symBinAddr: 0x100004180, symSize: 0x20 }
  - { offsetInCU: 0x1389E, offset: 0x1BDFA, size: 0x8, addend: 0x0, symName: __ZNSt3__121__libcpp_operator_newB8ue170006IJmSt11align_val_tEEEPvDpT_, symObjAddr: 0x1F00, symBinAddr: 0x1000041A0, symSize: 0x30 }
  - { offsetInCU: 0x138EE, offset: 0x1BE4A, size: 0x8, addend: 0x0, symName: __ZNSt3__121__libcpp_operator_newB8ue170006IJmEEEPvDpT_, symObjAddr: 0x1F30, symBinAddr: 0x1000041D0, symSize: 0x20 }
  - { offsetInCU: 0x13929, offset: 0x1BE85, size: 0x8, addend: 0x0, symName: __ZNSt3__142__uninitialized_allocator_move_if_noexceptB8ue170006INS_9allocatorIiEENS_16reverse_iteratorIPiEES5_ivEET1_RT_T0_S9_S6_, symObjAddr: 0x2060, symBinAddr: 0x100004300, symSize: 0x70 }
  - { offsetInCU: 0x139A6, offset: 0x1BF02, size: 0x8, addend: 0x0, symName: __ZNSt3__14swapB8ue170006IPiEENS_9enable_ifIXaasr21is_move_constructibleIT_EE5valuesr18is_move_assignableIS3_EE5valueEvE4typeERS3_S6_, symObjAddr: 0x2120, symBinAddr: 0x1000043C0, symSize: 0x40 }
  - { offsetInCU: 0x139F7, offset: 0x1BF53, size: 0x8, addend: 0x0, symName: __ZNSt3__14moveB8ue170006INS_16reverse_iteratorIPiEES3_EET0_T_S5_S4_, symObjAddr: 0x2250, symBinAddr: 0x1000044F0, symSize: 0x80 }
  - { offsetInCU: 0x13A51, offset: 0x1BFAD, size: 0x8, addend: 0x0, symName: __ZNSt3__16__moveB8ue170006INS_17_ClassicAlgPolicyENS_16reverse_iteratorIPiEES4_S4_EENS_4pairIT0_T2_EES6_T1_S7_, symObjAddr: 0x22D0, symBinAddr: 0x100004570, symSize: 0x90 }
  - { offsetInCU: 0x13ABD, offset: 0x1C019, size: 0x8, addend: 0x0, symName: __ZNSt3__123__dispatch_copy_or_moveB8ue170006INS_17_ClassicAlgPolicyENS_11__move_loopIS1_EENS_14__move_trivialENS_16reverse_iteratorIPiEES7_S7_EENS_4pairIT2_T4_EES9_T3_SA_, symObjAddr: 0x2360, symBinAddr: 0x100004600, symSize: 0x90 }
  - { offsetInCU: 0x13B3B, offset: 0x1C097, size: 0x8, addend: 0x0, symName: __ZNSt3__121__unwrap_and_dispatchB8ue170006INS_10__overloadINS_11__move_loopINS_17_ClassicAlgPolicyEEENS_14__move_trivialEEENS_16reverse_iteratorIPiEES9_S9_Li0EEENS_4pairIT0_T2_EESB_T1_SC_, symObjAddr: 0x23F0, symBinAddr: 0x100004690, symSize: 0x210 }
  - { offsetInCU: 0x13BCB, offset: 0x1C127, size: 0x8, addend: 0x0, symName: __ZNSt3__114__unwrap_rangeB8ue170006INS_16reverse_iteratorIPiEES3_EEDaT_T0_, symObjAddr: 0x2600, symBinAddr: 0x1000048A0, symSize: 0x60 }
  - { offsetInCU: 0x13DD3, offset: 0x1C32F, size: 0x8, addend: 0x0, symName: __ZNSt3__113__unwrap_iterB8ue170006INS_16reverse_iteratorIPiEENS_18__unwrap_iter_implIS3_Lb0EEELi0EEEDTclsrT0_8__unwrapclsr3stdE7declvalIT_EEEES7_, symObjAddr: 0x2700, symBinAddr: 0x1000049A0, symSize: 0x40 }
  - { offsetInCU: 0x13E18, offset: 0x1C374, size: 0x8, addend: 0x0, symName: __ZNSt3__19make_pairB8ue170006INS_16reverse_iteratorIPiEES3_EENS_4pairINS_18__unwrap_ref_decayIT_E4typeENS5_IT0_E4typeEEEOS6_OS9_, symObjAddr: 0x2740, symBinAddr: 0x1000049E0, symSize: 0x30 }
  - { offsetInCU: 0x13E67, offset: 0x1C3C3, size: 0x8, addend: 0x0, symName: __ZNSt3__114__rewrap_rangeB8ue170006INS_16reverse_iteratorIPiEES3_S3_EET0_S4_T1_, symObjAddr: 0x2770, symBinAddr: 0x100004A10, symSize: 0x60 }
  - { offsetInCU: 0x13EBC, offset: 0x1C418, size: 0x8, addend: 0x0, symName: __ZNSt3__113__rewrap_iterB8ue170006INS_16reverse_iteratorIPiEES3_NS_18__unwrap_iter_implIS3_Lb0EEEEET_S6_T0_, symObjAddr: 0x27D0, symBinAddr: 0x100004A70, symSize: 0x70 }
  - { offsetInCU: 0x13F61, offset: 0x1C4BD, size: 0x8, addend: 0x0, symName: __ZNSt3__1neB8ue170006IPiS1_EEbRKNS_16reverse_iteratorIT_EERKNS2_IT0_EE, symObjAddr: 0x2940, symBinAddr: 0x100004BE0, symSize: 0x40 }
  - { offsetInCU: 0x14094, offset: 0x1C5F0, size: 0x8, addend: 0x0, symName: __ZNSt3__110destroy_atB8ue170006IiLi0EEEvPT_, symObjAddr: 0x2CA0, symBinAddr: 0x100004F40, symSize: 0x20 }
  - { offsetInCU: 0x140CD, offset: 0x1C629, size: 0x8, addend: 0x0, symName: __ZNSt3__112__destroy_atB8ue170006IiLi0EEEvPT_, symObjAddr: 0x2CC0, symBinAddr: 0x100004F60, symSize: 0x10 }
  - { offsetInCU: 0x14106, offset: 0x1C662, size: 0x8, addend: 0x0, symName: __ZNSt3__119__libcpp_deallocateB8ue170006EPvmm, symObjAddr: 0x2D10, symBinAddr: 0x100004FB0, symSize: 0x60 }
  - { offsetInCU: 0x1416D, offset: 0x1C6C9, size: 0x8, addend: 0x0, symName: __ZNSt3__127__do_deallocate_handle_sizeB8ue170006IJSt11align_val_tEEEvPvmDpT_, symObjAddr: 0x2D70, symBinAddr: 0x100005010, symSize: 0x30 }
  - { offsetInCU: 0x141C3, offset: 0x1C71F, size: 0x8, addend: 0x0, symName: __ZNSt3__127__do_deallocate_handle_sizeB8ue170006IJEEEvPvmDpT_, symObjAddr: 0x2DA0, symBinAddr: 0x100005040, symSize: 0x20 }
  - { offsetInCU: 0x14203, offset: 0x1C75F, size: 0x8, addend: 0x0, symName: __ZNSt3__124__libcpp_operator_deleteB8ue170006IJPvSt11align_val_tEEEvDpT_, symObjAddr: 0x2DC0, symBinAddr: 0x100005060, symSize: 0x30 }
  - { offsetInCU: 0x14250, offset: 0x1C7AC, size: 0x8, addend: 0x0, symName: __ZNSt3__124__libcpp_operator_deleteB8ue170006IJPvEEEvDpT_, symObjAddr: 0x2DF0, symBinAddr: 0x100005090, symSize: 0x20 }
  - { offsetInCU: 0x14288, offset: 0x1C7E4, size: 0x8, addend: 0x0, symName: __ZNSt3__112__to_addressB8ue170006I8TriangleEEPT_S3_, symObjAddr: 0x3460, symBinAddr: 0x100005700, symSize: 0x10 }
  - { offsetInCU: 0x142E4, offset: 0x1C840, size: 0x8, addend: 0x0, symName: __ZNSt3__112construct_atB8ue170006I8TriangleJS1_EPS1_EEPT_S4_DpOT0_, symObjAddr: 0x34D0, symBinAddr: 0x100005770, symSize: 0x40 }
  - { offsetInCU: 0x14359, offset: 0x1C8B5, size: 0x8, addend: 0x0, symName: __ZNSt3__119__allocate_at_leastB8ue170006INS_9allocatorI8TriangleEEEEDaRT_m, symObjAddr: 0x3A30, symBinAddr: 0x100005CD0, symSize: 0x40 }
  - { offsetInCU: 0x1439C, offset: 0x1C8F8, size: 0x8, addend: 0x0, symName: __ZNSt3__117allocate_at_leastB8ue170006INS_9allocatorI8TriangleEEEENS_17allocation_resultINS_16allocator_traitsIT_E7pointerEEERS6_m, symObjAddr: 0x3B10, symBinAddr: 0x100005DB0, symSize: 0x40 }
  - { offsetInCU: 0x143DF, offset: 0x1C93B, size: 0x8, addend: 0x0, symName: __ZNSt3__142__uninitialized_allocator_move_if_noexceptB8ue170006INS_9allocatorI8TriangleEENS_16reverse_iteratorIPS2_EES6_S2_vEET1_RT_T0_SA_S7_, symObjAddr: 0x3CF0, symBinAddr: 0x100005F90, symSize: 0x70 }
  - { offsetInCU: 0x1445C, offset: 0x1C9B8, size: 0x8, addend: 0x0, symName: __ZNSt3__14swapB8ue170006IP8TriangleEENS_9enable_ifIXaasr21is_move_constructibleIT_EE5valuesr18is_move_assignableIS4_EE5valueEvE4typeERS4_S7_, symObjAddr: 0x3DB0, symBinAddr: 0x100006050, symSize: 0x40 }
  - { offsetInCU: 0x144AD, offset: 0x1CA09, size: 0x8, addend: 0x0, symName: __ZNSt3__14moveB8ue170006INS_16reverse_iteratorIP8TriangleEES4_EET0_T_S6_S5_, symObjAddr: 0x3ED0, symBinAddr: 0x100006170, symSize: 0x80 }
  - { offsetInCU: 0x14507, offset: 0x1CA63, size: 0x8, addend: 0x0, symName: __ZNSt3__16__moveB8ue170006INS_17_ClassicAlgPolicyENS_16reverse_iteratorIP8TriangleEES5_S5_EENS_4pairIT0_T2_EES7_T1_S8_, symObjAddr: 0x3F50, symBinAddr: 0x1000061F0, symSize: 0x90 }
  - { offsetInCU: 0x14573, offset: 0x1CACF, size: 0x8, addend: 0x0, symName: __ZNSt3__123__dispatch_copy_or_moveB8ue170006INS_17_ClassicAlgPolicyENS_11__move_loopIS1_EENS_14__move_trivialENS_16reverse_iteratorIP8TriangleEES8_S8_EENS_4pairIT2_T4_EESA_T3_SB_, symObjAddr: 0x3FE0, symBinAddr: 0x100006280, symSize: 0x90 }
  - { offsetInCU: 0x145F1, offset: 0x1CB4D, size: 0x8, addend: 0x0, symName: __ZNSt3__121__unwrap_and_dispatchB8ue170006INS_10__overloadINS_11__move_loopINS_17_ClassicAlgPolicyEEENS_14__move_trivialEEENS_16reverse_iteratorIP8TriangleEESA_SA_Li0EEENS_4pairIT0_T2_EESC_T1_SD_, symObjAddr: 0x4070, symBinAddr: 0x100006310, symSize: 0x210 }
  - { offsetInCU: 0x14681, offset: 0x1CBDD, size: 0x8, addend: 0x0, symName: __ZNSt3__114__unwrap_rangeB8ue170006INS_16reverse_iteratorIP8TriangleEES4_EEDaT_T0_, symObjAddr: 0x4280, symBinAddr: 0x100006520, symSize: 0x60 }
  - { offsetInCU: 0x147EF, offset: 0x1CD4B, size: 0x8, addend: 0x0, symName: __ZNSt3__113__unwrap_iterB8ue170006INS_16reverse_iteratorIP8TriangleEENS_18__unwrap_iter_implIS4_Lb0EEELi0EEEDTclsrT0_8__unwrapclsr3stdE7declvalIT_EEEES8_, symObjAddr: 0x4390, symBinAddr: 0x100006630, symSize: 0x40 }
  - { offsetInCU: 0x14834, offset: 0x1CD90, size: 0x8, addend: 0x0, symName: __ZNSt3__19make_pairB8ue170006INS_16reverse_iteratorIP8TriangleEES4_EENS_4pairINS_18__unwrap_ref_decayIT_E4typeENS6_IT0_E4typeEEEOS7_OSA_, symObjAddr: 0x43D0, symBinAddr: 0x100006670, symSize: 0x30 }
  - { offsetInCU: 0x14883, offset: 0x1CDDF, size: 0x8, addend: 0x0, symName: __ZNSt3__114__rewrap_rangeB8ue170006INS_16reverse_iteratorIP8TriangleEES4_S4_EET0_S5_T1_, symObjAddr: 0x4400, symBinAddr: 0x1000066A0, symSize: 0x60 }
  - { offsetInCU: 0x148D8, offset: 0x1CE34, size: 0x8, addend: 0x0, symName: __ZNSt3__113__rewrap_iterB8ue170006INS_16reverse_iteratorIP8TriangleEES4_NS_18__unwrap_iter_implIS4_Lb0EEEEET_S7_T0_, symObjAddr: 0x4460, symBinAddr: 0x100006700, symSize: 0x70 }
  - { offsetInCU: 0x1497D, offset: 0x1CED9, size: 0x8, addend: 0x0, symName: __ZNSt3__1neB8ue170006IP8TriangleS2_EEbRKNS_16reverse_iteratorIT_EERKNS3_IT0_EE, symObjAddr: 0x45D0, symBinAddr: 0x100006870, symSize: 0x40 }
  - { offsetInCU: 0x14A37, offset: 0x1CF93, size: 0x8, addend: 0x0, symName: __ZNSt3__110destroy_atB8ue170006I8TriangleLi0EEEvPT_, symObjAddr: 0x4940, symBinAddr: 0x100006BE0, symSize: 0x20 }
  - { offsetInCU: 0x14A70, offset: 0x1CFCC, size: 0x8, addend: 0x0, symName: __ZNSt3__112__destroy_atB8ue170006I8TriangleLi0EEEvPT_, symObjAddr: 0x4960, symBinAddr: 0x100006C00, symSize: 0x10 }
  - { offsetInCU: 0x14AA9, offset: 0x1D005, size: 0x8, addend: 0x0, symName: __ZNSt3__120__throw_out_of_rangeB8ue170006EPKc, symObjAddr: 0x4C50, symBinAddr: 0x100006EF0, symSize: 0x70 }
  - { offsetInCU: 0x1501D, offset: 0x1D579, size: 0x8, addend: 0x0, symName: __ZSt28__throw_bad_array_new_lengthB8ue170006v, symObjAddr: 0x1E40, symBinAddr: 0x1000040E0, symSize: 0x40 }
  - { offsetInCU: 0x159B6, offset: 0x1DF12, size: 0x8, addend: 0x0, symName: __ZNSt3__16vectorIiNS_9allocatorIiEEE26__swap_out_circular_bufferERNS_14__split_bufferIiRS2_EE, symObjAddr: 0x1690, symBinAddr: 0x100003930, symSize: 0x120 }
  - { offsetInCU: 0x15BD4, offset: 0x1E130, size: 0x8, addend: 0x0, symName: __ZNSt3__16vectorI8TriangleNS_9allocatorIS1_EEE26__swap_out_circular_bufferERNS_14__split_bufferIS1_RS3_EE, symObjAddr: 0x3670, symBinAddr: 0x100005910, symSize: 0x120 }
  - { offsetInCU: 0x17A91, offset: 0x1FFED, size: 0x8, addend: 0x0, symName: __Z11parseStringRKNSt3__112basic_stringIcNS_11char_traitsIcEENS_9allocatorIcEEEE, symObjAddr: 0x0, symBinAddr: 0x1000023E0, symSize: 0x2B0 }
  - { offsetInCU: 0x17BE2, offset: 0x2013E, size: 0x8, addend: 0x0, symName: __ZNSt3__118basic_stringstreamIcNS_11char_traitsIcEENS_9allocatorIcEEEC1B8ue170006ERKNS_12basic_stringIcS2_S4_EEj, symObjAddr: 0x2B0, symBinAddr: 0x100002690, symSize: 0x100 }
  - { offsetInCU: 0x17C28, offset: 0x20184, size: 0x8, addend: 0x0, symName: __ZNSt3__16vectorIiNS_9allocatorIiEEEC1B8ue170006Ev, symObjAddr: 0x3B0, symBinAddr: 0x100002790, symSize: 0x20 }
  - { offsetInCU: 0x17C50, offset: 0x201AC, size: 0x8, addend: 0x0, symName: __ZNSt3__112basic_stringIcNS_11char_traitsIcEENS_9allocatorIcEEEC1B8ue170006Ev, symObjAddr: 0x3D0, symBinAddr: 0x1000027B0, symSize: 0x20 }
  - { offsetInCU: 0x17C78, offset: 0x201D4, size: 0x8, addend: 0x0, symName: __ZNKSt3__19basic_iosIcNS_11char_traitsIcEEEcvbB8ue170006Ev, symObjAddr: 0x610, symBinAddr: 0x1000029F0, symSize: 0x30 }
  - { offsetInCU: 0x17C9C, offset: 0x201F8, size: 0x8, addend: 0x0, symName: __ZNSt3__16vectorIiNS_9allocatorIiEEE9push_backB8ue170006EOi, symObjAddr: 0x640, symBinAddr: 0x100002A20, symSize: 0x60 }
  - { offsetInCU: 0x17CD1, offset: 0x2022D, size: 0x8, addend: 0x0, symName: __ZNKSt3__16vectorIiNS_9allocatorIiEEE4sizeB8ue170006Ev, symObjAddr: 0x6A0, symBinAddr: 0x100002A80, symSize: 0x20 }
  - { offsetInCU: 0x17CF5, offset: 0x20251, size: 0x8, addend: 0x0, symName: __ZNSt3__16vectorIiNS_9allocatorIiEEEixB8ue170006Em, symObjAddr: 0x6C0, symBinAddr: 0x100002AA0, symSize: 0x20 }
  - { offsetInCU: 0x17D2A, offset: 0x20286, size: 0x8, addend: 0x0, symName: __ZNSt3__16vectorIiNS_9allocatorIiEEED1B8ue170006Ev, symObjAddr: 0x6E0, symBinAddr: 0x100002AC0, symSize: 0x20 }
  - { offsetInCU: 0x17D57, offset: 0x202B3, size: 0x8, addend: 0x0, symName: __ZNSt3__118basic_stringstreamIcNS_11char_traitsIcEENS_9allocatorIcEEED1Ev, symObjAddr: 0x700, symBinAddr: 0x100002AE0, symSize: 0x40 }
  - { offsetInCU: 0x17D82, offset: 0x202DE, size: 0x8, addend: 0x0, symName: __Z8readFilev, symObjAddr: 0x740, symBinAddr: 0x100002B20, symSize: 0x1C0 }
  - { offsetInCU: 0x17E6D, offset: 0x203C9, size: 0x8, addend: 0x0, symName: __ZNSt3__114basic_ifstreamIcNS_11char_traitsIcEEEC1EPKcj, symObjAddr: 0x900, symBinAddr: 0x100002CE0, symSize: 0x160 }
  - { offsetInCU: 0x17EB6, offset: 0x20412, size: 0x8, addend: 0x0, symName: __ZNSt3__16vectorI8TriangleNS_9allocatorIS1_EEEC1B8ue170006Ev, symObjAddr: 0xA60, symBinAddr: 0x100002E40, symSize: 0x20 }
  - { offsetInCU: 0x17EDE, offset: 0x2043A, size: 0x8, addend: 0x0, symName: __ZNKSt3__19basic_iosIcNS_11char_traitsIcEEE4goodB8ue170006Ev, symObjAddr: 0xA80, symBinAddr: 0x100002E60, symSize: 0x20 }
  - { offsetInCU: 0x17F02, offset: 0x2045E, size: 0x8, addend: 0x0, symName: __ZNSt3__16vectorI8TriangleNS_9allocatorIS1_EEE9push_backB8ue170006EOS1_, symObjAddr: 0xAF0, symBinAddr: 0x100002ED0, symSize: 0x60 }
  - { offsetInCU: 0x17F37, offset: 0x20493, size: 0x8, addend: 0x0, symName: __ZNSt3__16vectorI8TriangleNS_9allocatorIS1_EEED1B8ue170006Ev, symObjAddr: 0xB50, symBinAddr: 0x100002F30, symSize: 0x20 }
  - { offsetInCU: 0x17F64, offset: 0x204C0, size: 0x8, addend: 0x0, symName: __ZNSt3__114basic_ifstreamIcNS_11char_traitsIcEEED1Ev, symObjAddr: 0xB70, symBinAddr: 0x100002F50, symSize: 0x40 }
  - { offsetInCU: 0x17F8F, offset: 0x204EB, size: 0x8, addend: 0x0, symName: __Z8containsR8Triangleii, symObjAddr: 0xBB0, symBinAddr: 0x100002F90, symSize: 0x1B0 }
  - { offsetInCU: 0x18011, offset: 0x2056D, size: 0x8, addend: 0x0, symName: _main, symObjAddr: 0xD60, symBinAddr: 0x100003140, symSize: 0x150 }
  - { offsetInCU: 0x18056, offset: 0x205B2, size: 0x8, addend: 0x0, symName: __ZNSt3__16vectorI8TriangleNS_9allocatorIS1_EEE2atEm, symObjAddr: 0xEB0, symBinAddr: 0x100003290, symSize: 0x60 }
  - { offsetInCU: 0x1808B, offset: 0x205E7, size: 0x8, addend: 0x0, symName: __ZNSt3__113basic_ostreamIcNS_11char_traitsIcEEElsB8ue170006EPFRS3_S4_E, symObjAddr: 0xF50, symBinAddr: 0x1000032F0, symSize: 0x20 }
  - { offsetInCU: 0x180BD, offset: 0x20619, size: 0x8, addend: 0x0, symName: __ZNSt3__16vectorIiNS_9allocatorIiEEEC2B8ue170006Ev, symObjAddr: 0xFC0, symBinAddr: 0x100003360, symSize: 0x50 }
  - { offsetInCU: 0x180EF, offset: 0x2064B, size: 0x8, addend: 0x0, symName: __ZNSt3__117__compressed_pairIPiNS_9allocatorIiEEEC1B8ue170006IDnNS_18__default_init_tagEEEOT_OT0_, symObjAddr: 0x1010, symBinAddr: 0x1000033B0, symSize: 0x30 }
  - { offsetInCU: 0x18145, offset: 0x206A1, size: 0x8, addend: 0x0, symName: __ZNSt3__117__compressed_pairIPiNS_9allocatorIiEEEC2B8ue170006IDnNS_18__default_init_tagEEEOT_OT0_, symObjAddr: 0x1050, symBinAddr: 0x1000033E0, symSize: 0x40 }
  - { offsetInCU: 0x1819B, offset: 0x206F7, size: 0x8, addend: 0x0, symName: __ZNSt3__122__compressed_pair_elemIPiLi0ELb0EEC2B8ue170006IDnvEEOT_, symObjAddr: 0x1090, symBinAddr: 0x100003420, symSize: 0x20 }
  - { offsetInCU: 0x181DB, offset: 0x20737, size: 0x8, addend: 0x0, symName: __ZNSt3__122__compressed_pair_elemINS_9allocatorIiEELi1ELb1EEC2B8ue170006ENS_18__default_init_tagE, symObjAddr: 0x10B0, symBinAddr: 0x100003440, symSize: 0x20 }
  - { offsetInCU: 0x1820D, offset: 0x20769, size: 0x8, addend: 0x0, symName: __ZNSt3__19allocatorIiEC2B8ue170006Ev, symObjAddr: 0x10D0, symBinAddr: 0x100003460, symSize: 0x20 }
  - { offsetInCU: 0x18235, offset: 0x20791, size: 0x8, addend: 0x0, symName: __ZNSt3__116__non_trivial_ifILb1ENS_9allocatorIiEEEC2B8ue170006Ev, symObjAddr: 0x10F0, symBinAddr: 0x100003480, symSize: 0x10 }
  - { offsetInCU: 0x1825D, offset: 0x207B9, size: 0x8, addend: 0x0, symName: __ZNSt3__112basic_stringIcNS_11char_traitsIcEENS_9allocatorIcEEEC2B8ue170006Ev, symObjAddr: 0x1100, symBinAddr: 0x100003490, symSize: 0x50 }
  - { offsetInCU: 0x18285, offset: 0x207E1, size: 0x8, addend: 0x0, symName: __ZNSt3__112basic_stringIcNS_11char_traitsIcEENS_9allocatorIcEEE14__default_initB8ue170006Ev, symObjAddr: 0x1180, symBinAddr: 0x1000034E0, symSize: 0x50 }
  - { offsetInCU: 0x182A9, offset: 0x20805, size: 0x8, addend: 0x0, symName: __ZNSt3__16vectorIiNS_9allocatorIiEEE9__end_capB8ue170006Ev, symObjAddr: 0x1290, symBinAddr: 0x100003530, symSize: 0x20 }
  - { offsetInCU: 0x182D2, offset: 0x2082E, size: 0x8, addend: 0x0, symName: __ZNSt3__16vectorIiNS_9allocatorIiEEE22__construct_one_at_endB8ue170006IJiEEEvDpOT_, symObjAddr: 0x12B0, symBinAddr: 0x100003550, symSize: 0x90 }
  - { offsetInCU: 0x18321, offset: 0x2087D, size: 0x8, addend: 0x0, symName: __ZNSt3__16vectorIiNS_9allocatorIiEEE21__push_back_slow_pathIiEEvOT_, symObjAddr: 0x1340, symBinAddr: 0x1000035E0, symSize: 0xD0 }
  - { offsetInCU: 0x1837D, offset: 0x208D9, size: 0x8, addend: 0x0, symName: __ZNSt3__117__compressed_pairIPiNS_9allocatorIiEEE5firstB8ue170006Ev, symObjAddr: 0x1410, symBinAddr: 0x1000036B0, symSize: 0x20 }
  - { offsetInCU: 0x183A1, offset: 0x208FD, size: 0x8, addend: 0x0, symName: __ZNSt3__122__compressed_pair_elemIPiLi0ELb0EE5__getB8ue170006Ev, symObjAddr: 0x1430, symBinAddr: 0x1000036D0, symSize: 0x10 }
  - { offsetInCU: 0x183DE, offset: 0x2093A, size: 0x8, addend: 0x0, symName: __ZNSt3__16vectorIiNS_9allocatorIiEEE21_ConstructTransactionC1B8ue170006ERS3_m, symObjAddr: 0x1440, symBinAddr: 0x1000036E0, symSize: 0x30 }
  - { offsetInCU: 0x18424, offset: 0x20980, size: 0x8, addend: 0x0, symName: __ZNSt3__116allocator_traitsINS_9allocatorIiEEE9constructB8ue170006IiJiEvvEEvRS2_PT_DpOT0_, symObjAddr: 0x1470, symBinAddr: 0x100003710, symSize: 0x30 }
  - { offsetInCU: 0x1847A, offset: 0x209D6, size: 0x8, addend: 0x0, symName: __ZNSt3__16vectorIiNS_9allocatorIiEEE7__allocB8ue170006Ev, symObjAddr: 0x14A0, symBinAddr: 0x100003740, symSize: 0x20 }
  - { offsetInCU: 0x1849E, offset: 0x209FA, size: 0x8, addend: 0x0, symName: __ZNSt3__16vectorIiNS_9allocatorIiEEE21_ConstructTransactionD1B8ue170006Ev, symObjAddr: 0x14D0, symBinAddr: 0x100003770, symSize: 0x20 }
  - { offsetInCU: 0x184C6, offset: 0x20A22, size: 0x8, addend: 0x0, symName: __ZNSt3__16vectorIiNS_9allocatorIiEEE21_ConstructTransactionC2B8ue170006ERS3_m, symObjAddr: 0x14F0, symBinAddr: 0x100003790, symSize: 0x40 }
  - { offsetInCU: 0x1850C, offset: 0x20A68, size: 0x8, addend: 0x0, symName: __ZNSt3__117__compressed_pairIPiNS_9allocatorIiEEE6secondB8ue170006Ev, symObjAddr: 0x1560, symBinAddr: 0x100003800, symSize: 0x20 }
  - { offsetInCU: 0x18530, offset: 0x20A8C, size: 0x8, addend: 0x0, symName: __ZNSt3__122__compressed_pair_elemINS_9allocatorIiEELi1ELb1EE5__getB8ue170006Ev, symObjAddr: 0x1580, symBinAddr: 0x100003820, symSize: 0x10 }
  - { offsetInCU: 0x18554, offset: 0x20AB0, size: 0x8, addend: 0x0, symName: __ZNSt3__16vectorIiNS_9allocatorIiEEE21_ConstructTransactionD2B8ue170006Ev, symObjAddr: 0x1590, symBinAddr: 0x100003830, symSize: 0x20 }
  - { offsetInCU: 0x1857C, offset: 0x20AD8, size: 0x8, addend: 0x0, symName: __ZNKSt3__16vectorIiNS_9allocatorIiEEE11__recommendB8ue170006Em, symObjAddr: 0x15B0, symBinAddr: 0x100003850, symSize: 0xA0 }
  - { offsetInCU: 0x185CF, offset: 0x20B2B, size: 0x8, addend: 0x0, symName: __ZNSt3__114__split_bufferIiRNS_9allocatorIiEEEC1EmmS3_, symObjAddr: 0x1650, symBinAddr: 0x1000038F0, symSize: 0x40 }
  - { offsetInCU: 0x18624, offset: 0x20B80, size: 0x8, addend: 0x0, symName: __ZNSt3__114__split_bufferIiRNS_9allocatorIiEEED1Ev, symObjAddr: 0x17B0, symBinAddr: 0x100003A50, symSize: 0x20 }
  - { offsetInCU: 0x1864F, offset: 0x20BAB, size: 0x8, addend: 0x0, symName: __ZNKSt3__16vectorIiNS_9allocatorIiEEE8max_sizeEv, symObjAddr: 0x17D0, symBinAddr: 0x100003A70, symSize: 0x60 }
  - { offsetInCU: 0x18675, offset: 0x20BD1, size: 0x8, addend: 0x0, symName: __ZNKSt3__16vectorIiNS_9allocatorIiEEE20__throw_length_errorB8ue170006Ev, symObjAddr: 0x1830, symBinAddr: 0x100003AD0, symSize: 0x20 }
  - { offsetInCU: 0x18699, offset: 0x20BF5, size: 0x8, addend: 0x0, symName: __ZNKSt3__16vectorIiNS_9allocatorIiEEE8capacityB8ue170006Ev, symObjAddr: 0x1850, symBinAddr: 0x100003AF0, symSize: 0x30 }
  - { offsetInCU: 0x186C7, offset: 0x20C23, size: 0x8, addend: 0x0, symName: __ZNSt3__116allocator_traitsINS_9allocatorIiEEE8max_sizeB8ue170006IS2_vvEEmRKS2_, symObjAddr: 0x18E0, symBinAddr: 0x100003B80, symSize: 0x20 }
  - { offsetInCU: 0x186F2, offset: 0x20C4E, size: 0x8, addend: 0x0, symName: __ZNKSt3__16vectorIiNS_9allocatorIiEEE7__allocB8ue170006Ev, symObjAddr: 0x1900, symBinAddr: 0x100003BA0, symSize: 0x20 }
  - { offsetInCU: 0x18716, offset: 0x20C72, size: 0x8, addend: 0x0, symName: __ZNSt3__114numeric_limitsIlE3maxB8ue170006Ev, symObjAddr: 0x1920, symBinAddr: 0x100003BC0, symSize: 0x10 }
  - { offsetInCU: 0x1873D, offset: 0x20C99, size: 0x8, addend: 0x0, symName: __ZNKSt3__16__lessIvvEclB8ue170006ImmEEbRKT_RKT0_, symObjAddr: 0x1980, symBinAddr: 0x100003C20, symSize: 0x30 }
  - { offsetInCU: 0x1878F, offset: 0x20CEB, size: 0x8, addend: 0x0, symName: __ZNSt3__114numeric_limitsImE3maxB8ue170006Ev, symObjAddr: 0x19B0, symBinAddr: 0x100003C50, symSize: 0x10 }
  - { offsetInCU: 0x187A2, offset: 0x20CFE, size: 0x8, addend: 0x0, symName: __ZNSt3__123__libcpp_numeric_limitsImLb1EE3maxB8ue170006Ev, symObjAddr: 0x19C0, symBinAddr: 0x100003C60, symSize: 0x10 }
  - { offsetInCU: 0x187B5, offset: 0x20D11, size: 0x8, addend: 0x0, symName: __ZNKSt3__117__compressed_pairIPiNS_9allocatorIiEEE6secondB8ue170006Ev, symObjAddr: 0x19D0, symBinAddr: 0x100003C70, symSize: 0x20 }
  - { offsetInCU: 0x187D9, offset: 0x20D35, size: 0x8, addend: 0x0, symName: __ZNKSt3__122__compressed_pair_elemINS_9allocatorIiEELi1ELb1EE5__getB8ue170006Ev, symObjAddr: 0x19F0, symBinAddr: 0x100003C90, symSize: 0x10 }
  - { offsetInCU: 0x187FD, offset: 0x20D59, size: 0x8, addend: 0x0, symName: __ZNSt3__123__libcpp_numeric_limitsIlLb1EE3maxB8ue170006Ev, symObjAddr: 0x1A00, symBinAddr: 0x100003CA0, symSize: 0x10 }
  - { offsetInCU: 0x18810, offset: 0x20D6C, size: 0x8, addend: 0x0, symName: __ZNSt12length_errorC1B8ue170006EPKc, symObjAddr: 0x1A80, symBinAddr: 0x100003D20, symSize: 0x30 }
  - { offsetInCU: 0x18846, offset: 0x20DA2, size: 0x8, addend: 0x0, symName: __ZNSt12length_errorC2B8ue170006EPKc, symObjAddr: 0x1AB0, symBinAddr: 0x100003D50, symSize: 0x40 }
  - { offsetInCU: 0x1887C, offset: 0x20DD8, size: 0x8, addend: 0x0, symName: __ZNKSt3__16vectorIiNS_9allocatorIiEEE9__end_capB8ue170006Ev, symObjAddr: 0x1AF0, symBinAddr: 0x100003D90, symSize: 0x20 }
  - { offsetInCU: 0x188A0, offset: 0x20DFC, size: 0x8, addend: 0x0, symName: __ZNKSt3__117__compressed_pairIPiNS_9allocatorIiEEE5firstB8ue170006Ev, symObjAddr: 0x1B10, symBinAddr: 0x100003DB0, symSize: 0x20 }
  - { offsetInCU: 0x188C4, offset: 0x20E20, size: 0x8, addend: 0x0, symName: __ZNKSt3__122__compressed_pair_elemIPiLi0ELb0EE5__getB8ue170006Ev, symObjAddr: 0x1B30, symBinAddr: 0x100003DD0, symSize: 0x10 }
  - { offsetInCU: 0x188E8, offset: 0x20E44, size: 0x8, addend: 0x0, symName: __ZNSt3__114__split_bufferIiRNS_9allocatorIiEEEC2EmmS3_, symObjAddr: 0x1B90, symBinAddr: 0x100003E30, symSize: 0xD0 }
  - { offsetInCU: 0x1895B, offset: 0x20EB7, size: 0x8, addend: 0x0, symName: __ZNSt3__117__compressed_pairIPiRNS_9allocatorIiEEEC1B8ue170006IDnS4_EEOT_OT0_, symObjAddr: 0x1C60, symBinAddr: 0x100003F00, symSize: 0x30 }
  - { offsetInCU: 0x189B1, offset: 0x20F0D, size: 0x8, addend: 0x0, symName: __ZNSt3__114__split_bufferIiRNS_9allocatorIiEEE7__allocB8ue170006Ev, symObjAddr: 0x1CD0, symBinAddr: 0x100003F70, symSize: 0x20 }
  - { offsetInCU: 0x189D5, offset: 0x20F31, size: 0x8, addend: 0x0, symName: __ZNSt3__114__split_bufferIiRNS_9allocatorIiEEE9__end_capB8ue170006Ev, symObjAddr: 0x1CF0, symBinAddr: 0x100003F90, symSize: 0x20 }
  - { offsetInCU: 0x189F9, offset: 0x20F55, size: 0x8, addend: 0x0, symName: __ZNSt3__117__compressed_pairIPiRNS_9allocatorIiEEEC2B8ue170006IDnS4_EEOT_OT0_, symObjAddr: 0x1D10, symBinAddr: 0x100003FB0, symSize: 0x40 }
  - { offsetInCU: 0x18A4F, offset: 0x20FAB, size: 0x8, addend: 0x0, symName: __ZNSt3__122__compressed_pair_elemIRNS_9allocatorIiEELi1ELb0EEC2B8ue170006IS3_vEEOT_, symObjAddr: 0x1D50, symBinAddr: 0x100003FF0, symSize: 0x20 }
  - { offsetInCU: 0x18A8F, offset: 0x20FEB, size: 0x8, addend: 0x0, symName: __ZNSt3__19allocatorIiE17allocate_at_leastB8ue170006Em, symObjAddr: 0x1DB0, symBinAddr: 0x100004050, symSize: 0x40 }
  - { offsetInCU: 0x18AC1, offset: 0x2101D, size: 0x8, addend: 0x0, symName: __ZNSt3__19allocatorIiE8allocateB8ue170006Em, symObjAddr: 0x1DF0, symBinAddr: 0x100004090, symSize: 0x50 }
  - { offsetInCU: 0x18AF3, offset: 0x2104F, size: 0x8, addend: 0x0, symName: __ZNSt3__117__compressed_pairIPiRNS_9allocatorIiEEE6secondB8ue170006Ev, symObjAddr: 0x1F50, symBinAddr: 0x1000041F0, symSize: 0x20 }
  - { offsetInCU: 0x18B17, offset: 0x21073, size: 0x8, addend: 0x0, symName: __ZNSt3__122__compressed_pair_elemIRNS_9allocatorIiEELi1ELb0EE5__getB8ue170006Ev, symObjAddr: 0x1F70, symBinAddr: 0x100004210, symSize: 0x20 }
  - { offsetInCU: 0x18B3B, offset: 0x21097, size: 0x8, addend: 0x0, symName: __ZNSt3__117__compressed_pairIPiRNS_9allocatorIiEEE5firstB8ue170006Ev, symObjAddr: 0x1F90, symBinAddr: 0x100004230, symSize: 0x20 }
  - { offsetInCU: 0x18B5F, offset: 0x210BB, size: 0x8, addend: 0x0, symName: __ZNKSt3__16vectorIiNS_9allocatorIiEEE17__annotate_deleteB8ue170006Ev, symObjAddr: 0x1FB0, symBinAddr: 0x100004250, symSize: 0xB0 }
  - { offsetInCU: 0x18B83, offset: 0x210DF, size: 0x8, addend: 0x0, symName: __ZNSt3__116reverse_iteratorIPiEC1B8ue170006ES1_, symObjAddr: 0x20D0, symBinAddr: 0x100004370, symSize: 0x30 }
  - { offsetInCU: 0x18BB9, offset: 0x21115, size: 0x8, addend: 0x0, symName: __ZNKSt3__116reverse_iteratorIPiE4baseB8ue170006Ev, symObjAddr: 0x2100, symBinAddr: 0x1000043A0, symSize: 0x20 }
  - { offsetInCU: 0x18BDD, offset: 0x21139, size: 0x8, addend: 0x0, symName: __ZNKSt3__16vectorIiNS_9allocatorIiEEE14__annotate_newB8ue170006Em, symObjAddr: 0x2160, symBinAddr: 0x100004400, symSize: 0xB0 }
  - { offsetInCU: 0x18C10, offset: 0x2116C, size: 0x8, addend: 0x0, symName: __ZNKSt3__16vectorIiNS_9allocatorIiEEE31__annotate_contiguous_containerB8ue170006EPKvS5_S5_S5_, symObjAddr: 0x2210, symBinAddr: 0x1000044B0, symSize: 0x20 }
  - { offsetInCU: 0x18C64, offset: 0x211C0, size: 0x8, addend: 0x0, symName: __ZNKSt3__16vectorIiNS_9allocatorIiEEE4dataB8ue170006Ev, symObjAddr: 0x2230, symBinAddr: 0x1000044D0, symSize: 0x20 }
  - { offsetInCU: 0x18CB0, offset: 0x2120C, size: 0x8, addend: 0x0, symName: __ZNKSt3__111__move_loopINS_17_ClassicAlgPolicyEEclB8ue170006INS_16reverse_iteratorIPiEES6_S6_EENS_4pairIT_T1_EES8_T0_S9_, symObjAddr: 0x2660, symBinAddr: 0x100004900, symSize: 0xA0 }
  - { offsetInCU: 0x18D19, offset: 0x21275, size: 0x8, addend: 0x0, symName: __ZNSt3__119__unwrap_range_implINS_16reverse_iteratorIPiEES3_E8__unwrapB8ue170006ES3_S3_, symObjAddr: 0x2840, symBinAddr: 0x100004AE0, symSize: 0x90 }
  - { offsetInCU: 0x18D4E, offset: 0x212AA, size: 0x8, addend: 0x0, symName: __ZNSt3__14pairINS_16reverse_iteratorIPiEES3_EC1B8ue170006IS3_S3_LPv0EEEOT_OT0_, symObjAddr: 0x28D0, symBinAddr: 0x100004B70, symSize: 0x30 }
  - { offsetInCU: 0x18DAB, offset: 0x21307, size: 0x8, addend: 0x0, symName: __ZNSt3__14pairINS_16reverse_iteratorIPiEES3_EC2B8ue170006IS3_S3_LPv0EEEOT_OT0_, symObjAddr: 0x2900, symBinAddr: 0x100004BA0, symSize: 0x40 }
  - { offsetInCU: 0x18E08, offset: 0x21364, size: 0x8, addend: 0x0, symName: __ZNSt3__18_IterOpsINS_17_ClassicAlgPolicyEE11__iter_moveB8ue170006IRNS_16reverse_iteratorIPiEEEENS_9enable_ifIXsr12is_referenceIDTdeclsr3stdE7declvalIRT_EEEEE5valueEDTclsr3stdE4movedeclsr3stdE7declvalISA_EEEEE4typeEOS9_, symObjAddr: 0x2980, symBinAddr: 0x100004C20, symSize: 0x20 }
  - { offsetInCU: 0x18E33, offset: 0x2138F, size: 0x8, addend: 0x0, symName: __ZNKSt3__116reverse_iteratorIPiEdeB8ue170006Ev, symObjAddr: 0x29A0, symBinAddr: 0x100004C40, symSize: 0x30 }
  - { offsetInCU: 0x18E65, offset: 0x213C1, size: 0x8, addend: 0x0, symName: __ZNSt3__116reverse_iteratorIPiEppB8ue170006Ev, symObjAddr: 0x29D0, symBinAddr: 0x100004C70, symSize: 0x20 }
  - { offsetInCU: 0x18E89, offset: 0x213E5, size: 0x8, addend: 0x0, symName: __ZNSt3__18_IterOpsINS_17_ClassicAlgPolicyEE25__validate_iter_referenceB8ue170006IRNS_16reverse_iteratorIPiEEEEvv, symObjAddr: 0x29F0, symBinAddr: 0x100004C90, symSize: 0x10 }
  - { offsetInCU: 0x18EA6, offset: 0x21402, size: 0x8, addend: 0x0, symName: __ZNSt3__118__unwrap_iter_implINS_16reverse_iteratorIPiEELb0EE8__unwrapB8ue170006ES3_, symObjAddr: 0x2A00, symBinAddr: 0x100004CA0, symSize: 0x20 }
  - { offsetInCU: 0x18EC8, offset: 0x21424, size: 0x8, addend: 0x0, symName: __ZNSt3__119__unwrap_range_implINS_16reverse_iteratorIPiEES3_E8__rewrapB8ue170006ES3_S3_, symObjAddr: 0x2A20, symBinAddr: 0x100004CC0, symSize: 0x60 }
  - { offsetInCU: 0x18EF8, offset: 0x21454, size: 0x8, addend: 0x0, symName: __ZNSt3__118__unwrap_iter_implINS_16reverse_iteratorIPiEELb0EE8__rewrapB8ue170006ES3_S3_, symObjAddr: 0x2A80, symBinAddr: 0x100004D20, symSize: 0x30 }
  - { offsetInCU: 0x18F24, offset: 0x21480, size: 0x8, addend: 0x0, symName: __ZNSt3__116reverse_iteratorIPiEC2B8ue170006ES1_, symObjAddr: 0x2AB0, symBinAddr: 0x100004D50, symSize: 0x30 }
  - { offsetInCU: 0x18F5A, offset: 0x214B6, size: 0x8, addend: 0x0, symName: __ZNSt3__114__split_bufferIiRNS_9allocatorIiEEED2Ev, symObjAddr: 0x2AE0, symBinAddr: 0x100004D80, symSize: 0x70 }
  - { offsetInCU: 0x18F85, offset: 0x214E1, size: 0x8, addend: 0x0, symName: __ZNSt3__114__split_bufferIiRNS_9allocatorIiEEE5clearB8ue170006Ev, symObjAddr: 0x2B50, symBinAddr: 0x100004DF0, symSize: 0x20 }
  - { offsetInCU: 0x18FA9, offset: 0x21505, size: 0x8, addend: 0x0, symName: __ZNSt3__116allocator_traitsINS_9allocatorIiEEE10deallocateB8ue170006ERS2_Pim, symObjAddr: 0x2B70, symBinAddr: 0x100004E10, symSize: 0x30 }
  - { offsetInCU: 0x18FEA, offset: 0x21546, size: 0x8, addend: 0x0, symName: __ZNKSt3__114__split_bufferIiRNS_9allocatorIiEEE8capacityB8ue170006Ev, symObjAddr: 0x2BA0, symBinAddr: 0x100004E40, symSize: 0x30 }
  - { offsetInCU: 0x1900E, offset: 0x2156A, size: 0x8, addend: 0x0, symName: __ZNSt3__114__split_bufferIiRNS_9allocatorIiEEE17__destruct_at_endB8ue170006EPi, symObjAddr: 0x2BD0, symBinAddr: 0x100004E70, symSize: 0x30 }
  - { offsetInCU: 0x19040, offset: 0x2159C, size: 0x8, addend: 0x0, symName: __ZNSt3__114__split_bufferIiRNS_9allocatorIiEEE17__destruct_at_endB8ue170006EPiNS_17integral_constantIbLb0EEE, symObjAddr: 0x2C00, symBinAddr: 0x100004EA0, symSize: 0x80 }
  - { offsetInCU: 0x1907E, offset: 0x215DA, size: 0x8, addend: 0x0, symName: __ZNSt3__116allocator_traitsINS_9allocatorIiEEE7destroyB8ue170006IivvEEvRS2_PT_, symObjAddr: 0x2C80, symBinAddr: 0x100004F20, symSize: 0x20 }
  - { offsetInCU: 0x190B8, offset: 0x21614, size: 0x8, addend: 0x0, symName: __ZNSt3__19allocatorIiE10deallocateB8ue170006EPim, symObjAddr: 0x2CD0, symBinAddr: 0x100004F70, symSize: 0x40 }
  - { offsetInCU: 0x190F8, offset: 0x21654, size: 0x8, addend: 0x0, symName: __ZNKSt3__114__split_bufferIiRNS_9allocatorIiEEE9__end_capB8ue170006Ev, symObjAddr: 0x2E10, symBinAddr: 0x1000050B0, symSize: 0x20 }
  - { offsetInCU: 0x1911C, offset: 0x21678, size: 0x8, addend: 0x0, symName: __ZNKSt3__117__compressed_pairIPiRNS_9allocatorIiEEE5firstB8ue170006Ev, symObjAddr: 0x2E30, symBinAddr: 0x1000050D0, symSize: 0x20 }
  - { offsetInCU: 0x19140, offset: 0x2169C, size: 0x8, addend: 0x0, symName: __ZNSt3__16vectorIiNS_9allocatorIiEEED2B8ue170006Ev, symObjAddr: 0x2E50, symBinAddr: 0x1000050F0, symSize: 0x40 }
  - { offsetInCU: 0x19168, offset: 0x216C4, size: 0x8, addend: 0x0, symName: __ZNSt3__16vectorIiNS_9allocatorIiEEE16__destroy_vectorC1B8ue170006ERS3_, symObjAddr: 0x2E90, symBinAddr: 0x100005130, symSize: 0x30 }
  - { offsetInCU: 0x1919F, offset: 0x216FB, size: 0x8, addend: 0x0, symName: __ZNSt3__16vectorIiNS_9allocatorIiEEE16__destroy_vectorclB8ue170006Ev, symObjAddr: 0x2EC0, symBinAddr: 0x100005160, symSize: 0x80 }
  - { offsetInCU: 0x191C3, offset: 0x2171F, size: 0x8, addend: 0x0, symName: __ZNSt3__16vectorIiNS_9allocatorIiEEE16__destroy_vectorC2B8ue170006ERS3_, symObjAddr: 0x2F40, symBinAddr: 0x1000051E0, symSize: 0x20 }
  - { offsetInCU: 0x191FA, offset: 0x21756, size: 0x8, addend: 0x0, symName: __ZNSt3__16vectorIiNS_9allocatorIiEEE7__clearB8ue170006Ev, symObjAddr: 0x2F60, symBinAddr: 0x100005200, symSize: 0x20 }
  - { offsetInCU: 0x1921E, offset: 0x2177A, size: 0x8, addend: 0x0, symName: __ZNSt3__16vectorIiNS_9allocatorIiEEE22__base_destruct_at_endB8ue170006EPi, symObjAddr: 0x2F80, symBinAddr: 0x100005220, symSize: 0x80 }
  - { offsetInCU: 0x19260, offset: 0x217BC, size: 0x8, addend: 0x0, symName: __ZNSt3__118basic_stringstreamIcNS_11char_traitsIcEENS_9allocatorIcEEED2Ev, symObjAddr: 0x3000, symBinAddr: 0x1000052A0, symSize: 0x60 }
  - { offsetInCU: 0x19298, offset: 0x217F4, size: 0x8, addend: 0x0, symName: __ZThn16_NSt3__118basic_stringstreamIcNS_11char_traitsIcEENS_9allocatorIcEEED1Ev, symObjAddr: 0x3060, symBinAddr: 0x100005300, symSize: 0x20 }
  - { offsetInCU: 0x192AF, offset: 0x2180B, size: 0x8, addend: 0x0, symName: __ZTv0_n24_NSt3__118basic_stringstreamIcNS_11char_traitsIcEENS_9allocatorIcEEED1Ev, symObjAddr: 0x3080, symBinAddr: 0x100005320, symSize: 0x20 }
  - { offsetInCU: 0x192CB, offset: 0x21827, size: 0x8, addend: 0x0, symName: __ZNSt3__115basic_stringbufIcNS_11char_traitsIcEENS_9allocatorIcEEED1Ev, symObjAddr: 0x30A0, symBinAddr: 0x100005340, symSize: 0x20 }
  - { offsetInCU: 0x192F7, offset: 0x21853, size: 0x8, addend: 0x0, symName: __ZNSt3__115basic_stringbufIcNS_11char_traitsIcEENS_9allocatorIcEEED2Ev, symObjAddr: 0x30C0, symBinAddr: 0x100005360, symSize: 0x40 }
  - { offsetInCU: 0x19323, offset: 0x2187F, size: 0x8, addend: 0x0, symName: __ZNSt3__16vectorI8TriangleNS_9allocatorIS1_EEEC2B8ue170006Ev, symObjAddr: 0x3100, symBinAddr: 0x1000053A0, symSize: 0x50 }
  - { offsetInCU: 0x1934B, offset: 0x218A7, size: 0x8, addend: 0x0, symName: __ZNSt3__117__compressed_pairIP8TriangleNS_9allocatorIS1_EEEC1B8ue170006IDnNS_18__default_init_tagEEEOT_OT0_, symObjAddr: 0x3150, symBinAddr: 0x1000053F0, symSize: 0x30 }
  - { offsetInCU: 0x193A1, offset: 0x218FD, size: 0x8, addend: 0x0, symName: __ZNSt3__117__compressed_pairIP8TriangleNS_9allocatorIS1_EEEC2B8ue170006IDnNS_18__default_init_tagEEEOT_OT0_, symObjAddr: 0x3180, symBinAddr: 0x100005420, symSize: 0x40 }
  - { offsetInCU: 0x193F7, offset: 0x21953, size: 0x8, addend: 0x0, symName: __ZNSt3__122__compressed_pair_elemIP8TriangleLi0ELb0EEC2B8ue170006IDnvEEOT_, symObjAddr: 0x31C0, symBinAddr: 0x100005460, symSize: 0x20 }
  - { offsetInCU: 0x19437, offset: 0x21993, size: 0x8, addend: 0x0, symName: __ZNSt3__122__compressed_pair_elemINS_9allocatorI8TriangleEELi1ELb1EEC2B8ue170006ENS_18__default_init_tagE, symObjAddr: 0x31E0, symBinAddr: 0x100005480, symSize: 0x20 }
  - { offsetInCU: 0x19469, offset: 0x219C5, size: 0x8, addend: 0x0, symName: __ZNSt3__19allocatorI8TriangleEC2B8ue170006Ev, symObjAddr: 0x3200, symBinAddr: 0x1000054A0, symSize: 0x20 }
  - { offsetInCU: 0x19491, offset: 0x219ED, size: 0x8, addend: 0x0, symName: __ZNSt3__116__non_trivial_ifILb1ENS_9allocatorI8TriangleEEEC2B8ue170006Ev, symObjAddr: 0x3220, symBinAddr: 0x1000054C0, symSize: 0x10 }
  - { offsetInCU: 0x194B9, offset: 0x21A15, size: 0x8, addend: 0x0, symName: __ZNSt3__16vectorI8TriangleNS_9allocatorIS1_EEE9__end_capB8ue170006Ev, symObjAddr: 0x3230, symBinAddr: 0x1000054D0, symSize: 0x20 }
  - { offsetInCU: 0x194E2, offset: 0x21A3E, size: 0x8, addend: 0x0, symName: __ZNSt3__16vectorI8TriangleNS_9allocatorIS1_EEE22__construct_one_at_endB8ue170006IJS1_EEEvDpOT_, symObjAddr: 0x3250, symBinAddr: 0x1000054F0, symSize: 0x90 }
  - { offsetInCU: 0x19531, offset: 0x21A8D, size: 0x8, addend: 0x0, symName: __ZNSt3__16vectorI8TriangleNS_9allocatorIS1_EEE21__push_back_slow_pathIS1_EEvOT_, symObjAddr: 0x32E0, symBinAddr: 0x100005580, symSize: 0xD0 }
  - { offsetInCU: 0x1958D, offset: 0x21AE9, size: 0x8, addend: 0x0, symName: __ZNSt3__117__compressed_pairIP8TriangleNS_9allocatorIS1_EEE5firstB8ue170006Ev, symObjAddr: 0x33B0, symBinAddr: 0x100005650, symSize: 0x20 }
  - { offsetInCU: 0x195B1, offset: 0x21B0D, size: 0x8, addend: 0x0, symName: __ZNSt3__122__compressed_pair_elemIP8TriangleLi0ELb0EE5__getB8ue170006Ev, symObjAddr: 0x33D0, symBinAddr: 0x100005670, symSize: 0x10 }
  - { offsetInCU: 0x195EE, offset: 0x21B4A, size: 0x8, addend: 0x0, symName: __ZNSt3__16vectorI8TriangleNS_9allocatorIS1_EEE21_ConstructTransactionC1B8ue170006ERS4_m, symObjAddr: 0x33E0, symBinAddr: 0x100005680, symSize: 0x30 }
  - { offsetInCU: 0x19634, offset: 0x21B90, size: 0x8, addend: 0x0, symName: __ZNSt3__116allocator_traitsINS_9allocatorI8TriangleEEE9constructB8ue170006IS2_JS2_EvvEEvRS3_PT_DpOT0_, symObjAddr: 0x3410, symBinAddr: 0x1000056B0, symSize: 0x30 }
  - { offsetInCU: 0x1968A, offset: 0x21BE6, size: 0x8, addend: 0x0, symName: __ZNSt3__16vectorI8TriangleNS_9allocatorIS1_EEE7__allocB8ue170006Ev, symObjAddr: 0x3440, symBinAddr: 0x1000056E0, symSize: 0x20 }
  - { offsetInCU: 0x196AE, offset: 0x21C0A, size: 0x8, addend: 0x0, symName: __ZNSt3__16vectorI8TriangleNS_9allocatorIS1_EEE21_ConstructTransactionD1B8ue170006Ev, symObjAddr: 0x3470, symBinAddr: 0x100005710, symSize: 0x20 }
  - { offsetInCU: 0x196D6, offset: 0x21C32, size: 0x8, addend: 0x0, symName: __ZNSt3__16vectorI8TriangleNS_9allocatorIS1_EEE21_ConstructTransactionC2B8ue170006ERS4_m, symObjAddr: 0x3490, symBinAddr: 0x100005730, symSize: 0x40 }
  - { offsetInCU: 0x1971C, offset: 0x21C78, size: 0x8, addend: 0x0, symName: __ZNSt3__117__compressed_pairIP8TriangleNS_9allocatorIS1_EEE6secondB8ue170006Ev, symObjAddr: 0x3510, symBinAddr: 0x1000057B0, symSize: 0x20 }
  - { offsetInCU: 0x19740, offset: 0x21C9C, size: 0x8, addend: 0x0, symName: __ZNSt3__122__compressed_pair_elemINS_9allocatorI8TriangleEELi1ELb1EE5__getB8ue170006Ev, symObjAddr: 0x3530, symBinAddr: 0x1000057D0, symSize: 0x10 }
  - { offsetInCU: 0x19764, offset: 0x21CC0, size: 0x8, addend: 0x0, symName: __ZNSt3__16vectorI8TriangleNS_9allocatorIS1_EEE21_ConstructTransactionD2B8ue170006Ev, symObjAddr: 0x3540, symBinAddr: 0x1000057E0, symSize: 0x20 }
  - { offsetInCU: 0x1978C, offset: 0x21CE8, size: 0x8, addend: 0x0, symName: __ZNKSt3__16vectorI8TriangleNS_9allocatorIS1_EEE11__recommendB8ue170006Em, symObjAddr: 0x3560, symBinAddr: 0x100005800, symSize: 0xA0 }
  - { offsetInCU: 0x197DF, offset: 0x21D3B, size: 0x8, addend: 0x0, symName: __ZNKSt3__16vectorI8TriangleNS_9allocatorIS1_EEE4sizeB8ue170006Ev, symObjAddr: 0x3600, symBinAddr: 0x1000058A0, symSize: 0x30 }
  - { offsetInCU: 0x19803, offset: 0x21D5F, size: 0x8, addend: 0x0, symName: __ZNSt3__114__split_bufferI8TriangleRNS_9allocatorIS1_EEEC1EmmS4_, symObjAddr: 0x3630, symBinAddr: 0x1000058D0, symSize: 0x40 }
  - { offsetInCU: 0x19858, offset: 0x21DB4, size: 0x8, addend: 0x0, symName: __ZNSt3__114__split_bufferI8TriangleRNS_9allocatorIS1_EEED1Ev, symObjAddr: 0x3790, symBinAddr: 0x100005A30, symSize: 0x20 }
  - { offsetInCU: 0x19883, offset: 0x21DDF, size: 0x8, addend: 0x0, symName: __ZNKSt3__16vectorI8TriangleNS_9allocatorIS1_EEE8max_sizeEv, symObjAddr: 0x37B0, symBinAddr: 0x100005A50, symSize: 0x60 }
  - { offsetInCU: 0x198A9, offset: 0x21E05, size: 0x8, addend: 0x0, symName: __ZNKSt3__16vectorI8TriangleNS_9allocatorIS1_EEE20__throw_length_errorB8ue170006Ev, symObjAddr: 0x3810, symBinAddr: 0x100005AB0, symSize: 0x20 }
  - { offsetInCU: 0x198CD, offset: 0x21E29, size: 0x8, addend: 0x0, symName: __ZNKSt3__16vectorI8TriangleNS_9allocatorIS1_EEE8capacityB8ue170006Ev, symObjAddr: 0x3830, symBinAddr: 0x100005AD0, symSize: 0x40 }
  - { offsetInCU: 0x198FB, offset: 0x21E57, size: 0x8, addend: 0x0, symName: __ZNSt3__116allocator_traitsINS_9allocatorI8TriangleEEE8max_sizeB8ue170006IS3_vvEEmRKS3_, symObjAddr: 0x3870, symBinAddr: 0x100005B10, symSize: 0x30 }
  - { offsetInCU: 0x19926, offset: 0x21E82, size: 0x8, addend: 0x0, symName: __ZNKSt3__16vectorI8TriangleNS_9allocatorIS1_EEE7__allocB8ue170006Ev, symObjAddr: 0x38A0, symBinAddr: 0x100005B40, symSize: 0x20 }
  - { offsetInCU: 0x1994A, offset: 0x21EA6, size: 0x8, addend: 0x0, symName: __ZNKSt3__117__compressed_pairIP8TriangleNS_9allocatorIS1_EEE6secondB8ue170006Ev, symObjAddr: 0x38C0, symBinAddr: 0x100005B60, symSize: 0x20 }
  - { offsetInCU: 0x1996E, offset: 0x21ECA, size: 0x8, addend: 0x0, symName: __ZNKSt3__122__compressed_pair_elemINS_9allocatorI8TriangleEELi1ELb1EE5__getB8ue170006Ev, symObjAddr: 0x38E0, symBinAddr: 0x100005B80, symSize: 0x10 }
  - { offsetInCU: 0x19992, offset: 0x21EEE, size: 0x8, addend: 0x0, symName: __ZNKSt3__16vectorI8TriangleNS_9allocatorIS1_EEE9__end_capB8ue170006Ev, symObjAddr: 0x38F0, symBinAddr: 0x100005B90, symSize: 0x20 }
  - { offsetInCU: 0x199B6, offset: 0x21F12, size: 0x8, addend: 0x0, symName: __ZNKSt3__117__compressed_pairIP8TriangleNS_9allocatorIS1_EEE5firstB8ue170006Ev, symObjAddr: 0x3910, symBinAddr: 0x100005BB0, symSize: 0x20 }
  - { offsetInCU: 0x199DA, offset: 0x21F36, size: 0x8, addend: 0x0, symName: __ZNKSt3__122__compressed_pair_elemIP8TriangleLi0ELb0EE5__getB8ue170006Ev, symObjAddr: 0x3930, symBinAddr: 0x100005BD0, symSize: 0x10 }
  - { offsetInCU: 0x199FE, offset: 0x21F5A, size: 0x8, addend: 0x0, symName: __ZNSt3__114__split_bufferI8TriangleRNS_9allocatorIS1_EEEC2EmmS4_, symObjAddr: 0x3940, symBinAddr: 0x100005BE0, symSize: 0xC0 }
  - { offsetInCU: 0x19A71, offset: 0x21FCD, size: 0x8, addend: 0x0, symName: __ZNSt3__117__compressed_pairIP8TriangleRNS_9allocatorIS1_EEEC1B8ue170006IDnS5_EEOT_OT0_, symObjAddr: 0x3A00, symBinAddr: 0x100005CA0, symSize: 0x30 }
  - { offsetInCU: 0x19AC7, offset: 0x22023, size: 0x8, addend: 0x0, symName: __ZNSt3__114__split_bufferI8TriangleRNS_9allocatorIS1_EEE7__allocB8ue170006Ev, symObjAddr: 0x3A70, symBinAddr: 0x100005D10, symSize: 0x20 }
  - { offsetInCU: 0x19AEB, offset: 0x22047, size: 0x8, addend: 0x0, symName: __ZNSt3__114__split_bufferI8TriangleRNS_9allocatorIS1_EEE9__end_capB8ue170006Ev, symObjAddr: 0x3A90, symBinAddr: 0x100005D30, symSize: 0x20 }
  - { offsetInCU: 0x19B0F, offset: 0x2206B, size: 0x8, addend: 0x0, symName: __ZNSt3__117__compressed_pairIP8TriangleRNS_9allocatorIS1_EEEC2B8ue170006IDnS5_EEOT_OT0_, symObjAddr: 0x3AB0, symBinAddr: 0x100005D50, symSize: 0x40 }
  - { offsetInCU: 0x19B65, offset: 0x220C1, size: 0x8, addend: 0x0, symName: __ZNSt3__122__compressed_pair_elemIRNS_9allocatorI8TriangleEELi1ELb0EEC2B8ue170006IS4_vEEOT_, symObjAddr: 0x3AF0, symBinAddr: 0x100005D90, symSize: 0x20 }
  - { offsetInCU: 0x19BA5, offset: 0x22101, size: 0x8, addend: 0x0, symName: __ZNSt3__19allocatorI8TriangleE17allocate_at_leastB8ue170006Em, symObjAddr: 0x3B50, symBinAddr: 0x100005DF0, symSize: 0x40 }
  - { offsetInCU: 0x19BD7, offset: 0x22133, size: 0x8, addend: 0x0, symName: __ZNSt3__19allocatorI8TriangleE8allocateB8ue170006Em, symObjAddr: 0x3B90, symBinAddr: 0x100005E30, symSize: 0x50 }
  - { offsetInCU: 0x19C09, offset: 0x22165, size: 0x8, addend: 0x0, symName: __ZNSt3__117__compressed_pairIP8TriangleRNS_9allocatorIS1_EEE6secondB8ue170006Ev, symObjAddr: 0x3BE0, symBinAddr: 0x100005E80, symSize: 0x20 }
  - { offsetInCU: 0x19C2D, offset: 0x22189, size: 0x8, addend: 0x0, symName: __ZNSt3__122__compressed_pair_elemIRNS_9allocatorI8TriangleEELi1ELb0EE5__getB8ue170006Ev, symObjAddr: 0x3C00, symBinAddr: 0x100005EA0, symSize: 0x20 }
  - { offsetInCU: 0x19C51, offset: 0x221AD, size: 0x8, addend: 0x0, symName: __ZNSt3__117__compressed_pairIP8TriangleRNS_9allocatorIS1_EEE5firstB8ue170006Ev, symObjAddr: 0x3C20, symBinAddr: 0x100005EC0, symSize: 0x20 }
  - { offsetInCU: 0x19C75, offset: 0x221D1, size: 0x8, addend: 0x0, symName: __ZNKSt3__16vectorI8TriangleNS_9allocatorIS1_EEE17__annotate_deleteB8ue170006Ev, symObjAddr: 0x3C40, symBinAddr: 0x100005EE0, symSize: 0xB0 }
  - { offsetInCU: 0x19C99, offset: 0x221F5, size: 0x8, addend: 0x0, symName: __ZNSt3__116reverse_iteratorIP8TriangleEC1B8ue170006ES2_, symObjAddr: 0x3D60, symBinAddr: 0x100006000, symSize: 0x30 }
  - { offsetInCU: 0x19CCF, offset: 0x2222B, size: 0x8, addend: 0x0, symName: __ZNKSt3__116reverse_iteratorIP8TriangleE4baseB8ue170006Ev, symObjAddr: 0x3D90, symBinAddr: 0x100006030, symSize: 0x20 }
  - { offsetInCU: 0x19CF3, offset: 0x2224F, size: 0x8, addend: 0x0, symName: __ZNKSt3__16vectorI8TriangleNS_9allocatorIS1_EEE14__annotate_newB8ue170006Em, symObjAddr: 0x3DF0, symBinAddr: 0x100006090, symSize: 0xA0 }
  - { offsetInCU: 0x19D26, offset: 0x22282, size: 0x8, addend: 0x0, symName: __ZNKSt3__16vectorI8TriangleNS_9allocatorIS1_EEE31__annotate_contiguous_containerB8ue170006EPKvS6_S6_S6_, symObjAddr: 0x3E90, symBinAddr: 0x100006130, symSize: 0x20 }
  - { offsetInCU: 0x19D7A, offset: 0x222D6, size: 0x8, addend: 0x0, symName: __ZNKSt3__16vectorI8TriangleNS_9allocatorIS1_EEE4dataB8ue170006Ev, symObjAddr: 0x3EB0, symBinAddr: 0x100006150, symSize: 0x20 }
  - { offsetInCU: 0x19DBC, offset: 0x22318, size: 0x8, addend: 0x0, symName: __ZNKSt3__111__move_loopINS_17_ClassicAlgPolicyEEclB8ue170006INS_16reverse_iteratorIP8TriangleEES7_S7_EENS_4pairIT_T1_EES9_T0_SA_, symObjAddr: 0x42E0, symBinAddr: 0x100006580, symSize: 0xB0 }
  - { offsetInCU: 0x19E25, offset: 0x22381, size: 0x8, addend: 0x0, symName: __ZNSt3__119__unwrap_range_implINS_16reverse_iteratorIP8TriangleEES4_E8__unwrapB8ue170006ES4_S4_, symObjAddr: 0x44D0, symBinAddr: 0x100006770, symSize: 0x90 }
  - { offsetInCU: 0x19E5A, offset: 0x223B6, size: 0x8, addend: 0x0, symName: __ZNSt3__14pairINS_16reverse_iteratorIP8TriangleEES4_EC1B8ue170006IS4_S4_LPv0EEEOT_OT0_, symObjAddr: 0x4560, symBinAddr: 0x100006800, symSize: 0x30 }
  - { offsetInCU: 0x19EB7, offset: 0x22413, size: 0x8, addend: 0x0, symName: __ZNSt3__14pairINS_16reverse_iteratorIP8TriangleEES4_EC2B8ue170006IS4_S4_LPv0EEEOT_OT0_, symObjAddr: 0x4590, symBinAddr: 0x100006830, symSize: 0x40 }
  - { offsetInCU: 0x19F14, offset: 0x22470, size: 0x8, addend: 0x0, symName: __ZNSt3__18_IterOpsINS_17_ClassicAlgPolicyEE11__iter_moveB8ue170006IRNS_16reverse_iteratorIP8TriangleEEEENS_9enable_ifIXsr12is_referenceIDTdeclsr3stdE7declvalIRT_EEEEE5valueEDTclsr3stdE4movedeclsr3stdE7declvalISB_EEEEE4typeEOSA_, symObjAddr: 0x4610, symBinAddr: 0x1000068B0, symSize: 0x20 }
  - { offsetInCU: 0x19F3F, offset: 0x2249B, size: 0x8, addend: 0x0, symName: __ZNKSt3__116reverse_iteratorIP8TriangleEdeB8ue170006Ev, symObjAddr: 0x4630, symBinAddr: 0x1000068D0, symSize: 0x30 }
  - { offsetInCU: 0x19F71, offset: 0x224CD, size: 0x8, addend: 0x0, symName: __ZNSt3__116reverse_iteratorIP8TriangleEppB8ue170006Ev, symObjAddr: 0x4660, symBinAddr: 0x100006900, symSize: 0x20 }
  - { offsetInCU: 0x19F95, offset: 0x224F1, size: 0x8, addend: 0x0, symName: __ZNSt3__18_IterOpsINS_17_ClassicAlgPolicyEE25__validate_iter_referenceB8ue170006IRNS_16reverse_iteratorIP8TriangleEEEEvv, symObjAddr: 0x4680, symBinAddr: 0x100006920, symSize: 0x10 }
  - { offsetInCU: 0x19FB2, offset: 0x2250E, size: 0x8, addend: 0x0, symName: __ZNSt3__118__unwrap_iter_implINS_16reverse_iteratorIP8TriangleEELb0EE8__unwrapB8ue170006ES4_, symObjAddr: 0x4690, symBinAddr: 0x100006930, symSize: 0x20 }
  - { offsetInCU: 0x19FD4, offset: 0x22530, size: 0x8, addend: 0x0, symName: __ZNSt3__119__unwrap_range_implINS_16reverse_iteratorIP8TriangleEES4_E8__rewrapB8ue170006ES4_S4_, symObjAddr: 0x46B0, symBinAddr: 0x100006950, symSize: 0x60 }
  - { offsetInCU: 0x1A004, offset: 0x22560, size: 0x8, addend: 0x0, symName: __ZNSt3__118__unwrap_iter_implINS_16reverse_iteratorIP8TriangleEELb0EE8__rewrapB8ue170006ES4_S4_, symObjAddr: 0x4710, symBinAddr: 0x1000069B0, symSize: 0x30 }
  - { offsetInCU: 0x1A030, offset: 0x2258C, size: 0x8, addend: 0x0, symName: __ZNSt3__116reverse_iteratorIP8TriangleEC2B8ue170006ES2_, symObjAddr: 0x4740, symBinAddr: 0x1000069E0, symSize: 0x30 }
  - { offsetInCU: 0x1A066, offset: 0x225C2, size: 0x8, addend: 0x0, symName: __ZNSt3__114__split_bufferI8TriangleRNS_9allocatorIS1_EEED2Ev, symObjAddr: 0x4770, symBinAddr: 0x100006A10, symSize: 0x70 }
  - { offsetInCU: 0x1A091, offset: 0x225ED, size: 0x8, addend: 0x0, symName: __ZNSt3__114__split_bufferI8TriangleRNS_9allocatorIS1_EEE5clearB8ue170006Ev, symObjAddr: 0x47E0, symBinAddr: 0x100006A80, symSize: 0x20 }
  - { offsetInCU: 0x1A0B5, offset: 0x22611, size: 0x8, addend: 0x0, symName: __ZNSt3__116allocator_traitsINS_9allocatorI8TriangleEEE10deallocateB8ue170006ERS3_PS2_m, symObjAddr: 0x4800, symBinAddr: 0x100006AA0, symSize: 0x30 }
  - { offsetInCU: 0x1A0F6, offset: 0x22652, size: 0x8, addend: 0x0, symName: __ZNKSt3__114__split_bufferI8TriangleRNS_9allocatorIS1_EEE8capacityB8ue170006Ev, symObjAddr: 0x4830, symBinAddr: 0x100006AD0, symSize: 0x40 }
  - { offsetInCU: 0x1A11A, offset: 0x22676, size: 0x8, addend: 0x0, symName: __ZNSt3__114__split_bufferI8TriangleRNS_9allocatorIS1_EEE17__destruct_at_endB8ue170006EPS1_, symObjAddr: 0x4870, symBinAddr: 0x100006B10, symSize: 0x30 }
  - { offsetInCU: 0x1A14C, offset: 0x226A8, size: 0x8, addend: 0x0, symName: __ZNSt3__114__split_bufferI8TriangleRNS_9allocatorIS1_EEE17__destruct_at_endB8ue170006EPS1_NS_17integral_constantIbLb0EEE, symObjAddr: 0x48A0, symBinAddr: 0x100006B40, symSize: 0x80 }
  - { offsetInCU: 0x1A18A, offset: 0x226E6, size: 0x8, addend: 0x0, symName: __ZNSt3__116allocator_traitsINS_9allocatorI8TriangleEEE7destroyB8ue170006IS2_vvEEvRS3_PT_, symObjAddr: 0x4920, symBinAddr: 0x100006BC0, symSize: 0x20 }
  - { offsetInCU: 0x1A1C4, offset: 0x22720, size: 0x8, addend: 0x0, symName: __ZNSt3__19allocatorI8TriangleE10deallocateB8ue170006EPS1_m, symObjAddr: 0x4970, symBinAddr: 0x100006C10, symSize: 0x50 }
  - { offsetInCU: 0x1A204, offset: 0x22760, size: 0x8, addend: 0x0, symName: __ZNKSt3__114__split_bufferI8TriangleRNS_9allocatorIS1_EEE9__end_capB8ue170006Ev, symObjAddr: 0x49C0, symBinAddr: 0x100006C60, symSize: 0x20 }
  - { offsetInCU: 0x1A228, offset: 0x22784, size: 0x8, addend: 0x0, symName: __ZNKSt3__117__compressed_pairIP8TriangleRNS_9allocatorIS1_EEE5firstB8ue170006Ev, symObjAddr: 0x49E0, symBinAddr: 0x100006C80, symSize: 0x20 }
  - { offsetInCU: 0x1A24C, offset: 0x227A8, size: 0x8, addend: 0x0, symName: __ZNSt3__16vectorI8TriangleNS_9allocatorIS1_EEED2B8ue170006Ev, symObjAddr: 0x4A00, symBinAddr: 0x100006CA0, symSize: 0x40 }
  - { offsetInCU: 0x1A274, offset: 0x227D0, size: 0x8, addend: 0x0, symName: __ZNSt3__16vectorI8TriangleNS_9allocatorIS1_EEE16__destroy_vectorC1B8ue170006ERS4_, symObjAddr: 0x4A40, symBinAddr: 0x100006CE0, symSize: 0x30 }
  - { offsetInCU: 0x1A2AB, offset: 0x22807, size: 0x8, addend: 0x0, symName: __ZNSt3__16vectorI8TriangleNS_9allocatorIS1_EEE16__destroy_vectorclB8ue170006Ev, symObjAddr: 0x4A70, symBinAddr: 0x100006D10, symSize: 0x80 }
  - { offsetInCU: 0x1A2CF, offset: 0x2282B, size: 0x8, addend: 0x0, symName: __ZNSt3__16vectorI8TriangleNS_9allocatorIS1_EEE16__destroy_vectorC2B8ue170006ERS4_, symObjAddr: 0x4AF0, symBinAddr: 0x100006D90, symSize: 0x20 }
  - { offsetInCU: 0x1A306, offset: 0x22862, size: 0x8, addend: 0x0, symName: __ZNSt3__16vectorI8TriangleNS_9allocatorIS1_EEE7__clearB8ue170006Ev, symObjAddr: 0x4B10, symBinAddr: 0x100006DB0, symSize: 0x20 }
  - { offsetInCU: 0x1A32A, offset: 0x22886, size: 0x8, addend: 0x0, symName: __ZNSt3__16vectorI8TriangleNS_9allocatorIS1_EEE22__base_destruct_at_endB8ue170006EPS1_, symObjAddr: 0x4B30, symBinAddr: 0x100006DD0, symSize: 0x80 }
  - { offsetInCU: 0x1A36C, offset: 0x228C8, size: 0x8, addend: 0x0, symName: __ZNSt3__114basic_ifstreamIcNS_11char_traitsIcEEED2Ev, symObjAddr: 0x4BB0, symBinAddr: 0x100006E50, symSize: 0x60 }
  - { offsetInCU: 0x1A3A4, offset: 0x22900, size: 0x8, addend: 0x0, symName: __ZTv0_n24_NSt3__114basic_ifstreamIcNS_11char_traitsIcEEED1Ev, symObjAddr: 0x4C10, symBinAddr: 0x100006EB0, symSize: 0x20 }
  - { offsetInCU: 0x1A3BB, offset: 0x22917, size: 0x8, addend: 0x0, symName: __ZNKSt3__16vectorI8TriangleNS_9allocatorIS1_EEE20__throw_out_of_rangeB8ue170006Ev, symObjAddr: 0x4C30, symBinAddr: 0x100006ED0, symSize: 0x20 }
  - { offsetInCU: 0x1A3DF, offset: 0x2293B, size: 0x8, addend: 0x0, symName: __ZNSt12out_of_rangeC1B8ue170006EPKc, symObjAddr: 0x4CC0, symBinAddr: 0x100006F60, symSize: 0x30 }
  - { offsetInCU: 0x1A415, offset: 0x22971, size: 0x8, addend: 0x0, symName: __ZNSt12out_of_rangeC2B8ue170006EPKc, symObjAddr: 0x4CF0, symBinAddr: 0x100006F90, symSize: 0x40 }
  - { offsetInCU: 0x1A44B, offset: 0x229A7, size: 0x8, addend: 0x0, symName: __ZNSt3__19basic_iosIcNS_11char_traitsIcEEEC2B8ue170006Ev, symObjAddr: 0x4D30, symBinAddr: 0x100006FD0, symSize: 0x40 }
  - { offsetInCU: 0x1A473, offset: 0x229CF, size: 0x8, addend: 0x0, symName: __ZNSt3__114basic_iostreamIcNS_11char_traitsIcEEEC2B8ue170006EPNS_15basic_streambufIcS2_EE, symObjAddr: 0x4D70, symBinAddr: 0x100007010, symSize: 0xA0 }
  - { offsetInCU: 0x1A4B6, offset: 0x22A12, size: 0x8, addend: 0x0, symName: __ZNSt3__115basic_stringbufIcNS_11char_traitsIcEENS_9allocatorIcEEEC1B8ue170006ERKNS_12basic_stringIcS2_S4_EEj, symObjAddr: 0x4E10, symBinAddr: 0x1000070B0, symSize: 0x30 }
  - { offsetInCU: 0x1A4FC, offset: 0x22A58, size: 0x8, addend: 0x0, symName: __ZNSt3__18ios_baseC2B8ue170006Ev, symObjAddr: 0x4E40, symBinAddr: 0x1000070E0, symSize: 0x20 }
  - { offsetInCU: 0x1A524, offset: 0x22A80, size: 0x8, addend: 0x0, symName: __ZNSt3__113basic_istreamIcNS_11char_traitsIcEEEC2B8ue170006EPNS_15basic_streambufIcS2_EE, symObjAddr: 0x4E60, symBinAddr: 0x100007100, symSize: 0x50 }
  - { offsetInCU: 0x1A566, offset: 0x22AC2, size: 0x8, addend: 0x0, symName: __ZNSt3__113basic_ostreamIcNS_11char_traitsIcEEEC2B8ue170006Ev, symObjAddr: 0x4EB0, symBinAddr: 0x100007150, symSize: 0x30 }
  - { offsetInCU: 0x1A59A, offset: 0x22AF6, size: 0x8, addend: 0x0, symName: __ZNSt3__19basic_iosIcNS_11char_traitsIcEEE4initB8ue170006EPNS_15basic_streambufIcS2_EE, symObjAddr: 0x4EE0, symBinAddr: 0x100007180, symSize: 0x50 }
  - { offsetInCU: 0x1A5CF, offset: 0x22B2B, size: 0x8, addend: 0x0, symName: __ZNSt3__115basic_stringbufIcNS_11char_traitsIcEENS_9allocatorIcEEEC2B8ue170006ERKNS_12basic_stringIcS2_S4_EEj, symObjAddr: 0x4F40, symBinAddr: 0x1000071D0, symSize: 0xA0 }
  - { offsetInCU: 0x1A615, offset: 0x22B71, size: 0x8, addend: 0x0, symName: __ZNKSt3__112basic_stringIcNS_11char_traitsIcEENS_9allocatorIcEEE13get_allocatorB8ue170006Ev, symObjAddr: 0x4FE0, symBinAddr: 0x100007270, symSize: 0x20 }
  - { offsetInCU: 0x1A639, offset: 0x22B95, size: 0x8, addend: 0x0, symName: __ZNSt3__112basic_stringIcNS_11char_traitsIcEENS_9allocatorIcEEEC1B8ue170006ERKS4_, symObjAddr: 0x5000, symBinAddr: 0x100007290, symSize: 0x30 }
  - { offsetInCU: 0x1A670, offset: 0x22BCC, size: 0x8, addend: 0x0, symName: __ZNKSt3__112basic_stringIcNS_11char_traitsIcEENS_9allocatorIcEEE7__allocB8ue170006Ev, symObjAddr: 0x5030, symBinAddr: 0x1000072C0, symSize: 0x20 }
  - { offsetInCU: 0x1A694, offset: 0x22BF0, size: 0x8, addend: 0x0, symName: __ZNKSt3__117__compressed_pairINS_12basic_stringIcNS_11char_traitsIcEENS_9allocatorIcEEE5__repES5_E6secondB8ue170006Ev, symObjAddr: 0x5050, symBinAddr: 0x1000072E0, symSize: 0x20 }
  - { offsetInCU: 0x1A6B8, offset: 0x22C14, size: 0x8, addend: 0x0, symName: __ZNKSt3__122__compressed_pair_elemINS_9allocatorIcEELi1ELb1EE5__getB8ue170006Ev, symObjAddr: 0x5070, symBinAddr: 0x100007300, symSize: 0x10 }
  - { offsetInCU: 0x1A6DC, offset: 0x22C38, size: 0x8, addend: 0x0, symName: __ZNSt3__112basic_stringIcNS_11char_traitsIcEENS_9allocatorIcEEEC2B8ue170006ERKS4_, symObjAddr: 0x5080, symBinAddr: 0x100007310, symSize: 0x50 }
  - { offsetInCU: 0x1A713, offset: 0x22C6F, size: 0x8, addend: 0x0, symName: __ZNSt3__117__compressed_pairINS_12basic_stringIcNS_11char_traitsIcEENS_9allocatorIcEEE5__repES5_EC1B8ue170006INS_18__default_init_tagERKS5_EEOT_OT0_, symObjAddr: 0x50D0, symBinAddr: 0x100007360, symSize: 0x30 }
  - { offsetInCU: 0x1A769, offset: 0x22CC5, size: 0x8, addend: 0x0, symName: __ZNSt3__117__compressed_pairINS_12basic_stringIcNS_11char_traitsIcEENS_9allocatorIcEEE5__repES5_EC2B8ue170006INS_18__default_init_tagERKS5_EEOT_OT0_, symObjAddr: 0x5100, symBinAddr: 0x100007390, symSize: 0x40 }
  - { offsetInCU: 0x1A7BF, offset: 0x22D1B, size: 0x8, addend: 0x0, symName: __ZNSt3__122__compressed_pair_elemINS_9allocatorIcEELi1ELb1EEC2B8ue170006IRKS2_vEEOT_, symObjAddr: 0x5140, symBinAddr: 0x1000073D0, symSize: 0x10 }
  - { offsetInCU: 0x1A81D, offset: 0x22D79, size: 0x8, addend: 0x0, symName: __ZNKSt3__113basic_istreamIcNS_11char_traitsIcEEE6sentrycvbB8ue170006Ev, symObjAddr: 0x5150, symBinAddr: 0x1000073E0, symSize: 0x20 }
  - { offsetInCU: 0x1A841, offset: 0x22D9D, size: 0x8, addend: 0x0, symName: __ZNSt3__112basic_stringIcNS_11char_traitsIcEENS_9allocatorIcEEE5clearB8ue170006Ev, symObjAddr: 0x5170, symBinAddr: 0x100007400, symSize: 0x80 }
  - { offsetInCU: 0x1A867, offset: 0x22DC3, size: 0x8, addend: 0x0, symName: __ZNSt3__115basic_streambufIcNS_11char_traitsIcEEE6sbumpcB8ue170006Ev, symObjAddr: 0x5210, symBinAddr: 0x100007480, symSize: 0x60 }
  - { offsetInCU: 0x1A88B, offset: 0x22DE7, size: 0x8, addend: 0x0, symName: __ZNSt3__111char_traitsIcE12to_char_typeB8ue170006Ei, symObjAddr: 0x5290, symBinAddr: 0x1000074E0, symSize: 0x10 }
  - { offsetInCU: 0x1A8AD, offset: 0x22E09, size: 0x8, addend: 0x0, symName: __ZNSt3__111char_traitsIcE2eqEcc, symObjAddr: 0x52A0, symBinAddr: 0x1000074F0, symSize: 0x30 }
  - { offsetInCU: 0x1A8DD, offset: 0x22E39, size: 0x8, addend: 0x0, symName: __ZNKSt3__112basic_stringIcNS_11char_traitsIcEENS_9allocatorIcEEE4sizeB8ue170006Ev, symObjAddr: 0x52D0, symBinAddr: 0x100007520, symSize: 0x50 }
  - { offsetInCU: 0x1A901, offset: 0x22E5D, size: 0x8, addend: 0x0, symName: __ZNKSt3__112basic_stringIcNS_11char_traitsIcEENS_9allocatorIcEEE8max_sizeB8ue170006Ev, symObjAddr: 0x5320, symBinAddr: 0x100007570, symSize: 0xA0 }
  - { offsetInCU: 0x1A952, offset: 0x22EAE, size: 0x8, addend: 0x0, symName: __ZNSt3__18ios_base18__setstate_nothrowB8ue170006Ej, symObjAddr: 0x53C0, symBinAddr: 0x100007610, symSize: 0x50 }
  - { offsetInCU: 0x1A985, offset: 0x22EE1, size: 0x8, addend: 0x0, symName: __ZNKSt3__19basic_iosIcNS_11char_traitsIcEEE10exceptionsB8ue170006Ev, symObjAddr: 0x5410, symBinAddr: 0x100007660, symSize: 0x20 }
  - { offsetInCU: 0x1A9A9, offset: 0x22F05, size: 0x8, addend: 0x0, symName: __ZNSt3__111char_traitsIcE6assignB8ue170006ERcRKc, symObjAddr: 0x5490, symBinAddr: 0x100007680, symSize: 0x20 }
  - { offsetInCU: 0x1A9D9, offset: 0x22F35, size: 0x8, addend: 0x0, symName: __ZNSt3__112basic_stringIcNS_11char_traitsIcEENS_9allocatorIcEEE15__set_long_sizeB8ue170006Em, symObjAddr: 0x54D0, symBinAddr: 0x1000076A0, symSize: 0x30 }
  - { offsetInCU: 0x1AA0C, offset: 0x22F68, size: 0x8, addend: 0x0, symName: __ZNSt3__112basic_stringIcNS_11char_traitsIcEENS_9allocatorIcEEE16__set_short_sizeB8ue170006Em, symObjAddr: 0x5530, symBinAddr: 0x1000076D0, symSize: 0x50 }
  - { offsetInCU: 0x1AA3F, offset: 0x22F9B, size: 0x8, addend: 0x0, symName: __ZNSt3__111char_traitsIcE11to_int_typeB8ue170006Ec, symObjAddr: 0x55E0, symBinAddr: 0x100007720, symSize: 0x10 }
  - { offsetInCU: 0x1AA62, offset: 0x22FBE, size: 0x8, addend: 0x0, symName: __ZNKSt3__112basic_stringIcNS_11char_traitsIcEENS_9allocatorIcEEE15__get_long_sizeB8ue170006Ev, symObjAddr: 0x55F0, symBinAddr: 0x100007730, symSize: 0x20 }
  - { offsetInCU: 0x1AA86, offset: 0x22FE2, size: 0x8, addend: 0x0, symName: __ZNKSt3__112basic_stringIcNS_11char_traitsIcEENS_9allocatorIcEEE16__get_short_sizeB8ue170006Ev, symObjAddr: 0x5610, symBinAddr: 0x100007750, symSize: 0x30 }
  - { offsetInCU: 0x1AAB4, offset: 0x23010, size: 0x8, addend: 0x0, symName: __ZNSt3__116allocator_traitsINS_9allocatorIcEEE8max_sizeB8ue170006IS2_vvEEmRKS2_, symObjAddr: 0x5640, symBinAddr: 0x100007780, symSize: 0x20 }
  - { offsetInCU: 0x1AADF, offset: 0x2303B, size: 0x8, addend: 0x0, symName: __ZNKSt3__18ios_base10exceptionsB8ue170006Ev, symObjAddr: 0x5660, symBinAddr: 0x1000077A0, symSize: 0x20 }
  - { offsetInCU: 0x1AB05, offset: 0x23061, size: 0x8, addend: 0x0, symName: __ZNKSt3__19basic_iosIcNS_11char_traitsIcEEE4failB8ue170006Ev, symObjAddr: 0x56B0, symBinAddr: 0x1000077C0, symSize: 0x20 }
  - { offsetInCU: 0x1AB29, offset: 0x23085, size: 0x8, addend: 0x0, symName: __ZNKSt3__18ios_base4failB8ue170006Ev, symObjAddr: 0x56D0, symBinAddr: 0x1000077E0, symSize: 0x20 }
  - { offsetInCU: 0x1AB4F, offset: 0x230AB, size: 0x8, addend: 0x0, symName: __ZNKSt3__18ios_base4goodB8ue170006Ev, symObjAddr: 0x56F0, symBinAddr: 0x100007800, symSize: 0x20 }
...
