---
triple:          'x86_64-apple-darwin'
binary-path:     'Problem186/problem186'
relocations:
  - { offsetInCU: 0x59, offset: 0x59, size: 0x8, addend: 0x0, symName: __ZL1g, symObjAddr: 0x48820, symBinAddr: 0x100011320, symSize: 0x0 }
  - { offsetInCU: 0x7004, offset: 0x7004, size: 0x8, addend: 0x0, symName: __ZNSt3__113__fill_n_trueB8ue170006INS_6vectorIbNS_9allocatorIbEEEEEEvNS_14__bit_iteratorIT_Lb0EXLi0EEEENS6_9size_typeE, symObjAddr: 0x7B80, symBinAddr: 0x1000083E0, symSize: 0x7A0 }
  - { offsetInCU: 0x70D7, offset: 0x70D7, size: 0x8, addend: 0x0, symName: __ZNSt3__114__fill_n_falseB8ue170006INS_6vectorIbNS_9allocatorIbEEEEEEvNS_14__bit_iteratorIT_Lb0EXLi0EEEENS6_9size_typeE, symObjAddr: 0x8350, symBinAddr: 0x100008BB0, symSize: 0x7C0 }
  - { offsetInCU: 0x71AA, offset: 0x71AA, size: 0x8, addend: 0x0, symName: __ZNSt3__124__put_character_sequenceB8ue170006IcNS_11char_traitsIcEEEERNS_13basic_ostreamIT_T0_EES7_PKS4_m, symObjAddr: 0x9DB0, symBinAddr: 0x10000A610, symSize: 0x750 }
  - { offsetInCU: 0x8F2E, offset: 0x8F2E, size: 0x8, addend: 0x0, symName: __ZNSt3__1lsB8ue170006INS_11char_traitsIcEEEERNS_13basic_ostreamIcT_EES6_PKc, symObjAddr: 0x5D0, symBinAddr: 0x100000E30, symSize: 0x40 }
  - { offsetInCU: 0x8F74, offset: 0x8F74, size: 0x8, addend: 0x0, symName: __ZNSt3__14endlB8ue170006IcNS_11char_traitsIcEEEERNS_13basic_ostreamIT_T0_EES7_, symObjAddr: 0x630, symBinAddr: 0x100000E90, symSize: 0xB0 }
  - { offsetInCU: 0x8FB4, offset: 0x8FB4, size: 0x8, addend: 0x0, symName: __ZNSt3__1neB8ue170006ERKNS_15__list_iteratorIiPvEES4_, symObjAddr: 0x1A50, symBinAddr: 0x1000022B0, symSize: 0x30 }
  - { offsetInCU: 0x8FF1, offset: 0x8FF1, size: 0x8, addend: 0x0, symName: __ZNSt3__122__make_exception_guardB8ue170006INS_6vectorINS_4listIiNS_9allocatorIiEEEENS3_IS5_EEE16__destroy_vectorEEENS_28__exception_guard_exceptionsIT_EESA_, symObjAddr: 0x3B60, symBinAddr: 0x1000043C0, symSize: 0x1F0 }
  - { offsetInCU: 0x902A, offset: 0x902A, size: 0x8, addend: 0x0, symName: __ZNSt3__119__allocate_at_leastB8ue170006INS_9allocatorINS_4listIiNS1_IiEEEEEEEENS_19__allocation_resultINS_16allocator_traitsIT_E7pointerEEERS8_m, symObjAddr: 0x4CB0, symBinAddr: 0x100005510, symSize: 0x210 }
  - { offsetInCU: 0x906F, offset: 0x906F, size: 0x8, addend: 0x0, symName: __ZNSt3__13minB8ue170006ImEERKT_S3_S3_, symObjAddr: 0x4FC0, symBinAddr: 0x100005820, symSize: 0x30 }
  - { offsetInCU: 0x929C, offset: 0x929C, size: 0x8, addend: 0x0, symName: __ZNSt3__13minB8ue170006ImNS_6__lessIvvEEEERKT_S5_S5_T0_, symObjAddr: 0x5060, symBinAddr: 0x1000058C0, symSize: 0x170 }
  - { offsetInCU: 0x952D, offset: 0x952D, size: 0x8, addend: 0x0, symName: __ZNSt3__120__throw_length_errorB8ue170006EPKc, symObjAddr: 0x52D0, symBinAddr: 0x100005B30, symSize: 0x70 }
  - { offsetInCU: 0x9557, offset: 0x9557, size: 0x8, addend: 0x0, symName: __ZNSt3__117__libcpp_allocateB8ue170006Emm, symObjAddr: 0x5470, symBinAddr: 0x100005CD0, symSize: 0x60 }
  - { offsetInCU: 0x95B1, offset: 0x95B1, size: 0x8, addend: 0x0, symName: __ZNSt3__124__is_overaligned_for_newB8ue170006Em, symObjAddr: 0x54D0, symBinAddr: 0x100005D30, symSize: 0x20 }
  - { offsetInCU: 0x95DF, offset: 0x95DF, size: 0x8, addend: 0x0, symName: __ZNSt3__121__libcpp_operator_newB8ue170006IJmSt11align_val_tEEEPvDpT_, symObjAddr: 0x54F0, symBinAddr: 0x100005D50, symSize: 0x30 }
  - { offsetInCU: 0x962C, offset: 0x962C, size: 0x8, addend: 0x0, symName: __ZNSt3__121__libcpp_operator_newB8ue170006IJmEEEPvDpT_, symObjAddr: 0x5520, symBinAddr: 0x100005D80, symSize: 0x20 }
  - { offsetInCU: 0x9665, offset: 0x9665, size: 0x8, addend: 0x0, symName: __ZNSt3__112__to_addressB8ue170006INS_4listIiNS_9allocatorIiEEEEEEPT_S6_, symObjAddr: 0x56E0, symBinAddr: 0x100005F40, symSize: 0x10 }
  - { offsetInCU: 0x96BF, offset: 0x96BF, size: 0x8, addend: 0x0, symName: __ZNSt3__112construct_atB8ue170006INS_4listIiNS_9allocatorIiEEEEJEPS4_EEPT_S7_DpOT0_, symObjAddr: 0x5AC0, symBinAddr: 0x100006320, symSize: 0x30 }
  - { offsetInCU: 0x974E, offset: 0x974E, size: 0x8, addend: 0x0, symName: __ZNSt3__110destroy_atB8ue170006INS_4listIiNS_9allocatorIiEEEELi0EEEvPT_, symObjAddr: 0x6770, symBinAddr: 0x100006FD0, symSize: 0x20 }
  - { offsetInCU: 0x9785, offset: 0x9785, size: 0x8, addend: 0x0, symName: __ZNSt3__112__destroy_atB8ue170006INS_4listIiNS_9allocatorIiEEEELi0EEEvPT_, symObjAddr: 0x6790, symBinAddr: 0x100006FF0, symSize: 0x20 }
  - { offsetInCU: 0x97BC, offset: 0x97BC, size: 0x8, addend: 0x0, symName: __ZNSt3__119__libcpp_deallocateB8ue170006EPvmm, symObjAddr: 0x6800, symBinAddr: 0x100007060, symSize: 0x60 }
  - { offsetInCU: 0x9821, offset: 0x9821, size: 0x8, addend: 0x0, symName: __ZNSt3__127__do_deallocate_handle_sizeB8ue170006IJSt11align_val_tEEEvPvmDpT_, symObjAddr: 0x6860, symBinAddr: 0x1000070C0, symSize: 0x30 }
  - { offsetInCU: 0x9874, offset: 0x9874, size: 0x8, addend: 0x0, symName: __ZNSt3__127__do_deallocate_handle_sizeB8ue170006IJEEEvPvmDpT_, symObjAddr: 0x6890, symBinAddr: 0x1000070F0, symSize: 0x20 }
  - { offsetInCU: 0x98B2, offset: 0x98B2, size: 0x8, addend: 0x0, symName: __ZNSt3__124__libcpp_operator_deleteB8ue170006IJPvSt11align_val_tEEEvDpT_, symObjAddr: 0x68B0, symBinAddr: 0x100007110, symSize: 0x30 }
  - { offsetInCU: 0x98FB, offset: 0x98FB, size: 0x8, addend: 0x0, symName: __ZNSt3__124__libcpp_operator_deleteB8ue170006IJPvEEEvDpT_, symObjAddr: 0x68E0, symBinAddr: 0x100007140, symSize: 0x20 }
  - { offsetInCU: 0x9930, offset: 0x9930, size: 0x8, addend: 0x0, symName: __ZNSt3__119__allocate_at_leastB8ue170006INS_9allocatorImEEEENS_19__allocation_resultINS_16allocator_traitsIT_E7pointerEEERS5_m, symObjAddr: 0x7580, symBinAddr: 0x100007DE0, symSize: 0x210 }
  - { offsetInCU: 0x9975, offset: 0x9975, size: 0x8, addend: 0x0, symName: __ZNSt3__16fill_nB8ue170006INS_6vectorIbNS_9allocatorIbEEEEEEvNS_14__bit_iteratorIT_Lb0EXLi0EEEENS6_9size_typeEb, symObjAddr: 0x7940, symBinAddr: 0x1000081A0, symSize: 0x1C0 }
  - { offsetInCU: 0x99CA, offset: 0x99CA, size: 0x8, addend: 0x0, symName: __ZNSt3__16fill_nB8ue170006IPmmmEET_S2_T0_RKT1_, symObjAddr: 0x8B10, symBinAddr: 0x100009370, symSize: 0x40 }
  - { offsetInCU: 0x9A2D, offset: 0x9A2D, size: 0x8, addend: 0x0, symName: __ZNSt3__112__to_addressB8ue170006ImEEPT_S2_, symObjAddr: 0x8B50, symBinAddr: 0x1000093B0, symSize: 0x10 }
  - { offsetInCU: 0x9A62, offset: 0x9A62, size: 0x8, addend: 0x0, symName: __ZNSt3__18__fill_nB8ue170006IPmmmEET_S2_T0_RKT1_, symObjAddr: 0x8B60, symBinAddr: 0x1000093C0, symSize: 0xC0 }
  - { offsetInCU: 0x9AC5, offset: 0x9AC5, size: 0x8, addend: 0x0, symName: __ZNSt3__121__convert_to_integralB8ue170006Em, symObjAddr: 0x8C20, symBinAddr: 0x100009480, symSize: 0x10 }
  - { offsetInCU: 0x9AF1, offset: 0x9AF1, size: 0x8, addend: 0x0, symName: __ZNSt3__16fill_nB8ue170006IPmmiEET_S2_T0_RKT1_, symObjAddr: 0x8D70, symBinAddr: 0x1000095D0, symSize: 0x40 }
  - { offsetInCU: 0x9B54, offset: 0x9B54, size: 0x8, addend: 0x0, symName: __ZNSt3__18__fill_nB8ue170006IPmmiEET_S2_T0_RKT1_, symObjAddr: 0x8DB0, symBinAddr: 0x100009610, symSize: 0xE0 }
  - { offsetInCU: 0x9BB7, offset: 0x9BB7, size: 0x8, addend: 0x0, symName: __ZNSt3__120__throw_out_of_rangeB8ue170006EPKc, symObjAddr: 0x96E0, symBinAddr: 0x100009F40, symSize: 0x70 }
  - { offsetInCU: 0x9BE1, offset: 0x9BE1, size: 0x8, addend: 0x0, symName: __ZNSt3__110destroy_atB8ue170006IiLi0EEEvPT_, symObjAddr: 0x9D30, symBinAddr: 0x10000A590, symSize: 0x20 }
  - { offsetInCU: 0x9C18, offset: 0x9C18, size: 0x8, addend: 0x0, symName: __ZNSt3__112__destroy_atB8ue170006IiLi0EEEvPT_, symObjAddr: 0x9D50, symBinAddr: 0x10000A5B0, symSize: 0x10 }
  - { offsetInCU: 0x9C4F, offset: 0x9C4F, size: 0x8, addend: 0x0, symName: __ZNSt3__116__pad_and_outputB8ue170006IcNS_11char_traitsIcEEEENS_19ostreambuf_iteratorIT_T0_EES6_PKS4_S8_S8_RNS_8ios_baseES4_, symObjAddr: 0xA5B0, symBinAddr: 0x10000AE10, symSize: 0x6E0 }
  - { offsetInCU: 0x9D2C, offset: 0x9D2C, size: 0x8, addend: 0x0, symName: __ZNSt3__112__to_addressB8ue170006IcEEPT_S2_, symObjAddr: 0xB330, symBinAddr: 0x10000BB90, symSize: 0x10 }
  - { offsetInCU: 0x9D61, offset: 0x9D61, size: 0x8, addend: 0x0, symName: __ZNSt3__19use_facetB8ue170006INS_5ctypeIcEEEERKT_RKNS_6localeE, symObjAddr: 0xB880, symBinAddr: 0x10000C0E0, symSize: 0x30 }
  - { offsetInCU: 0xA22E, offset: 0xA22E, size: 0x8, addend: 0x0, symName: __ZNSt3__118__constexpr_strlenB8ue170006EPKc, symObjAddr: 0xB9D0, symBinAddr: 0x10000C230, symSize: 0x20 }
  - { offsetInCU: 0xA276, offset: 0xA276, size: 0x8, addend: 0x0, symName: __ZNSt3__1eqB8ue170006ERKNS_15__list_iteratorIiPvEES4_, symObjAddr: 0xC0E0, symBinAddr: 0x10000C940, symSize: 0x90 }
  - { offsetInCU: 0xA2F6, offset: 0xA2F6, size: 0x8, addend: 0x0, symName: __ZNSt3__112construct_atB8ue170006IiJRKiEPiEEPT_S5_DpOT0_, symObjAddr: 0xDB00, symBinAddr: 0x10000E360, symSize: 0xD0 }
  - { offsetInCU: 0xA366, offset: 0xA366, size: 0x8, addend: 0x0, symName: __ZNSt3__1neB8ue170006ERKNS_21__list_const_iteratorIiPvEES4_, symObjAddr: 0xDE30, symBinAddr: 0x10000E690, symSize: 0x30 }
  - { offsetInCU: 0xA3A3, offset: 0xA3A3, size: 0x8, addend: 0x0, symName: __ZNSt3__1eqB8ue170006ERKNS_21__list_const_iteratorIiPvEES4_, symObjAddr: 0xDF20, symBinAddr: 0x10000E780, symSize: 0x90 }
  - { offsetInCU: 0xA875, offset: 0xA875, size: 0x8, addend: 0x0, symName: __ZSt28__throw_bad_array_new_lengthB8ue170006v, symObjAddr: 0x5430, symBinAddr: 0x100005C90, symSize: 0x40 }
  - { offsetInCU: 0xABE1, offset: 0xABE1, size: 0x8, addend: 0x0, symName: __ZL8isFriend, symObjAddr: 0x48860, symBinAddr: 0x100011360, symSize: 0x0 }
  - { offsetInCU: 0xAD25, offset: 0xAD25, size: 0x8, addend: 0x0, symName: _.str, symObjAddr: 0xEC00, symBinAddr: 0x10000F5C0, symSize: 0x0 }
  - { offsetInCU: 0xAD55, offset: 0xAD55, size: 0x8, addend: 0x0, symName: _.str.2, symObjAddr: 0xEC20, symBinAddr: 0x10000F5E0, symSize: 0x0 }
  - { offsetInCU: 0xAD80, offset: 0xAD80, size: 0x8, addend: 0x0, symName: _.str.3, symObjAddr: 0xEC40, symBinAddr: 0x10000F600, symSize: 0x0 }
  - { offsetInCU: 0xAD9D, offset: 0xAD9D, size: 0x8, addend: 0x0, symName: _.str.4, symObjAddr: 0xEC80, symBinAddr: 0x10000F640, symSize: 0x0 }
  - { offsetInCU: 0xADBA, offset: 0xADBA, size: 0x8, addend: 0x0, symName: _.str.5, symObjAddr: 0xECA0, symBinAddr: 0x10000F660, symSize: 0x0 }
  - { offsetInCU: 0xADD7, offset: 0xADD7, size: 0x8, addend: 0x0, symName: _.str.6, symObjAddr: 0xECE0, symBinAddr: 0x10000F6A0, symSize: 0x0 }
  - { offsetInCU: 0xADF5, offset: 0xADF5, size: 0x8, addend: 0x0, symName: _.str.7, symObjAddr: 0xED00, symBinAddr: 0x10000F6C0, symSize: 0x0 }
  - { offsetInCU: 0xAE16, offset: 0xAE16, size: 0x8, addend: 0x0, symName: __ZL1s, symObjAddr: 0x488A0, symBinAddr: 0x1000113A0, symSize: 0x0 }
  - { offsetInCU: 0xD5F9, offset: 0xD5F9, size: 0x8, addend: 0x0, symName: __ZNSt3__16vectorINS_4listIiNS_9allocatorIiEEEENS2_IS4_EEEC1Em, symObjAddr: 0x0, symBinAddr: 0x100000860, symSize: 0x30 }
  - { offsetInCU: 0xD634, offset: 0xD634, size: 0x8, addend: 0x0, symName: __ZNSt3__16vectorINS_4listIiNS_9allocatorIiEEEENS2_IS4_EEED1B8ue170006Ev, symObjAddr: 0x30, symBinAddr: 0x100000890, symSize: 0x20 }
  - { offsetInCU: 0xD65E, offset: 0xD65E, size: 0x8, addend: 0x0, symName: __ZNSt3__16vectorIbNS_9allocatorIbEEEC1Em, symObjAddr: 0x50, symBinAddr: 0x1000008B0, symSize: 0x30 }
  - { offsetInCU: 0xD699, offset: 0xD699, size: 0x8, addend: 0x0, symName: __ZNSt3__16vectorIbNS_9allocatorIbEEED1B8ue170006Ev, symObjAddr: 0x80, symBinAddr: 0x1000008E0, symSize: 0x20 }
  - { offsetInCU: 0xD6C2, offset: 0xD6C2, size: 0x8, addend: 0x0, symName: __Z4getSi, symObjAddr: 0xA0, symBinAddr: 0x100000900, symSize: 0x530 }
  - { offsetInCU: 0xD72A, offset: 0xD72A, size: 0x8, addend: 0x0, symName: __ZNSt3__113basic_ostreamIcNS_11char_traitsIcEEElsB8ue170006EPFRS3_S4_E, symObjAddr: 0x610, symBinAddr: 0x100000E70, symSize: 0x20 }
  - { offsetInCU: 0xD75D, offset: 0xD75D, size: 0x8, addend: 0x0, symName: __Z4initv, symObjAddr: 0x6E0, symBinAddr: 0x100000F40, symSize: 0x3A0 }
  - { offsetInCU: 0xD796, offset: 0xD796, size: 0x8, addend: 0x0, symName: __ZNSt16initializer_listIiEC1B8ue170006Ev, symObjAddr: 0xA80, symBinAddr: 0x1000012E0, symSize: 0x20 }
  - { offsetInCU: 0xD7C0, offset: 0xD7C0, size: 0x8, addend: 0x0, symName: __ZNSt3__16vectorINS_4listIiNS_9allocatorIiEEEENS2_IS4_EEEixB8ue170006Em, symObjAddr: 0xAA0, symBinAddr: 0x100001300, symSize: 0x60 }
  - { offsetInCU: 0xD7F7, offset: 0xD7F7, size: 0x8, addend: 0x0, symName: __ZNSt3__14listIiNS_9allocatorIiEEEaSB8ue170006ESt16initializer_listIiE, symObjAddr: 0xB00, symBinAddr: 0x100001360, symSize: 0x1F0 }
  - { offsetInCU: 0xD831, offset: 0xD831, size: 0x8, addend: 0x0, symName: __ZNSt3__16vectorIbNS_9allocatorIbEEEixB8ue170006Em, symObjAddr: 0xCF0, symBinAddr: 0x100001550, symSize: 0x210 }
  - { offsetInCU: 0xD868, offset: 0xD868, size: 0x8, addend: 0x0, symName: __ZNSt3__115__bit_referenceINS_6vectorIbNS_9allocatorIbEEEELb1EEaSB8ue170006Eb, symObjAddr: 0xF00, symBinAddr: 0x100001760, symSize: 0x180 }
  - { offsetInCU: 0xD89B, offset: 0xD89B, size: 0x8, addend: 0x0, symName: __Z13closeFriends0i, symObjAddr: 0x1080, symBinAddr: 0x1000018E0, symSize: 0x510 }
  - { offsetInCU: 0xD936, offset: 0xD936, size: 0x8, addend: 0x0, symName: __ZNKSt3__115__bit_referenceINS_6vectorIbNS_9allocatorIbEEEELb1EEcvbB8ue170006Ev, symObjAddr: 0x1590, symBinAddr: 0x100001DF0, symSize: 0xD0 }
  - { offsetInCU: 0xD95C, offset: 0xD95C, size: 0x8, addend: 0x0, symName: __ZNSt3__16vectorINS_4listIiNS_9allocatorIiEEEENS2_IS4_EEE2atEm, symObjAddr: 0x1660, symBinAddr: 0x100001EC0, symSize: 0x90 }
  - { offsetInCU: 0xD993, offset: 0xD993, size: 0x8, addend: 0x0, symName: __ZNSt3__14listIiNS_9allocatorIiEEE5beginB8ue170006Ev, symObjAddr: 0x16F0, symBinAddr: 0x100001F50, symSize: 0x1B0 }
  - { offsetInCU: 0xD9BA, offset: 0xD9BA, size: 0x8, addend: 0x0, symName: __ZNSt3__14listIiNS_9allocatorIiEEE3endB8ue170006Ev, symObjAddr: 0x18A0, symBinAddr: 0x100002100, symSize: 0x1B0 }
  - { offsetInCU: 0xD9E1, offset: 0xD9E1, size: 0x8, addend: 0x0, symName: __ZNKSt3__115__list_iteratorIiPvEdeB8ue170006Ev, symObjAddr: 0x1A80, symBinAddr: 0x1000022E0, symSize: 0x50 }
  - { offsetInCU: 0xDA07, offset: 0xDA07, size: 0x8, addend: 0x0, symName: __ZNSt3__115__list_iteratorIiPvEppB8ue170006Ev, symObjAddr: 0x1AD0, symBinAddr: 0x100002330, symSize: 0xC0 }
  - { offsetInCU: 0xDA2D, offset: 0xDA2D, size: 0x8, addend: 0x0, symName: __ZNSt3__14listIiNS_9allocatorIiEEE5clearB8ue170006Ev, symObjAddr: 0x1B90, symBinAddr: 0x1000023F0, symSize: 0x20 }
  - { offsetInCU: 0xDA52, offset: 0xDA52, size: 0x8, addend: 0x0, symName: __Z12closeFriendsi, symObjAddr: 0x1BB0, symBinAddr: 0x100002410, symSize: 0xC70 }
  - { offsetInCU: 0xDAFD, offset: 0xDAFD, size: 0x8, addend: 0x0, symName: __ZNSt3__14listIiNS_9allocatorIiEEEC1ESt16initializer_listIiE, symObjAddr: 0x2820, symBinAddr: 0x100003080, symSize: 0x230 }
  - { offsetInCU: 0xDB3D, offset: 0xDB3D, size: 0x8, addend: 0x0, symName: __ZNKSt3__14listIiNS_9allocatorIiEEE5emptyB8ue170006Ev, symObjAddr: 0x2A50, symBinAddr: 0x1000032B0, symSize: 0x20 }
  - { offsetInCU: 0xDB63, offset: 0xDB63, size: 0x8, addend: 0x0, symName: __ZNSt3__14listIiNS_9allocatorIiEEE5frontB8ue170006Ev, symObjAddr: 0x2A70, symBinAddr: 0x1000032D0, symSize: 0x60 }
  - { offsetInCU: 0xDB89, offset: 0xDB89, size: 0x8, addend: 0x0, symName: __ZNSt3__14listIiNS_9allocatorIiEEE9pop_frontEv, symObjAddr: 0x2AD0, symBinAddr: 0x100003330, symSize: 0xE0 }
  - { offsetInCU: 0xDBDE, offset: 0xDBDE, size: 0x8, addend: 0x0, symName: __ZNSt3__14listIiNS_9allocatorIiEEE9push_backERKi, symObjAddr: 0x2BB0, symBinAddr: 0x100003410, symSize: 0x300 }
  - { offsetInCU: 0xDC3A, offset: 0xDC3A, size: 0x8, addend: 0x0, symName: __ZNSt3__14listIiNS_9allocatorIiEEED1Ev, symObjAddr: 0x2EB0, symBinAddr: 0x100003710, symSize: 0x20 }
  - { offsetInCU: 0xDC66, offset: 0xDC66, size: 0x8, addend: 0x0, symName: __Z5solvev, symObjAddr: 0x2ED0, symBinAddr: 0x100003730, symSize: 0x7F0 }
  - { offsetInCU: 0xDCD9, offset: 0xDCD9, size: 0x8, addend: 0x0, symName: _main, symObjAddr: 0x36C0, symBinAddr: 0x100003F20, symSize: 0x70 }
  - { offsetInCU: 0xDD03, offset: 0xDD03, size: 0x8, addend: 0x0, symName: __ZNSt3__16vectorINS_4listIiNS_9allocatorIiEEEENS2_IS4_EEEC2Em, symObjAddr: 0x3730, symBinAddr: 0x100003F90, symSize: 0x400 }
  - { offsetInCU: 0xDD63, offset: 0xDD63, size: 0x8, addend: 0x0, symName: __ZNSt3__117__compressed_pairIPNS_4listIiNS_9allocatorIiEEEENS2_IS4_EEEC1B8ue170006IDnNS_18__default_init_tagEEEOT_OT0_, symObjAddr: 0x3B30, symBinAddr: 0x100004390, symSize: 0x30 }
  - { offsetInCU: 0xDDBB, offset: 0xDDBB, size: 0x8, addend: 0x0, symName: __ZNSt3__16vectorINS_4listIiNS_9allocatorIiEEEENS2_IS4_EEE16__destroy_vectorC1B8ue170006ERS6_, symObjAddr: 0x3D50, symBinAddr: 0x1000045B0, symSize: 0x30 }
  - { offsetInCU: 0xDDF4, offset: 0xDDF4, size: 0x8, addend: 0x0, symName: __ZNSt3__16vectorINS_4listIiNS_9allocatorIiEEEENS2_IS4_EEE11__vallocateB8ue170006Em, symObjAddr: 0x3D80, symBinAddr: 0x1000045E0, symSize: 0x400 }
  - { offsetInCU: 0xDE3E, offset: 0xDE3E, size: 0x8, addend: 0x0, symName: __ZNSt3__16vectorINS_4listIiNS_9allocatorIiEEEENS2_IS4_EEE18__construct_at_endEm, symObjAddr: 0x4180, symBinAddr: 0x1000049E0, symSize: 0x350 }
  - { offsetInCU: 0xDEB8, offset: 0xDEB8, size: 0x8, addend: 0x0, symName: __ZNSt3__128__exception_guard_exceptionsINS_6vectorINS_4listIiNS_9allocatorIiEEEENS3_IS5_EEE16__destroy_vectorEE10__completeB8ue170006Ev, symObjAddr: 0x44D0, symBinAddr: 0x100004D30, symSize: 0x70 }
  - { offsetInCU: 0xDEDE, offset: 0xDEDE, size: 0x8, addend: 0x0, symName: __ZNSt3__128__exception_guard_exceptionsINS_6vectorINS_4listIiNS_9allocatorIiEEEENS3_IS5_EEE16__destroy_vectorEED1B8ue170006Ev, symObjAddr: 0x4540, symBinAddr: 0x100004DA0, symSize: 0x20 }
  - { offsetInCU: 0xDF08, offset: 0xDF08, size: 0x8, addend: 0x0, symName: __ZNSt3__117__compressed_pairIPNS_4listIiNS_9allocatorIiEEEENS2_IS4_EEEC2B8ue170006IDnNS_18__default_init_tagEEEOT_OT0_, symObjAddr: 0x4560, symBinAddr: 0x100004DC0, symSize: 0x40 }
  - { offsetInCU: 0xDF60, offset: 0xDF60, size: 0x8, addend: 0x0, symName: __ZNSt3__122__compressed_pair_elemIPNS_4listIiNS_9allocatorIiEEEELi0ELb0EEC2B8ue170006IDnvEEOT_, symObjAddr: 0x45A0, symBinAddr: 0x100004E00, symSize: 0x50 }
  - { offsetInCU: 0xDFA2, offset: 0xDFA2, size: 0x8, addend: 0x0, symName: __ZNSt3__122__compressed_pair_elemINS_9allocatorINS_4listIiNS1_IiEEEEEELi1ELb1EEC2B8ue170006ENS_18__default_init_tagE, symObjAddr: 0x45F0, symBinAddr: 0x100004E50, symSize: 0x20 }
  - { offsetInCU: 0xDFD7, offset: 0xDFD7, size: 0x8, addend: 0x0, symName: __ZNSt3__19allocatorINS_4listIiNS0_IiEEEEEC2B8ue170006Ev, symObjAddr: 0x4610, symBinAddr: 0x100004E70, symSize: 0x20 }
  - { offsetInCU: 0xE001, offset: 0xE001, size: 0x8, addend: 0x0, symName: __ZNSt3__116__non_trivial_ifILb1ENS_9allocatorINS_4listIiNS1_IiEEEEEEEC2B8ue170006Ev, symObjAddr: 0x4630, symBinAddr: 0x100004E90, symSize: 0x10 }
  - { offsetInCU: 0xE02B, offset: 0xE02B, size: 0x8, addend: 0x0, symName: __ZNSt3__128__exception_guard_exceptionsINS_6vectorINS_4listIiNS_9allocatorIiEEEENS3_IS5_EEE16__destroy_vectorEEC1B8ue170006ES8_, symObjAddr: 0x4640, symBinAddr: 0x100004EA0, symSize: 0x1B0 }
  - { offsetInCU: 0xE068, offset: 0xE068, size: 0x8, addend: 0x0, symName: __ZNSt3__128__exception_guard_exceptionsINS_6vectorINS_4listIiNS_9allocatorIiEEEENS3_IS5_EEE16__destroy_vectorEEC2B8ue170006ES8_, symObjAddr: 0x47F0, symBinAddr: 0x100005050, symSize: 0x1E0 }
  - { offsetInCU: 0xE0A5, offset: 0xE0A5, size: 0x8, addend: 0x0, symName: __ZNSt3__16vectorINS_4listIiNS_9allocatorIiEEEENS2_IS4_EEE16__destroy_vectorC2B8ue170006ERS6_, symObjAddr: 0x49D0, symBinAddr: 0x100005230, symSize: 0x60 }
  - { offsetInCU: 0xE0DE, offset: 0xE0DE, size: 0x8, addend: 0x0, symName: __ZNKSt3__16vectorINS_4listIiNS_9allocatorIiEEEENS2_IS4_EEE8max_sizeEv, symObjAddr: 0x4A30, symBinAddr: 0x100005290, symSize: 0x260 }
  - { offsetInCU: 0xE107, offset: 0xE107, size: 0x8, addend: 0x0, symName: __ZNKSt3__16vectorINS_4listIiNS_9allocatorIiEEEENS2_IS4_EEE20__throw_length_errorB8ue170006Ev, symObjAddr: 0x4C90, symBinAddr: 0x1000054F0, symSize: 0x20 }
  - { offsetInCU: 0xE12D, offset: 0xE12D, size: 0x8, addend: 0x0, symName: __ZNSt3__16vectorINS_4listIiNS_9allocatorIiEEEENS2_IS4_EEE7__allocB8ue170006Ev, symObjAddr: 0x4EC0, symBinAddr: 0x100005720, symSize: 0x20 }
  - { offsetInCU: 0xE153, offset: 0xE153, size: 0x8, addend: 0x0, symName: __ZNSt3__16vectorINS_4listIiNS_9allocatorIiEEEENS2_IS4_EEE9__end_capB8ue170006Ev, symObjAddr: 0x4EE0, symBinAddr: 0x100005740, symSize: 0x20 }
  - { offsetInCU: 0xE179, offset: 0xE179, size: 0x8, addend: 0x0, symName: __ZNKSt3__16vectorINS_4listIiNS_9allocatorIiEEEENS2_IS4_EEE14__annotate_newB8ue170006Em, symObjAddr: 0x4F00, symBinAddr: 0x100005760, symSize: 0xC0 }
  - { offsetInCU: 0xE1B8, offset: 0xE1B8, size: 0x8, addend: 0x0, symName: __ZNSt3__116allocator_traitsINS_9allocatorINS_4listIiNS1_IiEEEEEEE8max_sizeB8ue170006IS5_vvEEmRKS5_, symObjAddr: 0x4FF0, symBinAddr: 0x100005850, symSize: 0x30 }
  - { offsetInCU: 0xE1E4, offset: 0xE1E4, size: 0x8, addend: 0x0, symName: __ZNKSt3__16vectorINS_4listIiNS_9allocatorIiEEEENS2_IS4_EEE7__allocB8ue170006Ev, symObjAddr: 0x5020, symBinAddr: 0x100005880, symSize: 0x20 }
  - { offsetInCU: 0xE20A, offset: 0xE20A, size: 0x8, addend: 0x0, symName: __ZNSt3__114numeric_limitsIlE3maxB8ue170006Ev, symObjAddr: 0x5040, symBinAddr: 0x1000058A0, symSize: 0x10 }
  - { offsetInCU: 0xE228, offset: 0xE228, size: 0x8, addend: 0x0, symName: __ZNKSt3__16__lessIvvEclB8ue170006ImmEEbRKT_RKT0_, symObjAddr: 0x51D0, symBinAddr: 0x100005A30, symSize: 0xA0 }
  - { offsetInCU: 0xE27C, offset: 0xE27C, size: 0x8, addend: 0x0, symName: __ZNSt3__114numeric_limitsImE3maxB8ue170006Ev, symObjAddr: 0x5270, symBinAddr: 0x100005AD0, symSize: 0x10 }
  - { offsetInCU: 0xE290, offset: 0xE290, size: 0x8, addend: 0x0, symName: __ZNSt3__123__libcpp_numeric_limitsImLb1EE3maxB8ue170006Ev, symObjAddr: 0x5280, symBinAddr: 0x100005AE0, symSize: 0x10 }
  - { offsetInCU: 0xE2A4, offset: 0xE2A4, size: 0x8, addend: 0x0, symName: __ZNKSt3__117__compressed_pairIPNS_4listIiNS_9allocatorIiEEEENS2_IS4_EEE6secondB8ue170006Ev, symObjAddr: 0x5290, symBinAddr: 0x100005AF0, symSize: 0x20 }
  - { offsetInCU: 0xE2CA, offset: 0xE2CA, size: 0x8, addend: 0x0, symName: __ZNKSt3__122__compressed_pair_elemINS_9allocatorINS_4listIiNS1_IiEEEEEELi1ELb1EE5__getB8ue170006Ev, symObjAddr: 0x52B0, symBinAddr: 0x100005B10, symSize: 0x10 }
  - { offsetInCU: 0xE2F0, offset: 0xE2F0, size: 0x8, addend: 0x0, symName: __ZNSt3__123__libcpp_numeric_limitsIlLb1EE3maxB8ue170006Ev, symObjAddr: 0x52C0, symBinAddr: 0x100005B20, symSize: 0x10 }
  - { offsetInCU: 0xE304, offset: 0xE304, size: 0x8, addend: 0x0, symName: __ZNSt12length_errorC1B8ue170006EPKc, symObjAddr: 0x5340, symBinAddr: 0x100005BA0, symSize: 0x30 }
  - { offsetInCU: 0xE33C, offset: 0xE33C, size: 0x8, addend: 0x0, symName: __ZNSt12length_errorC2B8ue170006EPKc, symObjAddr: 0x5370, symBinAddr: 0x100005BD0, symSize: 0x70 }
  - { offsetInCU: 0xE374, offset: 0xE374, size: 0x8, addend: 0x0, symName: __ZNSt3__19allocatorINS_4listIiNS0_IiEEEEE8allocateB8ue170006Em, symObjAddr: 0x53E0, symBinAddr: 0x100005C40, symSize: 0x50 }
  - { offsetInCU: 0xE3A8, offset: 0xE3A8, size: 0x8, addend: 0x0, symName: __ZNSt3__117__compressed_pairIPNS_4listIiNS_9allocatorIiEEEENS2_IS4_EEE6secondB8ue170006Ev, symObjAddr: 0x5540, symBinAddr: 0x100005DA0, symSize: 0x20 }
  - { offsetInCU: 0xE3CE, offset: 0xE3CE, size: 0x8, addend: 0x0, symName: __ZNSt3__122__compressed_pair_elemINS_9allocatorINS_4listIiNS1_IiEEEEEELi1ELb1EE5__getB8ue170006Ev, symObjAddr: 0x5560, symBinAddr: 0x100005DC0, symSize: 0x10 }
  - { offsetInCU: 0xE3F4, offset: 0xE3F4, size: 0x8, addend: 0x0, symName: __ZNSt3__117__compressed_pairIPNS_4listIiNS_9allocatorIiEEEENS2_IS4_EEE5firstB8ue170006Ev, symObjAddr: 0x5570, symBinAddr: 0x100005DD0, symSize: 0x20 }
  - { offsetInCU: 0xE41A, offset: 0xE41A, size: 0x8, addend: 0x0, symName: __ZNSt3__122__compressed_pair_elemIPNS_4listIiNS_9allocatorIiEEEELi0ELb0EE5__getB8ue170006Ev, symObjAddr: 0x5590, symBinAddr: 0x100005DF0, symSize: 0x10 }
  - { offsetInCU: 0xE440, offset: 0xE440, size: 0x8, addend: 0x0, symName: __ZNKSt3__16vectorINS_4listIiNS_9allocatorIiEEEENS2_IS4_EEE31__annotate_contiguous_containerEPKvS8_S8_S8_, symObjAddr: 0x55A0, symBinAddr: 0x100005E00, symSize: 0x50 }
  - { offsetInCU: 0xE4A2, offset: 0xE4A2, size: 0x8, addend: 0x0, symName: __ZNKSt3__16vectorINS_4listIiNS_9allocatorIiEEEENS2_IS4_EEE4dataB8ue170006Ev, symObjAddr: 0x55F0, symBinAddr: 0x100005E50, symSize: 0x50 }
  - { offsetInCU: 0xE4C8, offset: 0xE4C8, size: 0x8, addend: 0x0, symName: __ZNKSt3__16vectorINS_4listIiNS_9allocatorIiEEEENS2_IS4_EEE8capacityB8ue170006Ev, symObjAddr: 0x5640, symBinAddr: 0x100005EA0, symSize: 0xA0 }
  - { offsetInCU: 0xE4EE, offset: 0xE4EE, size: 0x8, addend: 0x0, symName: __ZNKSt3__16vectorINS_4listIiNS_9allocatorIiEEEENS2_IS4_EEE9__end_capB8ue170006Ev, symObjAddr: 0x56F0, symBinAddr: 0x100005F50, symSize: 0x20 }
  - { offsetInCU: 0xE514, offset: 0xE514, size: 0x8, addend: 0x0, symName: __ZNKSt3__117__compressed_pairIPNS_4listIiNS_9allocatorIiEEEENS2_IS4_EEE5firstB8ue170006Ev, symObjAddr: 0x5710, symBinAddr: 0x100005F70, symSize: 0x20 }
  - { offsetInCU: 0xE53A, offset: 0xE53A, size: 0x8, addend: 0x0, symName: __ZNKSt3__122__compressed_pair_elemIPNS_4listIiNS_9allocatorIiEEEELi0ELb0EE5__getB8ue170006Ev, symObjAddr: 0x5730, symBinAddr: 0x100005F90, symSize: 0x10 }
  - { offsetInCU: 0xE579, offset: 0xE579, size: 0x8, addend: 0x0, symName: __ZNSt3__16vectorINS_4listIiNS_9allocatorIiEEEENS2_IS4_EEE21_ConstructTransactionC1B8ue170006ERS6_m, symObjAddr: 0x5740, symBinAddr: 0x100005FA0, symSize: 0x30 }
  - { offsetInCU: 0xE5C1, offset: 0xE5C1, size: 0x8, addend: 0x0, symName: __ZNSt3__116allocator_traitsINS_9allocatorINS_4listIiNS1_IiEEEEEEE9constructB8ue170006IS4_JEvvEEvRS5_PT_DpOT0_, symObjAddr: 0x5770, symBinAddr: 0x100005FD0, symSize: 0x20 }
  - { offsetInCU: 0xE601, offset: 0xE601, size: 0x8, addend: 0x0, symName: __ZNSt3__16vectorINS_4listIiNS_9allocatorIiEEEENS2_IS4_EEE21_ConstructTransactionD1B8ue170006Ev, symObjAddr: 0x5790, symBinAddr: 0x100005FF0, symSize: 0x20 }
  - { offsetInCU: 0xE62B, offset: 0xE62B, size: 0x8, addend: 0x0, symName: __ZNSt3__16vectorINS_4listIiNS_9allocatorIiEEEENS2_IS4_EEE21_ConstructTransactionC2B8ue170006ERS6_m, symObjAddr: 0x57B0, symBinAddr: 0x100006010, symSize: 0x190 }
  - { offsetInCU: 0xE673, offset: 0xE673, size: 0x8, addend: 0x0, symName: __ZNKSt3__16vectorINS_4listIiNS_9allocatorIiEEEENS2_IS4_EEE19__annotate_increaseB8ue170006Em, symObjAddr: 0x5940, symBinAddr: 0x1000061A0, symSize: 0xE0 }
  - { offsetInCU: 0xE6A8, offset: 0xE6A8, size: 0x8, addend: 0x0, symName: __ZNKSt3__16vectorINS_4listIiNS_9allocatorIiEEEENS2_IS4_EEE4sizeB8ue170006Ev, symObjAddr: 0x5A20, symBinAddr: 0x100006280, symSize: 0xA0 }
  - { offsetInCU: 0xE6CE, offset: 0xE6CE, size: 0x8, addend: 0x0, symName: __ZNSt3__14listIiNS_9allocatorIiEEEC1B8ue170006Ev, symObjAddr: 0x5AF0, symBinAddr: 0x100006350, symSize: 0x20 }
  - { offsetInCU: 0xE6F8, offset: 0xE6F8, size: 0x8, addend: 0x0, symName: __ZNSt3__14listIiNS_9allocatorIiEEEC2B8ue170006Ev, symObjAddr: 0x5B10, symBinAddr: 0x100006370, symSize: 0x20 }
  - { offsetInCU: 0xE722, offset: 0xE722, size: 0x8, addend: 0x0, symName: __ZNSt3__110__list_impIiNS_9allocatorIiEEEC2Ev, symObjAddr: 0x5B30, symBinAddr: 0x100006390, symSize: 0x200 }
  - { offsetInCU: 0xE74F, offset: 0xE74F, size: 0x8, addend: 0x0, symName: __ZNSt3__116__list_node_baseIiPvEC1B8ue170006Ev, symObjAddr: 0x5D30, symBinAddr: 0x100006590, symSize: 0x20 }
  - { offsetInCU: 0xE77E, offset: 0xE77E, size: 0x8, addend: 0x0, symName: __ZNSt3__117__compressed_pairImNS_9allocatorINS_11__list_nodeIiPvEEEEEC1B8ue170006IiNS_18__default_init_tagEEEOT_OT0_, symObjAddr: 0x5D50, symBinAddr: 0x1000065B0, symSize: 0x30 }
  - { offsetInCU: 0xE7D6, offset: 0xE7D6, size: 0x8, addend: 0x0, symName: __ZNSt3__116__list_node_baseIiPvEC2B8ue170006Ev, symObjAddr: 0x5D80, symBinAddr: 0x1000065E0, symSize: 0xC0 }
  - { offsetInCU: 0xE800, offset: 0xE800, size: 0x8, addend: 0x0, symName: __ZNSt3__126__list_node_pointer_traitsIiPvE26__unsafe_link_pointer_castB8ue170006EPNS_16__list_node_baseIiS1_EE, symObjAddr: 0x5E40, symBinAddr: 0x1000066A0, symSize: 0x10 }
  - { offsetInCU: 0xE824, offset: 0xE824, size: 0x8, addend: 0x0, symName: __ZNSt3__116__list_node_baseIiPvE6__selfB8ue170006Ev, symObjAddr: 0x5E50, symBinAddr: 0x1000066B0, symSize: 0x20 }
  - { offsetInCU: 0xE84F, offset: 0xE84F, size: 0x8, addend: 0x0, symName: __ZNSt3__114pointer_traitsIPNS_16__list_node_baseIiPvEEE10pointer_toB8ue170006ERS3_, symObjAddr: 0x5E70, symBinAddr: 0x1000066D0, symSize: 0x10 }
  - { offsetInCU: 0xE872, offset: 0xE872, size: 0x8, addend: 0x0, symName: __ZNSt3__117__compressed_pairImNS_9allocatorINS_11__list_nodeIiPvEEEEEC2B8ue170006IiNS_18__default_init_tagEEEOT_OT0_, symObjAddr: 0x5E80, symBinAddr: 0x1000066E0, symSize: 0x40 }
  - { offsetInCU: 0xE8CA, offset: 0xE8CA, size: 0x8, addend: 0x0, symName: __ZNSt3__122__compressed_pair_elemImLi0ELb0EEC2B8ue170006IivEEOT_, symObjAddr: 0x5EC0, symBinAddr: 0x100006720, symSize: 0xB0 }
  - { offsetInCU: 0xE90C, offset: 0xE90C, size: 0x8, addend: 0x0, symName: __ZNSt3__122__compressed_pair_elemINS_9allocatorINS_11__list_nodeIiPvEEEELi1ELb1EEC2B8ue170006ENS_18__default_init_tagE, symObjAddr: 0x5F70, symBinAddr: 0x1000067D0, symSize: 0x20 }
  - { offsetInCU: 0xE941, offset: 0xE941, size: 0x8, addend: 0x0, symName: __ZNSt3__19allocatorINS_11__list_nodeIiPvEEEC2B8ue170006Ev, symObjAddr: 0x5F90, symBinAddr: 0x1000067F0, symSize: 0x20 }
  - { offsetInCU: 0xE96B, offset: 0xE96B, size: 0x8, addend: 0x0, symName: __ZNSt3__116__non_trivial_ifILb1ENS_9allocatorINS_11__list_nodeIiPvEEEEEC2B8ue170006Ev, symObjAddr: 0x5FB0, symBinAddr: 0x100006810, symSize: 0x10 }
  - { offsetInCU: 0xE995, offset: 0xE995, size: 0x8, addend: 0x0, symName: __ZNSt3__16vectorINS_4listIiNS_9allocatorIiEEEENS2_IS4_EEE21_ConstructTransactionD2B8ue170006Ev, symObjAddr: 0x5FC0, symBinAddr: 0x100006820, symSize: 0x230 }
  - { offsetInCU: 0xE9BF, offset: 0xE9BF, size: 0x8, addend: 0x0, symName: __ZNKSt3__16vectorINS_4listIiNS_9allocatorIiEEEENS2_IS4_EEE17__annotate_shrinkB8ue170006Em, symObjAddr: 0x61F0, symBinAddr: 0x100006A50, symSize: 0xC0 }
  - { offsetInCU: 0xE9F4, offset: 0xE9F4, size: 0x8, addend: 0x0, symName: __ZNSt3__128__exception_guard_exceptionsINS_6vectorINS_4listIiNS_9allocatorIiEEEENS3_IS5_EEE16__destroy_vectorEED2B8ue170006Ev, symObjAddr: 0x62B0, symBinAddr: 0x100006B10, symSize: 0x90 }
  - { offsetInCU: 0xEA1E, offset: 0xEA1E, size: 0x8, addend: 0x0, symName: __ZNSt3__16vectorINS_4listIiNS_9allocatorIiEEEENS2_IS4_EEE16__destroy_vectorclB8ue170006Ev, symObjAddr: 0x6340, symBinAddr: 0x100006BA0, symSize: 0x1D0 }
  - { offsetInCU: 0xEA44, offset: 0xEA44, size: 0x8, addend: 0x0, symName: __ZNSt3__16vectorINS_4listIiNS_9allocatorIiEEEENS2_IS4_EEE7__clearB8ue170006Ev, symObjAddr: 0x6510, symBinAddr: 0x100006D70, symSize: 0x50 }
  - { offsetInCU: 0xEA6A, offset: 0xEA6A, size: 0x8, addend: 0x0, symName: __ZNKSt3__16vectorINS_4listIiNS_9allocatorIiEEEENS2_IS4_EEE17__annotate_deleteB8ue170006Ev, symObjAddr: 0x6560, symBinAddr: 0x100006DC0, symSize: 0xD0 }
  - { offsetInCU: 0xEA90, offset: 0xEA90, size: 0x8, addend: 0x0, symName: __ZNSt3__116allocator_traitsINS_9allocatorINS_4listIiNS1_IiEEEEEEE10deallocateB8ue170006ERS5_PS4_m, symObjAddr: 0x6630, symBinAddr: 0x100006E90, symSize: 0x30 }
  - { offsetInCU: 0xEAD2, offset: 0xEAD2, size: 0x8, addend: 0x0, symName: __ZNSt3__16vectorINS_4listIiNS_9allocatorIiEEEENS2_IS4_EEE22__base_destruct_at_endB8ue170006EPS4_, symObjAddr: 0x6660, symBinAddr: 0x100006EC0, symSize: 0xF0 }
  - { offsetInCU: 0xEB16, offset: 0xEB16, size: 0x8, addend: 0x0, symName: __ZNSt3__116allocator_traitsINS_9allocatorINS_4listIiNS1_IiEEEEEEE7destroyB8ue170006IS4_vvEEvRS5_PT_, symObjAddr: 0x6750, symBinAddr: 0x100006FB0, symSize: 0x20 }
  - { offsetInCU: 0xEB51, offset: 0xEB51, size: 0x8, addend: 0x0, symName: __ZNSt3__19allocatorINS_4listIiNS0_IiEEEEE10deallocateB8ue170006EPS3_m, symObjAddr: 0x67B0, symBinAddr: 0x100007010, symSize: 0x50 }
  - { offsetInCU: 0xEB93, offset: 0xEB93, size: 0x8, addend: 0x0, symName: __ZNSt3__16vectorINS_4listIiNS_9allocatorIiEEEENS2_IS4_EEED2B8ue170006Ev, symObjAddr: 0x6900, symBinAddr: 0x100007160, symSize: 0x170 }
  - { offsetInCU: 0xEBBE, offset: 0xEBBE, size: 0x8, addend: 0x0, symName: __ZNSt3__16vectorIbNS_9allocatorIbEEEC2Em, symObjAddr: 0x6A70, symBinAddr: 0x1000072D0, symSize: 0x260 }
  - { offsetInCU: 0xEBFB, offset: 0xEBFB, size: 0x8, addend: 0x0, symName: __ZNSt3__117__compressed_pairImNS_9allocatorImEEEC1B8ue170006IiNS_18__default_init_tagEEEOT_OT0_, symObjAddr: 0x6CD0, symBinAddr: 0x100007530, symSize: 0x30 }
  - { offsetInCU: 0xEC53, offset: 0xEC53, size: 0x8, addend: 0x0, symName: __ZNSt3__16vectorIbNS_9allocatorIbEEE11__vallocateB8ue170006Em, symObjAddr: 0x6D00, symBinAddr: 0x100007560, symSize: 0x350 }
  - { offsetInCU: 0xEC9D, offset: 0xEC9D, size: 0x8, addend: 0x0, symName: __ZNSt3__16vectorIbNS_9allocatorIbEEE18__construct_at_endB8ue170006Emb, symObjAddr: 0x7050, symBinAddr: 0x1000078B0, symSize: 0x400 }
  - { offsetInCU: 0xECF6, offset: 0xECF6, size: 0x8, addend: 0x0, symName: __ZNSt3__117__compressed_pairImNS_9allocatorImEEEC2B8ue170006IiNS_18__default_init_tagEEEOT_OT0_, symObjAddr: 0x7450, symBinAddr: 0x100007CB0, symSize: 0x40 }
  - { offsetInCU: 0xED4E, offset: 0xED4E, size: 0x8, addend: 0x0, symName: __ZNSt3__122__compressed_pair_elemINS_9allocatorImEELi1ELb1EEC2B8ue170006ENS_18__default_init_tagE, symObjAddr: 0x7490, symBinAddr: 0x100007CF0, symSize: 0x20 }
  - { offsetInCU: 0xED83, offset: 0xED83, size: 0x8, addend: 0x0, symName: __ZNSt3__19allocatorImEC2B8ue170006Ev, symObjAddr: 0x74B0, symBinAddr: 0x100007D10, symSize: 0x20 }
  - { offsetInCU: 0xEDAD, offset: 0xEDAD, size: 0x8, addend: 0x0, symName: __ZNSt3__116__non_trivial_ifILb1ENS_9allocatorImEEEC2B8ue170006Ev, symObjAddr: 0x74D0, symBinAddr: 0x100007D30, symSize: 0x10 }
  - { offsetInCU: 0xEDD7, offset: 0xEDD7, size: 0x8, addend: 0x0, symName: __ZNKSt3__16vectorIbNS_9allocatorIbEEE8max_sizeEv, symObjAddr: 0x74E0, symBinAddr: 0x100007D40, symSize: 0x80 }
  - { offsetInCU: 0xEE1D, offset: 0xEE1D, size: 0x8, addend: 0x0, symName: __ZNKSt3__16vectorIbNS_9allocatorIbEEE20__throw_length_errorB8ue170006Ev, symObjAddr: 0x7560, symBinAddr: 0x100007DC0, symSize: 0x20 }
  - { offsetInCU: 0xEE43, offset: 0xEE43, size: 0x8, addend: 0x0, symName: __ZNSt3__16vectorIbNS_9allocatorIbEEE7__allocB8ue170006Ev, symObjAddr: 0x7790, symBinAddr: 0x100007FF0, symSize: 0x20 }
  - { offsetInCU: 0xEE69, offset: 0xEE69, size: 0x8, addend: 0x0, symName: __ZNSt3__16vectorIbNS_9allocatorIbEEE26__external_cap_to_internalB8ue170006Em, symObjAddr: 0x77B0, symBinAddr: 0x100008010, symSize: 0x20 }
  - { offsetInCU: 0xEE8D, offset: 0xEE8D, size: 0x8, addend: 0x0, symName: __ZNSt3__16vectorIbNS_9allocatorIbEEE5__capB8ue170006Ev, symObjAddr: 0x77D0, symBinAddr: 0x100008030, symSize: 0x20 }
  - { offsetInCU: 0xEEBD, offset: 0xEEBD, size: 0x8, addend: 0x0, symName: __ZNSt3__116allocator_traitsINS_9allocatorImEEE8max_sizeB8ue170006IS2_vvEEmRKS2_, symObjAddr: 0x77F0, symBinAddr: 0x100008050, symSize: 0x20 }
  - { offsetInCU: 0xEEE9, offset: 0xEEE9, size: 0x8, addend: 0x0, symName: __ZNKSt3__16vectorIbNS_9allocatorIbEEE7__allocB8ue170006Ev, symObjAddr: 0x7810, symBinAddr: 0x100008070, symSize: 0x20 }
  - { offsetInCU: 0xEF0F, offset: 0xEF0F, size: 0x8, addend: 0x0, symName: __ZNSt3__16vectorIbNS_9allocatorIbEEE26__internal_cap_to_externalB8ue170006Em, symObjAddr: 0x7830, symBinAddr: 0x100008090, symSize: 0x20 }
  - { offsetInCU: 0xEF33, offset: 0xEF33, size: 0x8, addend: 0x0, symName: __ZNKSt3__117__compressed_pairImNS_9allocatorImEEE6secondB8ue170006Ev, symObjAddr: 0x7850, symBinAddr: 0x1000080B0, symSize: 0x20 }
  - { offsetInCU: 0xEF59, offset: 0xEF59, size: 0x8, addend: 0x0, symName: __ZNKSt3__122__compressed_pair_elemINS_9allocatorImEELi1ELb1EE5__getB8ue170006Ev, symObjAddr: 0x7870, symBinAddr: 0x1000080D0, symSize: 0x10 }
  - { offsetInCU: 0xEF7F, offset: 0xEF7F, size: 0x8, addend: 0x0, symName: __ZNSt3__19allocatorImE8allocateB8ue170006Em, symObjAddr: 0x7880, symBinAddr: 0x1000080E0, symSize: 0x60 }
  - { offsetInCU: 0xEFB3, offset: 0xEFB3, size: 0x8, addend: 0x0, symName: __ZNSt3__117__compressed_pairImNS_9allocatorImEEE6secondB8ue170006Ev, symObjAddr: 0x78E0, symBinAddr: 0x100008140, symSize: 0x20 }
  - { offsetInCU: 0xEFD9, offset: 0xEFD9, size: 0x8, addend: 0x0, symName: __ZNSt3__122__compressed_pair_elemINS_9allocatorImEELi1ELb1EE5__getB8ue170006Ev, symObjAddr: 0x7900, symBinAddr: 0x100008160, symSize: 0x10 }
  - { offsetInCU: 0xEFFF, offset: 0xEFFF, size: 0x8, addend: 0x0, symName: __ZNSt3__117__compressed_pairImNS_9allocatorImEEE5firstB8ue170006Ev, symObjAddr: 0x7910, symBinAddr: 0x100008170, symSize: 0x20 }
  - { offsetInCU: 0xF025, offset: 0xF025, size: 0x8, addend: 0x0, symName: __ZNSt3__122__compressed_pair_elemImLi0ELb0EE5__getB8ue170006Ev, symObjAddr: 0x7930, symBinAddr: 0x100008190, symSize: 0x10 }
  - { offsetInCU: 0xF04B, offset: 0xF04B, size: 0x8, addend: 0x0, symName: __ZNSt3__16vectorIbNS_9allocatorIbEEE11__make_iterB8ue170006Em, symObjAddr: 0x7B00, symBinAddr: 0x100008360, symSize: 0x80 }
  - { offsetInCU: 0xF080, offset: 0xF080, size: 0x8, addend: 0x0, symName: __ZNSt3__114__bit_iteratorINS_6vectorIbNS_9allocatorIbEEEELb0ELm0EEC1B8ue170006ERKS5_, symObjAddr: 0x8320, symBinAddr: 0x100008B80, symSize: 0x30 }
  - { offsetInCU: 0xF0B9, offset: 0xF0B9, size: 0x8, addend: 0x0, symName: __ZNSt3__114__bit_iteratorINS_6vectorIbNS_9allocatorIbEEEELb0ELm0EEC2B8ue170006ERKS5_, symObjAddr: 0x8C30, symBinAddr: 0x100009490, symSize: 0x140 }
  - { offsetInCU: 0xF0F2, offset: 0xF0F2, size: 0x8, addend: 0x0, symName: __ZNSt3__114__bit_iteratorINS_6vectorIbNS_9allocatorIbEEEELb0ELm0EEC1B8ue170006EPmj, symObjAddr: 0x8E90, symBinAddr: 0x1000096F0, symSize: 0x30 }
  - { offsetInCU: 0xF13A, offset: 0xF13A, size: 0x8, addend: 0x0, symName: __ZNSt3__114__bit_iteratorINS_6vectorIbNS_9allocatorIbEEEELb0ELm0EEC2B8ue170006EPmj, symObjAddr: 0x8EC0, symBinAddr: 0x100009720, symSize: 0xB0 }
  - { offsetInCU: 0xF182, offset: 0xF182, size: 0x8, addend: 0x0, symName: __ZNSt3__16vectorIbNS_9allocatorIbEEED2B8ue170006Ev, symObjAddr: 0x8F70, symBinAddr: 0x1000097D0, symSize: 0x170 }
  - { offsetInCU: 0xF1AD, offset: 0xF1AD, size: 0x8, addend: 0x0, symName: __ZNSt3__16vectorIbNS_9allocatorIbEEE16__destroy_vectorC1B8ue170006ERS3_, symObjAddr: 0x90E0, symBinAddr: 0x100009940, symSize: 0x30 }
  - { offsetInCU: 0xF1E6, offset: 0xF1E6, size: 0x8, addend: 0x0, symName: __ZNSt3__16vectorIbNS_9allocatorIbEEE16__destroy_vectorclB8ue170006Ev, symObjAddr: 0x9110, symBinAddr: 0x100009970, symSize: 0x190 }
  - { offsetInCU: 0xF20C, offset: 0xF20C, size: 0x8, addend: 0x0, symName: __ZNSt3__16vectorIbNS_9allocatorIbEEE16__destroy_vectorC2B8ue170006ERS3_, symObjAddr: 0x92A0, symBinAddr: 0x100009B00, symSize: 0x60 }
  - { offsetInCU: 0xF245, offset: 0xF245, size: 0x8, addend: 0x0, symName: __ZNSt3__116allocator_traitsINS_9allocatorImEEE10deallocateB8ue170006ERS2_Pmm, symObjAddr: 0x9300, symBinAddr: 0x100009B60, symSize: 0x30 }
  - { offsetInCU: 0xF287, offset: 0xF287, size: 0x8, addend: 0x0, symName: __ZNSt3__19allocatorImE10deallocateB8ue170006EPmm, symObjAddr: 0x9330, symBinAddr: 0x100009B90, symSize: 0x50 }
  - { offsetInCU: 0xF2C9, offset: 0xF2C9, size: 0x8, addend: 0x0, symName: __ZNSt16initializer_listIiEC2B8ue170006Ev, symObjAddr: 0x9380, symBinAddr: 0x100009BE0, symSize: 0x90 }
  - { offsetInCU: 0xF2F3, offset: 0xF2F3, size: 0x8, addend: 0x0, symName: __ZNSt3__16vectorIbNS_9allocatorIbEEE10__make_refB8ue170006Em, symObjAddr: 0x9410, symBinAddr: 0x100009C70, symSize: 0x1E0 }
  - { offsetInCU: 0xF32A, offset: 0xF32A, size: 0x8, addend: 0x0, symName: __ZNSt3__115__bit_referenceINS_6vectorIbNS_9allocatorIbEEEELb1EEC1B8ue170006EPmm, symObjAddr: 0x95F0, symBinAddr: 0x100009E50, symSize: 0x30 }
  - { offsetInCU: 0xF370, offset: 0xF370, size: 0x8, addend: 0x0, symName: __ZNSt3__115__bit_referenceINS_6vectorIbNS_9allocatorIbEEEELb1EEC2B8ue170006EPmm, symObjAddr: 0x9620, symBinAddr: 0x100009E80, symSize: 0xA0 }
  - { offsetInCU: 0xF3B6, offset: 0xF3B6, size: 0x8, addend: 0x0, symName: __ZNKSt3__16vectorINS_4listIiNS_9allocatorIiEEEENS2_IS4_EEE20__throw_out_of_rangeB8ue170006Ev, symObjAddr: 0x96C0, symBinAddr: 0x100009F20, symSize: 0x20 }
  - { offsetInCU: 0xF3DC, offset: 0xF3DC, size: 0x8, addend: 0x0, symName: __ZNSt12out_of_rangeC1B8ue170006EPKc, symObjAddr: 0x9750, symBinAddr: 0x100009FB0, symSize: 0x30 }
  - { offsetInCU: 0xF414, offset: 0xF414, size: 0x8, addend: 0x0, symName: __ZNSt12out_of_rangeC2B8ue170006EPKc, symObjAddr: 0x9780, symBinAddr: 0x100009FE0, symSize: 0x70 }
  - { offsetInCU: 0xF44C, offset: 0xF44C, size: 0x8, addend: 0x0, symName: __ZNSt3__14listIiNS_9allocatorIiEEED2Ev, symObjAddr: 0x97F0, symBinAddr: 0x10000A050, symSize: 0x20 }
  - { offsetInCU: 0xF479, offset: 0xF479, size: 0x8, addend: 0x0, symName: __ZNSt3__110__list_impIiNS_9allocatorIiEEED2Ev, symObjAddr: 0x9810, symBinAddr: 0x10000A070, symSize: 0x20 }
  - { offsetInCU: 0xF4A5, offset: 0xF4A5, size: 0x8, addend: 0x0, symName: __ZNSt3__110__list_impIiNS_9allocatorIiEEE5clearEv, symObjAddr: 0x9830, symBinAddr: 0x10000A090, symSize: 0x1B0 }
  - { offsetInCU: 0xF515, offset: 0xF515, size: 0x8, addend: 0x0, symName: __ZNKSt3__110__list_impIiNS_9allocatorIiEEE5emptyB8ue170006Ev, symObjAddr: 0x99E0, symBinAddr: 0x10000A240, symSize: 0x60 }
  - { offsetInCU: 0xF53B, offset: 0xF53B, size: 0x8, addend: 0x0, symName: __ZNSt3__110__list_impIiNS_9allocatorIiEEE12__node_allocB8ue170006Ev, symObjAddr: 0x9A40, symBinAddr: 0x10000A2A0, symSize: 0x20 }
  - { offsetInCU: 0xF561, offset: 0xF561, size: 0x8, addend: 0x0, symName: __ZNKSt3__110__list_impIiNS_9allocatorIiEEE13__end_as_linkB8ue170006Ev, symObjAddr: 0x9A60, symBinAddr: 0x10000A2C0, symSize: 0x30 }
  - { offsetInCU: 0xF587, offset: 0xF587, size: 0x8, addend: 0x0, symName: __ZNSt3__110__list_impIiNS_9allocatorIiEEE14__unlink_nodesEPNS_16__list_node_baseIiPvEES7_, symObjAddr: 0x9A90, symBinAddr: 0x10000A2F0, symSize: 0x170 }
  - { offsetInCU: 0xF5BC, offset: 0xF5BC, size: 0x8, addend: 0x0, symName: __ZNSt3__110__list_impIiNS_9allocatorIiEEE4__szB8ue170006Ev, symObjAddr: 0x9C00, symBinAddr: 0x10000A460, symSize: 0x20 }
  - { offsetInCU: 0xF5E2, offset: 0xF5E2, size: 0x8, addend: 0x0, symName: __ZNSt3__116__list_node_baseIiPvE9__as_nodeB8ue170006Ev, symObjAddr: 0x9C20, symBinAddr: 0x10000A480, symSize: 0x20 }
  - { offsetInCU: 0xF608, offset: 0xF608, size: 0x8, addend: 0x0, symName: __ZNSt3__116allocator_traitsINS_9allocatorINS_11__list_nodeIiPvEEEEE7destroyB8ue170006IivvEEvRS5_PT_, symObjAddr: 0x9C40, symBinAddr: 0x10000A4A0, symSize: 0x20 }
  - { offsetInCU: 0xF643, offset: 0xF643, size: 0x8, addend: 0x0, symName: __ZNSt3__116allocator_traitsINS_9allocatorINS_11__list_nodeIiPvEEEEE10deallocateB8ue170006ERS5_PS4_m, symObjAddr: 0x9C60, symBinAddr: 0x10000A4C0, symSize: 0x30 }
  - { offsetInCU: 0xF685, offset: 0xF685, size: 0x8, addend: 0x0, symName: __ZNKSt3__110__list_impIiNS_9allocatorIiEEE4__szB8ue170006Ev, symObjAddr: 0x9C90, symBinAddr: 0x10000A4F0, symSize: 0x20 }
  - { offsetInCU: 0xF6AB, offset: 0xF6AB, size: 0x8, addend: 0x0, symName: __ZNKSt3__117__compressed_pairImNS_9allocatorINS_11__list_nodeIiPvEEEEE5firstB8ue170006Ev, symObjAddr: 0x9CB0, symBinAddr: 0x10000A510, symSize: 0x20 }
  - { offsetInCU: 0xF6D1, offset: 0xF6D1, size: 0x8, addend: 0x0, symName: __ZNKSt3__122__compressed_pair_elemImLi0ELb0EE5__getB8ue170006Ev, symObjAddr: 0x9CD0, symBinAddr: 0x10000A530, symSize: 0x10 }
  - { offsetInCU: 0xF6F7, offset: 0xF6F7, size: 0x8, addend: 0x0, symName: __ZNSt3__117__compressed_pairImNS_9allocatorINS_11__list_nodeIiPvEEEEE6secondB8ue170006Ev, symObjAddr: 0x9CE0, symBinAddr: 0x10000A540, symSize: 0x20 }
  - { offsetInCU: 0xF71D, offset: 0xF71D, size: 0x8, addend: 0x0, symName: __ZNSt3__122__compressed_pair_elemINS_9allocatorINS_11__list_nodeIiPvEEEELi1ELb1EE5__getB8ue170006Ev, symObjAddr: 0x9D00, symBinAddr: 0x10000A560, symSize: 0x10 }
  - { offsetInCU: 0xF743, offset: 0xF743, size: 0x8, addend: 0x0, symName: __ZNSt3__117__compressed_pairImNS_9allocatorINS_11__list_nodeIiPvEEEEE5firstB8ue170006Ev, symObjAddr: 0x9D10, symBinAddr: 0x10000A570, symSize: 0x20 }
  - { offsetInCU: 0xF769, offset: 0xF769, size: 0x8, addend: 0x0, symName: __ZNSt3__19allocatorINS_11__list_nodeIiPvEEE10deallocateB8ue170006EPS3_m, symObjAddr: 0x9D60, symBinAddr: 0x10000A5C0, symSize: 0x50 }
  - { offsetInCU: 0xF7AB, offset: 0xF7AB, size: 0x8, addend: 0x0, symName: __ZNSt3__111char_traitsIcE6lengthB8ue170006EPKc, symObjAddr: 0xA500, symBinAddr: 0x10000AD60, symSize: 0x40 }
  - { offsetInCU: 0xF7EC, offset: 0xF7EC, size: 0x8, addend: 0x0, symName: __ZNKSt3__113basic_ostreamIcNS_11char_traitsIcEEE6sentrycvbB8ue170006Ev, symObjAddr: 0xA540, symBinAddr: 0x10000ADA0, symSize: 0x70 }
  - { offsetInCU: 0xF812, offset: 0xF812, size: 0x8, addend: 0x0, symName: __ZNSt3__119ostreambuf_iteratorIcNS_11char_traitsIcEEEC1B8ue170006ERNS_13basic_ostreamIcS2_EE, symObjAddr: 0xAC90, symBinAddr: 0x10000B4F0, symSize: 0x30 }
  - { offsetInCU: 0xF84A, offset: 0xF84A, size: 0x8, addend: 0x0, symName: __ZNKSt3__18ios_base5flagsB8ue170006Ev, symObjAddr: 0xACC0, symBinAddr: 0x10000B520, symSize: 0x70 }
  - { offsetInCU: 0xF872, offset: 0xF872, size: 0x8, addend: 0x0, symName: __ZNKSt3__19basic_iosIcNS_11char_traitsIcEEE4fillB8ue170006Ev, symObjAddr: 0xAD30, symBinAddr: 0x10000B590, symSize: 0x160 }
  - { offsetInCU: 0xF89A, offset: 0xF89A, size: 0x8, addend: 0x0, symName: __ZNKSt3__119ostreambuf_iteratorIcNS_11char_traitsIcEEE6failedB8ue170006Ev, symObjAddr: 0xAE90, symBinAddr: 0x10000B6F0, symSize: 0x50 }
  - { offsetInCU: 0xF8C0, offset: 0xF8C0, size: 0x8, addend: 0x0, symName: __ZNSt3__19basic_iosIcNS_11char_traitsIcEEE8setstateB8ue170006Ej, symObjAddr: 0xAEE0, symBinAddr: 0x10000B740, symSize: 0x30 }
  - { offsetInCU: 0xF8F5, offset: 0xF8F5, size: 0x8, addend: 0x0, symName: __ZNKSt3__18ios_base5widthB8ue170006Ev, symObjAddr: 0xAF10, symBinAddr: 0x10000B770, symSize: 0x50 }
  - { offsetInCU: 0xF91D, offset: 0xF91D, size: 0x8, addend: 0x0, symName: __ZNSt3__115basic_streambufIcNS_11char_traitsIcEEE5sputnB8ue170006EPKcl, symObjAddr: 0xAF60, symBinAddr: 0x10000B7C0, symSize: 0xA0 }
  - { offsetInCU: 0xF95F, offset: 0xF95F, size: 0x8, addend: 0x0, symName: __ZNSt3__112basic_stringIcNS_11char_traitsIcEENS_9allocatorIcEEEC1B8ue170006Emc, symObjAddr: 0xB000, symBinAddr: 0x10000B860, symSize: 0x30 }
  - { offsetInCU: 0xF9A7, offset: 0xF9A7, size: 0x8, addend: 0x0, symName: __ZNSt3__112basic_stringIcNS_11char_traitsIcEENS_9allocatorIcEEE4dataB8ue170006Ev, symObjAddr: 0xB030, symBinAddr: 0x10000B890, symSize: 0x30 }
  - { offsetInCU: 0xF9CD, offset: 0xF9CD, size: 0x8, addend: 0x0, symName: __ZNSt3__18ios_base5widthB8ue170006El, symObjAddr: 0xB060, symBinAddr: 0x10000B8C0, symSize: 0xA0 }
  - { offsetInCU: 0xFA13, offset: 0xFA13, size: 0x8, addend: 0x0, symName: __ZNSt3__112basic_stringIcNS_11char_traitsIcEENS_9allocatorIcEEEC2B8ue170006Emc, symObjAddr: 0xB100, symBinAddr: 0x10000B960, symSize: 0x170 }
  - { offsetInCU: 0xFA5E, offset: 0xFA5E, size: 0x8, addend: 0x0, symName: __ZNSt3__117__compressed_pairINS_12basic_stringIcNS_11char_traitsIcEENS_9allocatorIcEEE5__repES5_EC1B8ue170006INS_18__default_init_tagESA_EEOT_OT0_, symObjAddr: 0xB270, symBinAddr: 0x10000BAD0, symSize: 0x30 }
  - { offsetInCU: 0xFAB6, offset: 0xFAB6, size: 0x8, addend: 0x0, symName: __ZNSt3__117__compressed_pairINS_12basic_stringIcNS_11char_traitsIcEENS_9allocatorIcEEE5__repES5_EC2B8ue170006INS_18__default_init_tagESA_EEOT_OT0_, symObjAddr: 0xB2A0, symBinAddr: 0x10000BB00, symSize: 0x30 }
  - { offsetInCU: 0xFB0E, offset: 0xFB0E, size: 0x8, addend: 0x0, symName: __ZNSt3__122__compressed_pair_elemINS_12basic_stringIcNS_11char_traitsIcEENS_9allocatorIcEEE5__repELi0ELb0EEC2B8ue170006ENS_18__default_init_tagE, symObjAddr: 0xB2D0, symBinAddr: 0x10000BB30, symSize: 0x10 }
  - { offsetInCU: 0xFB43, offset: 0xFB43, size: 0x8, addend: 0x0, symName: __ZNSt3__122__compressed_pair_elemINS_9allocatorIcEELi1ELb1EEC2B8ue170006ENS_18__default_init_tagE, symObjAddr: 0xB2E0, symBinAddr: 0x10000BB40, symSize: 0x20 }
  - { offsetInCU: 0xFB78, offset: 0xFB78, size: 0x8, addend: 0x0, symName: __ZNSt3__19allocatorIcEC2B8ue170006Ev, symObjAddr: 0xB300, symBinAddr: 0x10000BB60, symSize: 0x20 }
  - { offsetInCU: 0xFBA2, offset: 0xFBA2, size: 0x8, addend: 0x0, symName: __ZNSt3__116__non_trivial_ifILb1ENS_9allocatorIcEEEC2B8ue170006Ev, symObjAddr: 0xB320, symBinAddr: 0x10000BB80, symSize: 0x10 }
  - { offsetInCU: 0xFBCC, offset: 0xFBCC, size: 0x8, addend: 0x0, symName: __ZNSt3__112basic_stringIcNS_11char_traitsIcEENS_9allocatorIcEEE13__get_pointerB8ue170006Ev, symObjAddr: 0xB340, symBinAddr: 0x10000BBA0, symSize: 0x50 }
  - { offsetInCU: 0xFBF2, offset: 0xFBF2, size: 0x8, addend: 0x0, symName: __ZNKSt3__112basic_stringIcNS_11char_traitsIcEENS_9allocatorIcEEE9__is_longB8ue170006Ev, symObjAddr: 0xB390, symBinAddr: 0x10000BBF0, symSize: 0x70 }
  - { offsetInCU: 0xFC18, offset: 0xFC18, size: 0x8, addend: 0x0, symName: __ZNSt3__112basic_stringIcNS_11char_traitsIcEENS_9allocatorIcEEE18__get_long_pointerB8ue170006Ev, symObjAddr: 0xB400, symBinAddr: 0x10000BC60, symSize: 0x50 }
  - { offsetInCU: 0xFC3E, offset: 0xFC3E, size: 0x8, addend: 0x0, symName: __ZNSt3__112basic_stringIcNS_11char_traitsIcEENS_9allocatorIcEEE19__get_short_pointerB8ue170006Ev, symObjAddr: 0xB450, symBinAddr: 0x10000BCB0, symSize: 0x30 }
  - { offsetInCU: 0xFC64, offset: 0xFC64, size: 0x8, addend: 0x0, symName: __ZNKSt3__117__compressed_pairINS_12basic_stringIcNS_11char_traitsIcEENS_9allocatorIcEEE5__repES5_E5firstB8ue170006Ev, symObjAddr: 0xB480, symBinAddr: 0x10000BCE0, symSize: 0x20 }
  - { offsetInCU: 0xFC8A, offset: 0xFC8A, size: 0x8, addend: 0x0, symName: __ZNKSt3__122__compressed_pair_elemINS_12basic_stringIcNS_11char_traitsIcEENS_9allocatorIcEEE5__repELi0ELb0EE5__getB8ue170006Ev, symObjAddr: 0xB4A0, symBinAddr: 0x10000BD00, symSize: 0x10 }
  - { offsetInCU: 0xFCB0, offset: 0xFCB0, size: 0x8, addend: 0x0, symName: __ZNSt3__117__compressed_pairINS_12basic_stringIcNS_11char_traitsIcEENS_9allocatorIcEEE5__repES5_E5firstB8ue170006Ev, symObjAddr: 0xB4B0, symBinAddr: 0x10000BD10, symSize: 0x20 }
  - { offsetInCU: 0xFCD6, offset: 0xFCD6, size: 0x8, addend: 0x0, symName: __ZNSt3__122__compressed_pair_elemINS_12basic_stringIcNS_11char_traitsIcEENS_9allocatorIcEEE5__repELi0ELb0EE5__getB8ue170006Ev, symObjAddr: 0xB4D0, symBinAddr: 0x10000BD30, symSize: 0x10 }
  - { offsetInCU: 0xFCFC, offset: 0xFCFC, size: 0x8, addend: 0x0, symName: __ZNSt3__114pointer_traitsIPcE10pointer_toB8ue170006ERc, symObjAddr: 0xB4E0, symBinAddr: 0x10000BD40, symSize: 0x10 }
  - { offsetInCU: 0xFD1F, offset: 0xFD1F, size: 0x8, addend: 0x0, symName: __ZNSt3__119ostreambuf_iteratorIcNS_11char_traitsIcEEEC2B8ue170006ERNS_13basic_ostreamIcS2_EE, symObjAddr: 0xB4F0, symBinAddr: 0x10000BD50, symSize: 0xF0 }
  - { offsetInCU: 0xFD57, offset: 0xFD57, size: 0x8, addend: 0x0, symName: __ZNKSt3__19basic_iosIcNS_11char_traitsIcEEE5rdbufB8ue170006Ev, symObjAddr: 0xB5E0, symBinAddr: 0x10000BE40, symSize: 0x20 }
  - { offsetInCU: 0xFD7F, offset: 0xFD7F, size: 0x8, addend: 0x0, symName: __ZNKSt3__18ios_base5rdbufB8ue170006Ev, symObjAddr: 0xB600, symBinAddr: 0x10000BE60, symSize: 0x50 }
  - { offsetInCU: 0xFDA5, offset: 0xFDA5, size: 0x8, addend: 0x0, symName: __ZNSt3__111char_traitsIcE11eq_int_typeB8ue170006Eii, symObjAddr: 0xB650, symBinAddr: 0x10000BEB0, symSize: 0x20 }
  - { offsetInCU: 0xFDD8, offset: 0xFDD8, size: 0x8, addend: 0x0, symName: __ZNSt3__111char_traitsIcE3eofB8ue170006Ev, symObjAddr: 0xB670, symBinAddr: 0x10000BED0, symSize: 0x10 }
  - { offsetInCU: 0xFDEC, offset: 0xFDEC, size: 0x8, addend: 0x0, symName: __ZNKSt3__19basic_iosIcNS_11char_traitsIcEEE5widenB8ue170006Ec, symObjAddr: 0xB680, symBinAddr: 0x10000BEE0, symSize: 0x200 }
  - { offsetInCU: 0xFE5C, offset: 0xFE5C, size: 0x8, addend: 0x0, symName: __ZNKSt3__15ctypeIcE5widenB8ue170006Ec, symObjAddr: 0xB8B0, symBinAddr: 0x10000C110, symSize: 0xA0 }
  - { offsetInCU: 0xFE91, offset: 0xFE91, size: 0x8, addend: 0x0, symName: __ZNSt3__18ios_base8setstateB8ue170006Ej, symObjAddr: 0xB950, symBinAddr: 0x10000C1B0, symSize: 0x80 }
  - { offsetInCU: 0xFECD, offset: 0xFECD, size: 0x8, addend: 0x0, symName: __ZNSt3__14listIiNS_9allocatorIiEEE6assignIPKiEEvT_S7_PNS_9enable_ifIXsr29__has_input_iterator_categoryIS7_EE5valueEvE4typeE, symObjAddr: 0xB9F0, symBinAddr: 0x10000C250, symSize: 0x30 }
  - { offsetInCU: 0xFF28, offset: 0xFF28, size: 0x8, addend: 0x0, symName: __ZNKSt16initializer_listIiE5beginB8ue170006Ev, symObjAddr: 0xBA20, symBinAddr: 0x10000C280, symSize: 0x50 }
  - { offsetInCU: 0xFF4E, offset: 0xFF4E, size: 0x8, addend: 0x0, symName: __ZNKSt16initializer_listIiE3endB8ue170006Ev, symObjAddr: 0xBA70, symBinAddr: 0x10000C2D0, symSize: 0x90 }
  - { offsetInCU: 0xFF74, offset: 0xFF74, size: 0x8, addend: 0x0, symName: __ZNSt3__14listIiNS_9allocatorIiEEE22__assign_with_sentinelB8ue170006IPKiS6_EEvT_T0_, symObjAddr: 0xBB00, symBinAddr: 0x10000C360, symSize: 0x5E0 }
  - { offsetInCU: 0xFFF5, offset: 0xFFF5, size: 0x8, addend: 0x0, symName: __ZNSt3__14listIiNS_9allocatorIiEEE22__insert_with_sentinelB8ue170006IPKiS6_EENS_15__list_iteratorIiPvEENS_21__list_const_iteratorIiS8_EET_T0_, symObjAddr: 0xC170, symBinAddr: 0x10000C9D0, symSize: 0xAC0 }
  - { offsetInCU: 0x100D9, offset: 0x100D9, size: 0x8, addend: 0x0, symName: __ZNSt3__121__list_const_iteratorIiPvEC1B8ue170006ERKNS_15__list_iteratorIiS1_EE, symObjAddr: 0xCC30, symBinAddr: 0x10000D490, symSize: 0x30 }
  - { offsetInCU: 0x10112, offset: 0x10112, size: 0x8, addend: 0x0, symName: __ZNSt3__14listIiNS_9allocatorIiEEE5eraseENS_21__list_const_iteratorIiPvEES6_, symObjAddr: 0xCC60, symBinAddr: 0x10000D4C0, symSize: 0x430 }
  - { offsetInCU: 0x101AD, offset: 0x101AD, size: 0x8, addend: 0x0, symName: __ZNSt3__115__list_iteratorIiPvEC1B8ue170006EPNS_16__list_node_baseIiS1_EE, symObjAddr: 0xD090, symBinAddr: 0x10000D8F0, symSize: 0x30 }
  - { offsetInCU: 0x101E6, offset: 0x101E6, size: 0x8, addend: 0x0, symName: __ZNSt3__14listIiNS_9allocatorIiEEE15__allocate_nodeB8ue170006ERNS1_INS_11__list_nodeIiPvEEEE, symObjAddr: 0xD0C0, symBinAddr: 0x10000D920, symSize: 0x1E0 }
  - { offsetInCU: 0x10232, offset: 0x10232, size: 0x8, addend: 0x0, symName: __ZNSt3__116allocator_traitsINS_9allocatorINS_11__list_nodeIiPvEEEEE9constructB8ue170006IiJRKiEvvEEvRS5_PT_DpOT0_, symObjAddr: 0xD2A0, symBinAddr: 0x10000DB00, symSize: 0x30 }
  - { offsetInCU: 0x10287, offset: 0x10287, size: 0x8, addend: 0x0, symName: __ZNKSt3__110unique_ptrINS_11__list_nodeIiPvEENS_22__allocator_destructorINS_9allocatorIS3_EEEEEptB8ue170006Ev, symObjAddr: 0xD2D0, symBinAddr: 0x10000DB30, symSize: 0x50 }
  - { offsetInCU: 0x102AD, offset: 0x102AD, size: 0x8, addend: 0x0, symName: __ZNKSt3__110unique_ptrINS_11__list_nodeIiPvEENS_22__allocator_destructorINS_9allocatorIS3_EEEEE3getB8ue170006Ev, symObjAddr: 0xD320, symBinAddr: 0x10000DB80, symSize: 0x50 }
  - { offsetInCU: 0x102D3, offset: 0x102D3, size: 0x8, addend: 0x0, symName: __ZNSt3__111__list_nodeIiPvE9__as_linkB8ue170006Ev, symObjAddr: 0xD370, symBinAddr: 0x10000DBD0, symSize: 0x20 }
  - { offsetInCU: 0x102F9, offset: 0x102F9, size: 0x8, addend: 0x0, symName: __ZNSt3__110unique_ptrINS_11__list_nodeIiPvEENS_22__allocator_destructorINS_9allocatorIS3_EEEEE7releaseB8ue170006Ev, symObjAddr: 0xD390, symBinAddr: 0x10000DBF0, symSize: 0xA0 }
  - { offsetInCU: 0x1032E, offset: 0x1032E, size: 0x8, addend: 0x0, symName: __ZNSt3__110unique_ptrINS_11__list_nodeIiPvEENS_22__allocator_destructorINS_9allocatorIS3_EEEEE5resetB8ue170006EPS3_, symObjAddr: 0xD430, symBinAddr: 0x10000DC90, symSize: 0xC0 }
  - { offsetInCU: 0x10372, offset: 0x10372, size: 0x8, addend: 0x0, symName: __ZNSt3__116allocator_traitsINS_9allocatorINS_11__list_nodeIiPvEEEEE8allocateB8ue170006ERS5_m, symObjAddr: 0xD4F0, symBinAddr: 0x10000DD50, symSize: 0x30 }
  - { offsetInCU: 0x103A5, offset: 0x103A5, size: 0x8, addend: 0x0, symName: __ZNSt3__14listIiNS_9allocatorIiEEE12__link_nodesEPNS_16__list_node_baseIiPvEES7_S7_, symObjAddr: 0xD520, symBinAddr: 0x10000DD80, symSize: 0x190 }
  - { offsetInCU: 0x103E9, offset: 0x103E9, size: 0x8, addend: 0x0, symName: __ZNSt3__110unique_ptrINS_11__list_nodeIiPvEENS_22__allocator_destructorINS_9allocatorIS3_EEEEED1B8ue170006Ev, symObjAddr: 0xD6B0, symBinAddr: 0x10000DF10, symSize: 0x20 }
  - { offsetInCU: 0x10413, offset: 0x10413, size: 0x8, addend: 0x0, symName: __ZNSt3__115__list_iteratorIiPvEC2B8ue170006EPNS_16__list_node_baseIiS1_EE, symObjAddr: 0xD6D0, symBinAddr: 0x10000DF30, symSize: 0x60 }
  - { offsetInCU: 0x1044C, offset: 0x1044C, size: 0x8, addend: 0x0, symName: __ZNSt3__122__allocator_destructorINS_9allocatorINS_11__list_nodeIiPvEEEEEC1B8ue170006ERS5_m, symObjAddr: 0xD730, symBinAddr: 0x10000DF90, symSize: 0x30 }
  - { offsetInCU: 0x10497, offset: 0x10497, size: 0x8, addend: 0x0, symName: __ZNSt3__110unique_ptrINS_11__list_nodeIiPvEENS_22__allocator_destructorINS_9allocatorIS3_EEEEEC1B8ue170006ILb1EvEEPS3_NS_16__dependent_typeINS_27__unique_ptr_deleter_sfinaeIS7_EEXT_EE20__good_rval_ref_typeE, symObjAddr: 0xD760, symBinAddr: 0x10000DFC0, symSize: 0x30 }
  - { offsetInCU: 0x104E8, offset: 0x104E8, size: 0x8, addend: 0x0, symName: __ZNSt3__122__allocator_destructorINS_9allocatorINS_11__list_nodeIiPvEEEEEC2B8ue170006ERS5_m, symObjAddr: 0xD790, symBinAddr: 0x10000DFF0, symSize: 0xA0 }
  - { offsetInCU: 0x1052E, offset: 0x1052E, size: 0x8, addend: 0x0, symName: __ZNSt3__110unique_ptrINS_11__list_nodeIiPvEENS_22__allocator_destructorINS_9allocatorIS3_EEEEEC2B8ue170006ILb1EvEEPS3_NS_16__dependent_typeINS_27__unique_ptr_deleter_sfinaeIS7_EEXT_EE20__good_rval_ref_typeE, symObjAddr: 0xD830, symBinAddr: 0x10000E090, symSize: 0x1A0 }
  - { offsetInCU: 0x10585, offset: 0x10585, size: 0x8, addend: 0x0, symName: __ZNSt3__117__compressed_pairIPNS_11__list_nodeIiPvEENS_22__allocator_destructorINS_9allocatorIS3_EEEEEC1B8ue170006IRS4_S8_EEOT_OT0_, symObjAddr: 0xD9D0, symBinAddr: 0x10000E230, symSize: 0x30 }
  - { offsetInCU: 0x105DD, offset: 0x105DD, size: 0x8, addend: 0x0, symName: __ZNSt3__117__compressed_pairIPNS_11__list_nodeIiPvEENS_22__allocator_destructorINS_9allocatorIS3_EEEEEC2B8ue170006IRS4_S8_EEOT_OT0_, symObjAddr: 0xDA00, symBinAddr: 0x10000E260, symSize: 0x40 }
  - { offsetInCU: 0x10635, offset: 0x10635, size: 0x8, addend: 0x0, symName: __ZNSt3__122__compressed_pair_elemIPNS_11__list_nodeIiPvEELi0ELb0EEC2B8ue170006IRS4_vEEOT_, symObjAddr: 0xDA40, symBinAddr: 0x10000E2A0, symSize: 0x90 }
  - { offsetInCU: 0x10677, offset: 0x10677, size: 0x8, addend: 0x0, symName: __ZNSt3__122__compressed_pair_elemINS_22__allocator_destructorINS_9allocatorINS_11__list_nodeIiPvEEEEEELi1ELb0EEC2B8ue170006IS7_vEEOT_, symObjAddr: 0xDAD0, symBinAddr: 0x10000E330, symSize: 0x30 }
  - { offsetInCU: 0x106BE, offset: 0x106BE, size: 0x8, addend: 0x0, symName: __ZNKSt3__117__compressed_pairIPNS_11__list_nodeIiPvEENS_22__allocator_destructorINS_9allocatorIS3_EEEEE5firstB8ue170006Ev, symObjAddr: 0xDBD0, symBinAddr: 0x10000E430, symSize: 0x20 }
  - { offsetInCU: 0x106E4, offset: 0x106E4, size: 0x8, addend: 0x0, symName: __ZNKSt3__122__compressed_pair_elemIPNS_11__list_nodeIiPvEELi0ELb0EE5__getB8ue170006Ev, symObjAddr: 0xDBF0, symBinAddr: 0x10000E450, symSize: 0x10 }
  - { offsetInCU: 0x1070A, offset: 0x1070A, size: 0x8, addend: 0x0, symName: __ZNSt3__117__compressed_pairIPNS_11__list_nodeIiPvEENS_22__allocator_destructorINS_9allocatorIS3_EEEEE5firstB8ue170006Ev, symObjAddr: 0xDC00, symBinAddr: 0x10000E460, symSize: 0x20 }
  - { offsetInCU: 0x10730, offset: 0x10730, size: 0x8, addend: 0x0, symName: __ZNSt3__122__compressed_pair_elemIPNS_11__list_nodeIiPvEELi0ELb0EE5__getB8ue170006Ev, symObjAddr: 0xDC20, symBinAddr: 0x10000E480, symSize: 0x10 }
  - { offsetInCU: 0x10756, offset: 0x10756, size: 0x8, addend: 0x0, symName: __ZNSt3__117__compressed_pairIPNS_11__list_nodeIiPvEENS_22__allocator_destructorINS_9allocatorIS3_EEEEE6secondB8ue170006Ev, symObjAddr: 0xDC30, symBinAddr: 0x10000E490, symSize: 0x20 }
  - { offsetInCU: 0x1077C, offset: 0x1077C, size: 0x8, addend: 0x0, symName: __ZNSt3__122__allocator_destructorINS_9allocatorINS_11__list_nodeIiPvEEEEEclB8ue170006EPS4_, symObjAddr: 0xDC50, symBinAddr: 0x10000E4B0, symSize: 0xA0 }
  - { offsetInCU: 0x107B0, offset: 0x107B0, size: 0x8, addend: 0x0, symName: __ZNSt3__122__compressed_pair_elemINS_22__allocator_destructorINS_9allocatorINS_11__list_nodeIiPvEEEEEELi1ELb0EE5__getB8ue170006Ev, symObjAddr: 0xDCF0, symBinAddr: 0x10000E550, symSize: 0x10 }
  - { offsetInCU: 0x107D6, offset: 0x107D6, size: 0x8, addend: 0x0, symName: __ZNSt3__19allocatorINS_11__list_nodeIiPvEEE8allocateB8ue170006Em, symObjAddr: 0xDD00, symBinAddr: 0x10000E560, symSize: 0x50 }
  - { offsetInCU: 0x10814, offset: 0x10814, size: 0x8, addend: 0x0, symName: __ZNSt3__116allocator_traitsINS_9allocatorINS_11__list_nodeIiPvEEEEE8max_sizeB8ue170006IS5_vvEEmRKS5_, symObjAddr: 0xDD50, symBinAddr: 0x10000E5B0, symSize: 0x30 }
  - { offsetInCU: 0x10840, offset: 0x10840, size: 0x8, addend: 0x0, symName: __ZNSt3__110unique_ptrINS_11__list_nodeIiPvEENS_22__allocator_destructorINS_9allocatorIS3_EEEEED2B8ue170006Ev, symObjAddr: 0xDD80, symBinAddr: 0x10000E5E0, symSize: 0x20 }
  - { offsetInCU: 0x1086A, offset: 0x1086A, size: 0x8, addend: 0x0, symName: __ZNSt3__121__list_const_iteratorIiPvEC2B8ue170006ERKNS_15__list_iteratorIiS1_EE, symObjAddr: 0xDDA0, symBinAddr: 0x10000E600, symSize: 0x90 }
  - { offsetInCU: 0x108A3, offset: 0x108A3, size: 0x8, addend: 0x0, symName: __ZNSt3__121__list_const_iteratorIiPvEppB8ue170006Ev, symObjAddr: 0xDE60, symBinAddr: 0x10000E6C0, symSize: 0xC0 }
  - { offsetInCU: 0x108C9, offset: 0x108C9, size: 0x8, addend: 0x0, symName: __ZNSt3__110__list_impIiNS_9allocatorIiEEE5beginB8ue170006Ev, symObjAddr: 0xDFB0, symBinAddr: 0x10000E810, symSize: 0x1B0 }
  - { offsetInCU: 0x108F0, offset: 0x108F0, size: 0x8, addend: 0x0, symName: __ZNSt3__110__list_impIiNS_9allocatorIiEEE3endB8ue170006Ev, symObjAddr: 0xE160, symBinAddr: 0x10000E9C0, symSize: 0x180 }
  - { offsetInCU: 0x10917, offset: 0x10917, size: 0x8, addend: 0x0, symName: __ZNSt3__14listIiNS_9allocatorIiEEEC2ESt16initializer_listIiE, symObjAddr: 0xE2E0, symBinAddr: 0x10000EB40, symSize: 0x2B0 }
  - { offsetInCU: 0x10985, offset: 0x10985, size: 0x8, addend: 0x0, symName: __ZNSt3__14listIiNS_9allocatorIiEEE20__link_nodes_at_backEPNS_16__list_node_baseIiPvEES7_, symObjAddr: 0xE590, symBinAddr: 0x10000EDF0, symSize: 0x190 }
...
