---
triple:          'x86_64-apple-darwin'
binary-path:     '/Users/benjamin/Coding/ProjectEuler/Project Euler/Problem26/main'
relocations:
  - { offsetInCU: 0x5806, offset: 0x5806, size: 0x8, addend: 0x0, symName: __ZNSt3__124__put_character_sequenceB7v160006IcNS_11char_traitsIcEEEERNS_13basic_ostreamIT_T0_EES7_PKS4_m, symObjAddr: 0x3320, symBinAddr: 0x100007170, symSize: 0x1F0 }
  - { offsetInCU: 0x8731, offset: 0x8731, size: 0x8, addend: 0x0, symName: __ZNSt3__1lsB7v160006INS_11char_traitsIcEEEERNS_13basic_ostreamIcT_EES6_PKc, symObjAddr: 0x400, symBinAddr: 0x100004250, symSize: 0x40 }
  - { offsetInCU: 0x8777, offset: 0x8777, size: 0x8, addend: 0x0, symName: __ZNSt3__1lsB7v160006IcNS_11char_traitsIcEEEERNS_13basic_ostreamIT_T0_EES7_RKNS_8__iom_t6E, symObjAddr: 0x440, symBinAddr: 0x100004290, symSize: 0x40 }
  - { offsetInCU: 0x87C6, offset: 0x87C6, size: 0x8, addend: 0x0, symName: __ZNSt3__14setwB7v160006Ei, symObjAddr: 0x480, symBinAddr: 0x1000042D0, symSize: 0x20 }
  - { offsetInCU: 0x87F4, offset: 0x87F4, size: 0x8, addend: 0x0, symName: __ZNSt3__14endlB7v160006IcNS_11char_traitsIcEEEERNS_13basic_ostreamIT_T0_EES7_, symObjAddr: 0x4C0, symBinAddr: 0x100004310, symSize: 0x50 }
  - { offsetInCU: 0x8834, offset: 0x8834, size: 0x8, addend: 0x0, symName: __ZNSt3__119__debug_db_insert_cB7v160006INS_13unordered_mapIiiNS_4hashIiEENS_8equal_toIiEENS_9allocatorINS_4pairIKiiEEEEEEEEvPT_, symObjAddr: 0x5F0, symBinAddr: 0x100004440, symSize: 0x10 }
  - { offsetInCU: 0x8865, offset: 0x8865, size: 0x8, addend: 0x0, symName: __ZNSt3__118__debug_db_erase_cB7v160006INS_12__hash_tableINS_17__hash_value_typeIiiEENS_22__unordered_map_hasherIiS3_NS_4hashIiEENS_8equal_toIiEELb1EEENS_21__unordered_map_equalIiS3_S8_S6_Lb1EEENS_9allocatorIS3_EEEEEEvPT_, symObjAddr: 0xC80, symBinAddr: 0x100004AD0, symSize: 0x10 }
  - { offsetInCU: 0x88C9, offset: 0x88C9, size: 0x8, addend: 0x0, symName: __ZNSt3__110destroy_atB7v160006INS_4pairIKiiEELi0EEEvPT_, symObjAddr: 0xDA0, symBinAddr: 0x100004BF0, symSize: 0x20 }
  - { offsetInCU: 0x8900, offset: 0x8900, size: 0x8, addend: 0x0, symName: __ZNSt3__112__destroy_atB7v160006INS_4pairIKiiEELi0EEEvPT_, symObjAddr: 0xDC0, symBinAddr: 0x100004C10, symSize: 0x10 }
  - { offsetInCU: 0x8937, offset: 0x8937, size: 0x8, addend: 0x0, symName: __ZNSt3__17launderB7v160006INS_4pairIKiiEEEEPT_S5_, symObjAddr: 0xDF0, symBinAddr: 0x100004C40, symSize: 0x20 }
  - { offsetInCU: 0x896E, offset: 0x896E, size: 0x8, addend: 0x0, symName: __ZNSt3__19__launderB7v160006INS_4pairIKiiEEEEPT_S5_, symObjAddr: 0xE10, symBinAddr: 0x100004C60, symSize: 0x10 }
  - { offsetInCU: 0x89A5, offset: 0x89A5, size: 0x8, addend: 0x0, symName: __ZNSt3__119__libcpp_deallocateB7v160006EPvmm, symObjAddr: 0xE70, symBinAddr: 0x100004CC0, symSize: 0x60 }
  - { offsetInCU: 0x8A0A, offset: 0x8A0A, size: 0x8, addend: 0x0, symName: __ZNSt3__124__is_overaligned_for_newB7v160006Em, symObjAddr: 0xED0, symBinAddr: 0x100004D20, symSize: 0x20 }
  - { offsetInCU: 0x8A38, offset: 0x8A38, size: 0x8, addend: 0x0, symName: __ZNSt3__127__do_deallocate_handle_sizeB7v160006IJSt11align_val_tEEEvPvmDpT_, symObjAddr: 0xEF0, symBinAddr: 0x100004D40, symSize: 0x30 }
  - { offsetInCU: 0x8A8B, offset: 0x8A8B, size: 0x8, addend: 0x0, symName: __ZNSt3__127__do_deallocate_handle_sizeB7v160006IJEEEvPvmDpT_, symObjAddr: 0xF20, symBinAddr: 0x100004D70, symSize: 0x20 }
  - { offsetInCU: 0x8AC9, offset: 0x8AC9, size: 0x8, addend: 0x0, symName: __ZNSt3__124__libcpp_operator_deleteB7v160006IJPvSt11align_val_tEEEvDpT_, symObjAddr: 0xF40, symBinAddr: 0x100004D90, symSize: 0x30 }
  - { offsetInCU: 0x8B12, offset: 0x8B12, size: 0x8, addend: 0x0, symName: __ZNSt3__124__libcpp_operator_deleteB7v160006IJPvEEEvDpT_, symObjAddr: 0xF70, symBinAddr: 0x100004DC0, symSize: 0x20 }
  - { offsetInCU: 0x8B47, offset: 0x8B47, size: 0x8, addend: 0x0, symName: __ZNSt3__116__constrain_hashB7v160006Emm, symObjAddr: 0x1920, symBinAddr: 0x100005770, symSize: 0x80 }
  - { offsetInCU: 0x8B81, offset: 0x8B81, size: 0x8, addend: 0x0, symName: __ZNSt3__13maxB7v160006ImEERKT_S3_S3_, symObjAddr: 0x1C00, symBinAddr: 0x100005A50, symSize: 0x30 }
  - { offsetInCU: 0x8BC4, offset: 0x8BC4, size: 0x8, addend: 0x0, symName: __ZNSt3__116__is_hash_power2B7v160006Em, symObjAddr: 0x1C30, symBinAddr: 0x100005A80, symSize: 0x40 }
  - { offsetInCU: 0x8BF0, offset: 0x8BF0, size: 0x8, addend: 0x0, symName: __ZNSt3__17launderB7v160006IKNS_4pairIKiiEEEEPT_S6_, symObjAddr: 0x1F50, symBinAddr: 0x100005DA0, symSize: 0x20 }
  - { offsetInCU: 0x8C27, offset: 0x8C27, size: 0x8, addend: 0x0, symName: __ZNSt3__19__launderB7v160006IKNS_4pairIKiiEEEEPT_S6_, symObjAddr: 0x1F70, symBinAddr: 0x100005DC0, symSize: 0x10 }
  - { offsetInCU: 0x8C7C, offset: 0x8C7C, size: 0x8, addend: 0x0, symName: __ZNSt3__117__libcpp_allocateB7v160006Emm, symObjAddr: 0x2130, symBinAddr: 0x100005F80, symSize: 0x60 }
  - { offsetInCU: 0x8CD6, offset: 0x8CD6, size: 0x8, addend: 0x0, symName: __ZNSt3__121__libcpp_operator_newB7v160006IJmSt11align_val_tEEEPvDpT_, symObjAddr: 0x21B0, symBinAddr: 0x100006000, symSize: 0x30 }
  - { offsetInCU: 0x8D23, offset: 0x8D23, size: 0x8, addend: 0x0, symName: __ZNSt3__121__libcpp_operator_newB7v160006IJmEEEPvDpT_, symObjAddr: 0x21E0, symBinAddr: 0x100006030, symSize: 0x20 }
  - { offsetInCU: 0x8D81, offset: 0x8D81, size: 0x8, addend: 0x0, symName: __ZNSt3__112construct_atB7v160006INS_4pairIKiiEEJS3_EPS3_EEPT_S6_DpOT0_, symObjAddr: 0x2330, symBinAddr: 0x100006180, symSize: 0x30 }
  - { offsetInCU: 0x8DF1, offset: 0x8DF1, size: 0x8, addend: 0x0, symName: __ZNSt3__116__next_hash_pow2B7v160006Em, symObjAddr: 0x2870, symBinAddr: 0x1000066C0, symSize: 0x60 }
  - { offsetInCU: 0x8E1D, offset: 0x8E1D, size: 0x8, addend: 0x0, symName: __ZNSt3__125__debug_db_invalidate_allB7v160006INS_12__hash_tableINS_17__hash_value_typeIiiEENS_22__unordered_map_hasherIiS3_NS_4hashIiEENS_8equal_toIiEELb1EEENS_21__unordered_map_equalIiS3_S8_S6_Lb1EEENS_9allocatorIS3_EEEEEEvPT_, symObjAddr: 0x28D0, symBinAddr: 0x100006720, symSize: 0x10 }
  - { offsetInCU: 0x8E6A, offset: 0x8E6A, size: 0x8, addend: 0x0, symName: __ZNSt3__112__libcpp_clzB7v160006Em, symObjAddr: 0x2A10, symBinAddr: 0x100006860, symSize: 0x20 }
  - { offsetInCU: 0x8E96, offset: 0x8E96, size: 0x8, addend: 0x0, symName: __ZNSt3__13maxB7v160006ImNS_6__lessImmEEEERKT_S5_S5_T0_, symObjAddr: 0x2A30, symBinAddr: 0x100006880, symSize: 0x50 }
  - { offsetInCU: 0x8F2B, offset: 0x8F2B, size: 0x8, addend: 0x0, symName: __ZNSt3__1neB7v160006ERKNS_25__hash_map_const_iteratorINS_21__hash_const_iteratorIPNS_11__hash_nodeINS_17__hash_value_typeIiiEEPvEEEEEESB_, symObjAddr: 0x2D20, symBinAddr: 0x100006B70, symSize: 0x30 }
  - { offsetInCU: 0x8F68, offset: 0x8F68, size: 0x8, addend: 0x0, symName: __ZNSt3__1neB7v160006ERKNS_21__hash_const_iteratorIPNS_11__hash_nodeINS_17__hash_value_typeIiiEEPvEEEES9_, symObjAddr: 0x2DC0, symBinAddr: 0x100006C10, symSize: 0x30 }
  - { offsetInCU: 0x8FA5, offset: 0x8FA5, size: 0x8, addend: 0x0, symName: __ZNSt3__1eqB7v160006ERKNS_21__hash_const_iteratorIPNS_11__hash_nodeINS_17__hash_value_typeIiiEEPvEEEES9_, symObjAddr: 0x2DF0, symBinAddr: 0x100006C40, symSize: 0x30 }
  - { offsetInCU: 0x9048, offset: 0x9048, size: 0x8, addend: 0x0, symName: __ZNSt3__116__pad_and_outputB7v160006IcNS_11char_traitsIcEEEENS_19ostreambuf_iteratorIT_T0_EES6_PKS4_S8_S8_RNS_8ios_baseES4_, symObjAddr: 0x3560, symBinAddr: 0x1000073B0, symSize: 0x220 }
  - { offsetInCU: 0x9118, offset: 0x9118, size: 0x8, addend: 0x0, symName: __ZNSt3__119__debug_db_insert_cB7v160006INS_12basic_stringIcNS_11char_traitsIcEENS_9allocatorIcEEEEEEvPT_, symObjAddr: 0x39F0, symBinAddr: 0x100007840, symSize: 0x10 }
  - { offsetInCU: 0x9149, offset: 0x9149, size: 0x8, addend: 0x0, symName: __ZNSt3__112__to_addressB7v160006IcEEPT_S2_, symObjAddr: 0x3A90, symBinAddr: 0x1000078E0, symSize: 0x10 }
  - { offsetInCU: 0x917E, offset: 0x917E, size: 0x8, addend: 0x0, symName: __ZNSt3__19use_facetB7v160006INS_5ctypeIcEEEERKT_RKNS_6localeE, symObjAddr: 0x3D20, symBinAddr: 0x100007B70, symSize: 0x30 }
  - { offsetInCU: 0x964D, offset: 0x964D, size: 0x8, addend: 0x0, symName: __ZNSt3__118__constexpr_strlenB7v160006EPKc, symObjAddr: 0x3DB0, symBinAddr: 0x100007C00, symSize: 0x1B }
  - { offsetInCU: 0x97B5, offset: 0x97B5, size: 0x8, addend: 0x0, symName: __ZSt28__throw_bad_array_new_lengthB7v160006v, symObjAddr: 0x20F0, symBinAddr: 0x100005F40, symSize: 0x40 }
  - { offsetInCU: 0xC270, offset: 0xC270, size: 0x8, addend: 0x0, symName: __Z5solvei, symObjAddr: 0x0, symBinAddr: 0x100003E50, symSize: 0x1E0 }
  - { offsetInCU: 0xC45F, offset: 0xC45F, size: 0x8, addend: 0x0, symName: __ZNSt3__113unordered_mapIiiNS_4hashIiEENS_8equal_toIiEENS_9allocatorINS_4pairIKiiEEEEEC1B7v160006Ev, symObjAddr: 0x1E0, symBinAddr: 0x100004030, symSize: 0x20 }
  - { offsetInCU: 0xC489, offset: 0xC489, size: 0x8, addend: 0x0, symName: __ZNSt3__113unordered_mapIiiNS_4hashIiEENS_8equal_toIiEENS_9allocatorINS_4pairIKiiEEEEE6insertB7v160006EOS8_, symObjAddr: 0x200, symBinAddr: 0x100004050, symSize: 0x40 }
  - { offsetInCU: 0xC4C3, offset: 0xC4C3, size: 0x8, addend: 0x0, symName: __ZNSt3__14pairIKiiEC1B7v160006IRiS4_LPv0EEEOT_OT0_, symObjAddr: 0x240, symBinAddr: 0x100004090, symSize: 0x30 }
  - { offsetInCU: 0xC521, offset: 0xC521, size: 0x8, addend: 0x0, symName: __ZNKSt3__113unordered_mapIiiNS_4hashIiEENS_8equal_toIiEENS_9allocatorINS_4pairIKiiEEEEE8containsB7v160006ERS7_, symObjAddr: 0x270, symBinAddr: 0x1000040C0, symSize: 0x50 }
  - { offsetInCU: 0xC556, offset: 0xC556, size: 0x8, addend: 0x0, symName: __ZNSt3__113unordered_mapIiiNS_4hashIiEENS_8equal_toIiEENS_9allocatorINS_4pairIKiiEEEEE4findB7v160006ERS7_, symObjAddr: 0x2C0, symBinAddr: 0x100004110, symSize: 0x40 }
  - { offsetInCU: 0xC58B, offset: 0xC58B, size: 0x8, addend: 0x0, symName: __ZNKSt3__119__hash_map_iteratorINS_15__hash_iteratorIPNS_11__hash_nodeINS_17__hash_value_typeIiiEEPvEEEEEptB7v160006Ev, symObjAddr: 0x300, symBinAddr: 0x100004150, symSize: 0x30 }
  - { offsetInCU: 0xC5B1, offset: 0xC5B1, size: 0x8, addend: 0x0, symName: __ZNSt3__113unordered_mapIiiNS_4hashIiEENS_8equal_toIiEENS_9allocatorINS_4pairIKiiEEEEED1B7v160006Ev, symObjAddr: 0x330, symBinAddr: 0x100004180, symSize: 0x20 }
  - { offsetInCU: 0xC5DB, offset: 0xC5DB, size: 0x8, addend: 0x0, symName: _main, symObjAddr: 0x350, symBinAddr: 0x1000041A0, symSize: 0xB0 }
  - { offsetInCU: 0xC613, offset: 0xC613, size: 0x8, addend: 0x0, symName: __ZNSt3__113basic_ostreamIcNS_11char_traitsIcEEElsB7v160006EPFRS3_S4_E, symObjAddr: 0x4A0, symBinAddr: 0x1000042F0, symSize: 0x20 }
  - { offsetInCU: 0xC647, offset: 0xC647, size: 0x8, addend: 0x0, symName: __ZNSt3__14pairIKiiEC2B7v160006IRiS4_LPv0EEEOT_OT0_, symObjAddr: 0x510, symBinAddr: 0x100004360, symSize: 0x30 }
  - { offsetInCU: 0xC6A5, offset: 0xC6A5, size: 0x8, addend: 0x0, symName: __ZNSt3__18__iom_t6C1B7v160006Ei, symObjAddr: 0x540, symBinAddr: 0x100004390, symSize: 0x30 }
  - { offsetInCU: 0xC6DD, offset: 0xC6DD, size: 0x8, addend: 0x0, symName: __ZNSt3__18__iom_t6C2B7v160006Ei, symObjAddr: 0x570, symBinAddr: 0x1000043C0, symSize: 0x20 }
  - { offsetInCU: 0xC715, offset: 0xC715, size: 0x8, addend: 0x0, symName: __ZNSt3__113unordered_mapIiiNS_4hashIiEENS_8equal_toIiEENS_9allocatorINS_4pairIKiiEEEEEC2B7v160006Ev, symObjAddr: 0x590, symBinAddr: 0x1000043E0, symSize: 0x40 }
  - { offsetInCU: 0xC73F, offset: 0xC73F, size: 0x8, addend: 0x0, symName: __ZNSt3__112__hash_tableINS_17__hash_value_typeIiiEENS_22__unordered_map_hasherIiS2_NS_4hashIiEENS_8equal_toIiEELb1EEENS_21__unordered_map_equalIiS2_S7_S5_Lb1EEENS_9allocatorIS2_EEEC1Ev, symObjAddr: 0x5D0, symBinAddr: 0x100004420, symSize: 0x20 }
  - { offsetInCU: 0xC76B, offset: 0xC76B, size: 0x8, addend: 0x0, symName: __ZNSt3__112__hash_tableINS_17__hash_value_typeIiiEENS_22__unordered_map_hasherIiS2_NS_4hashIiEENS_8equal_toIiEELb1EEENS_21__unordered_map_equalIiS2_S7_S5_Lb1EEENS_9allocatorIS2_EEEC2Ev, symObjAddr: 0x610, symBinAddr: 0x100004460, symSize: 0x80 }
  - { offsetInCU: 0xC797, offset: 0xC797, size: 0x8, addend: 0x0, symName: __ZNSt3__110unique_ptrIA_PNS_16__hash_node_baseIPNS_11__hash_nodeINS_17__hash_value_typeIiiEEPvEEEENS_25__bucket_list_deallocatorINS_9allocatorIS9_EEEEEC1B7v160006ILb1EvEEv, symObjAddr: 0x690, symBinAddr: 0x1000044E0, symSize: 0x20 }
  - { offsetInCU: 0xC7CC, offset: 0xC7CC, size: 0x8, addend: 0x0, symName: __ZNSt3__117__compressed_pairINS_16__hash_node_baseIPNS_11__hash_nodeINS_17__hash_value_typeIiiEEPvEEEENS_9allocatorIS6_EEEC1B7v160006ILb1EvEEv, symObjAddr: 0x6B0, symBinAddr: 0x100004500, symSize: 0x20 }
  - { offsetInCU: 0xC80B, offset: 0xC80B, size: 0x8, addend: 0x0, symName: __ZNSt3__117__compressed_pairImNS_22__unordered_map_hasherIiNS_17__hash_value_typeIiiEENS_4hashIiEENS_8equal_toIiEELb1EEEEC1B7v160006IiNS_18__default_init_tagEEEOT_OT0_, symObjAddr: 0x6D0, symBinAddr: 0x100004520, symSize: 0x30 }
  - { offsetInCU: 0xC868, offset: 0xC868, size: 0x8, addend: 0x0, symName: __ZNSt3__117__compressed_pairIfNS_21__unordered_map_equalIiNS_17__hash_value_typeIiiEENS_8equal_toIiEENS_4hashIiEELb1EEEEC1B7v160006IfNS_18__default_init_tagEEEOT_OT0_, symObjAddr: 0x700, symBinAddr: 0x100004550, symSize: 0x30 }
  - { offsetInCU: 0xC8C0, offset: 0xC8C0, size: 0x8, addend: 0x0, symName: __ZNSt3__110unique_ptrIA_PNS_16__hash_node_baseIPNS_11__hash_nodeINS_17__hash_value_typeIiiEEPvEEEENS_25__bucket_list_deallocatorINS_9allocatorIS9_EEEEEC2B7v160006ILb1EvEEv, symObjAddr: 0x730, symBinAddr: 0x100004580, symSize: 0x30 }
  - { offsetInCU: 0xC8FA, offset: 0xC8FA, size: 0x8, addend: 0x0, symName: __ZNSt3__117__compressed_pairIPPNS_16__hash_node_baseIPNS_11__hash_nodeINS_17__hash_value_typeIiiEEPvEEEENS_25__bucket_list_deallocatorINS_9allocatorIS9_EEEEEC1B7v160006INS_16__value_init_tagESH_EEOT_OT0_, symObjAddr: 0x760, symBinAddr: 0x1000045B0, symSize: 0x30 }
  - { offsetInCU: 0xC952, offset: 0xC952, size: 0x8, addend: 0x0, symName: __ZNSt3__117__compressed_pairIPPNS_16__hash_node_baseIPNS_11__hash_nodeINS_17__hash_value_typeIiiEEPvEEEENS_25__bucket_list_deallocatorINS_9allocatorIS9_EEEEEC2B7v160006INS_16__value_init_tagESH_EEOT_OT0_, symObjAddr: 0x790, symBinAddr: 0x1000045E0, symSize: 0x40 }
  - { offsetInCU: 0xC9AA, offset: 0xC9AA, size: 0x8, addend: 0x0, symName: __ZNSt3__122__compressed_pair_elemIPPNS_16__hash_node_baseIPNS_11__hash_nodeINS_17__hash_value_typeIiiEEPvEEEELi0ELb0EEC2B7v160006ENS_16__value_init_tagE, symObjAddr: 0x7D0, symBinAddr: 0x100004620, symSize: 0x20 }
  - { offsetInCU: 0xC9DF, offset: 0xC9DF, size: 0x8, addend: 0x0, symName: __ZNSt3__122__compressed_pair_elemINS_25__bucket_list_deallocatorINS_9allocatorIPNS_16__hash_node_baseIPNS_11__hash_nodeINS_17__hash_value_typeIiiEEPvEEEEEEEELi1ELb0EEC2B7v160006ENS_16__value_init_tagE, symObjAddr: 0x7F0, symBinAddr: 0x100004640, symSize: 0x20 }
  - { offsetInCU: 0xCA14, offset: 0xCA14, size: 0x8, addend: 0x0, symName: __ZNSt3__125__bucket_list_deallocatorINS_9allocatorIPNS_16__hash_node_baseIPNS_11__hash_nodeINS_17__hash_value_typeIiiEEPvEEEEEEEC1B7v160006Ev, symObjAddr: 0x810, symBinAddr: 0x100004660, symSize: 0x20 }
  - { offsetInCU: 0xCA3E, offset: 0xCA3E, size: 0x8, addend: 0x0, symName: __ZNSt3__125__bucket_list_deallocatorINS_9allocatorIPNS_16__hash_node_baseIPNS_11__hash_nodeINS_17__hash_value_typeIiiEEPvEEEEEEEC2B7v160006Ev, symObjAddr: 0x830, symBinAddr: 0x100004680, symSize: 0x40 }
  - { offsetInCU: 0xCA68, offset: 0xCA68, size: 0x8, addend: 0x0, symName: __ZNSt3__117__compressed_pairImNS_9allocatorIPNS_16__hash_node_baseIPNS_11__hash_nodeINS_17__hash_value_typeIiiEEPvEEEEEEEC1B7v160006IiNS_18__default_init_tagEEEOT_OT0_, symObjAddr: 0x870, symBinAddr: 0x1000046C0, symSize: 0x30 }
  - { offsetInCU: 0xCAC0, offset: 0xCAC0, size: 0x8, addend: 0x0, symName: __ZNSt3__117__compressed_pairImNS_9allocatorIPNS_16__hash_node_baseIPNS_11__hash_nodeINS_17__hash_value_typeIiiEEPvEEEEEEEC2B7v160006IiNS_18__default_init_tagEEEOT_OT0_, symObjAddr: 0x8A0, symBinAddr: 0x1000046F0, symSize: 0x40 }
  - { offsetInCU: 0xCB18, offset: 0xCB18, size: 0x8, addend: 0x0, symName: __ZNSt3__122__compressed_pair_elemImLi0ELb0EEC2B7v160006IivEEOT_, symObjAddr: 0x8E0, symBinAddr: 0x100004730, symSize: 0x20 }
  - { offsetInCU: 0xCB5A, offset: 0xCB5A, size: 0x8, addend: 0x0, symName: __ZNSt3__122__compressed_pair_elemINS_9allocatorIPNS_16__hash_node_baseIPNS_11__hash_nodeINS_17__hash_value_typeIiiEEPvEEEEEELi1ELb1EEC2B7v160006ENS_18__default_init_tagE, symObjAddr: 0x900, symBinAddr: 0x100004750, symSize: 0x20 }
  - { offsetInCU: 0xCB8F, offset: 0xCB8F, size: 0x8, addend: 0x0, symName: __ZNSt3__19allocatorIPNS_16__hash_node_baseIPNS_11__hash_nodeINS_17__hash_value_typeIiiEEPvEEEEEC2B7v160006Ev, symObjAddr: 0x920, symBinAddr: 0x100004770, symSize: 0x20 }
  - { offsetInCU: 0xCBB9, offset: 0xCBB9, size: 0x8, addend: 0x0, symName: __ZNSt3__116__non_trivial_ifILb1ENS_9allocatorIPNS_16__hash_node_baseIPNS_11__hash_nodeINS_17__hash_value_typeIiiEEPvEEEEEEEC2B7v160006Ev, symObjAddr: 0x940, symBinAddr: 0x100004790, symSize: 0x10 }
  - { offsetInCU: 0xCBE3, offset: 0xCBE3, size: 0x8, addend: 0x0, symName: __ZNSt3__117__compressed_pairINS_16__hash_node_baseIPNS_11__hash_nodeINS_17__hash_value_typeIiiEEPvEEEENS_9allocatorIS6_EEEC2B7v160006ILb1EvEEv, symObjAddr: 0x950, symBinAddr: 0x1000047A0, symSize: 0x30 }
  - { offsetInCU: 0xCC18, offset: 0xCC18, size: 0x8, addend: 0x0, symName: __ZNSt3__122__compressed_pair_elemINS_16__hash_node_baseIPNS_11__hash_nodeINS_17__hash_value_typeIiiEEPvEEEELi0ELb0EEC2B7v160006ENS_16__value_init_tagE, symObjAddr: 0x980, symBinAddr: 0x1000047D0, symSize: 0x20 }
  - { offsetInCU: 0xCC4D, offset: 0xCC4D, size: 0x8, addend: 0x0, symName: __ZNSt3__122__compressed_pair_elemINS_9allocatorINS_11__hash_nodeINS_17__hash_value_typeIiiEEPvEEEELi1ELb1EEC2B7v160006ENS_16__value_init_tagE, symObjAddr: 0x9A0, symBinAddr: 0x1000047F0, symSize: 0x20 }
  - { offsetInCU: 0xCC82, offset: 0xCC82, size: 0x8, addend: 0x0, symName: __ZNSt3__116__hash_node_baseIPNS_11__hash_nodeINS_17__hash_value_typeIiiEEPvEEEC1B7v160006Ev, symObjAddr: 0x9C0, symBinAddr: 0x100004810, symSize: 0x20 }
  - { offsetInCU: 0xCCAC, offset: 0xCCAC, size: 0x8, addend: 0x0, symName: __ZNSt3__116__hash_node_baseIPNS_11__hash_nodeINS_17__hash_value_typeIiiEEPvEEEC2B7v160006Ev, symObjAddr: 0x9E0, symBinAddr: 0x100004830, symSize: 0x20 }
  - { offsetInCU: 0xCCD6, offset: 0xCCD6, size: 0x8, addend: 0x0, symName: __ZNSt3__19allocatorINS_11__hash_nodeINS_17__hash_value_typeIiiEEPvEEEC2B7v160006Ev, symObjAddr: 0xA00, symBinAddr: 0x100004850, symSize: 0x20 }
  - { offsetInCU: 0xCD00, offset: 0xCD00, size: 0x8, addend: 0x0, symName: __ZNSt3__116__non_trivial_ifILb1ENS_9allocatorINS_11__hash_nodeINS_17__hash_value_typeIiiEEPvEEEEEC2B7v160006Ev, symObjAddr: 0xA20, symBinAddr: 0x100004870, symSize: 0x10 }
  - { offsetInCU: 0xCD2A, offset: 0xCD2A, size: 0x8, addend: 0x0, symName: __ZNSt3__117__compressed_pairImNS_22__unordered_map_hasherIiNS_17__hash_value_typeIiiEENS_4hashIiEENS_8equal_toIiEELb1EEEEC2B7v160006IiNS_18__default_init_tagEEEOT_OT0_, symObjAddr: 0xA30, symBinAddr: 0x100004880, symSize: 0x40 }
  - { offsetInCU: 0xCD82, offset: 0xCD82, size: 0x8, addend: 0x0, symName: __ZNSt3__122__compressed_pair_elemINS_22__unordered_map_hasherIiNS_17__hash_value_typeIiiEENS_4hashIiEENS_8equal_toIiEELb1EEELi1ELb1EEC2B7v160006ENS_18__default_init_tagE, symObjAddr: 0xA70, symBinAddr: 0x1000048C0, symSize: 0x20 }
  - { offsetInCU: 0xCDB7, offset: 0xCDB7, size: 0x8, addend: 0x0, symName: __ZNSt3__122__unordered_map_hasherIiNS_17__hash_value_typeIiiEENS_4hashIiEENS_8equal_toIiEELb1EEC2B7v160006Ev, symObjAddr: 0xA90, symBinAddr: 0x1000048E0, symSize: 0x10 }
  - { offsetInCU: 0xCDE1, offset: 0xCDE1, size: 0x8, addend: 0x0, symName: __ZNSt3__117__compressed_pairIfNS_21__unordered_map_equalIiNS_17__hash_value_typeIiiEENS_8equal_toIiEENS_4hashIiEELb1EEEEC2B7v160006IfNS_18__default_init_tagEEEOT_OT0_, symObjAddr: 0xAA0, symBinAddr: 0x1000048F0, symSize: 0x40 }
  - { offsetInCU: 0xCE39, offset: 0xCE39, size: 0x8, addend: 0x0, symName: __ZNSt3__122__compressed_pair_elemIfLi0ELb0EEC2B7v160006IfvEEOT_, symObjAddr: 0xAE0, symBinAddr: 0x100004930, symSize: 0x20 }
  - { offsetInCU: 0xCE7B, offset: 0xCE7B, size: 0x8, addend: 0x0, symName: __ZNSt3__122__compressed_pair_elemINS_21__unordered_map_equalIiNS_17__hash_value_typeIiiEENS_8equal_toIiEENS_4hashIiEELb1EEELi1ELb1EEC2B7v160006ENS_18__default_init_tagE, symObjAddr: 0xB00, symBinAddr: 0x100004950, symSize: 0x20 }
  - { offsetInCU: 0xCEB0, offset: 0xCEB0, size: 0x8, addend: 0x0, symName: __ZNSt3__121__unordered_map_equalIiNS_17__hash_value_typeIiiEENS_8equal_toIiEENS_4hashIiEELb1EEC2B7v160006Ev, symObjAddr: 0xB20, symBinAddr: 0x100004970, symSize: 0x10 }
  - { offsetInCU: 0xCEDA, offset: 0xCEDA, size: 0x8, addend: 0x0, symName: __ZNSt3__113unordered_mapIiiNS_4hashIiEENS_8equal_toIiEENS_9allocatorINS_4pairIKiiEEEEED2B7v160006Ev, symObjAddr: 0xB30, symBinAddr: 0x100004980, symSize: 0x20 }
  - { offsetInCU: 0xCF04, offset: 0xCF04, size: 0x8, addend: 0x0, symName: __ZNSt3__112__hash_tableINS_17__hash_value_typeIiiEENS_22__unordered_map_hasherIiS2_NS_4hashIiEENS_8equal_toIiEELb1EEENS_21__unordered_map_equalIiS2_S7_S5_Lb1EEENS_9allocatorIS2_EEED1Ev, symObjAddr: 0xB50, symBinAddr: 0x1000049A0, symSize: 0x20 }
  - { offsetInCU: 0xCF30, offset: 0xCF30, size: 0x8, addend: 0x0, symName: __ZNSt3__112__hash_tableINS_17__hash_value_typeIiiEENS_22__unordered_map_hasherIiS2_NS_4hashIiEENS_8equal_toIiEELb1EEENS_21__unordered_map_equalIiS2_S7_S5_Lb1EEENS_9allocatorIS2_EEED2Ev, symObjAddr: 0xB70, symBinAddr: 0x1000049C0, symSize: 0x50 }
  - { offsetInCU: 0xCF5C, offset: 0xCF5C, size: 0x8, addend: 0x0, symName: __ZNSt3__112__hash_tableINS_17__hash_value_typeIiiEENS_22__unordered_map_hasherIiS2_NS_4hashIiEENS_8equal_toIiEELb1EEENS_21__unordered_map_equalIiS2_S7_S5_Lb1EEENS_9allocatorIS2_EEE17__deallocate_nodeEPNS_16__hash_node_baseIPNS_11__hash_nodeIS2_PvEEEE, symObjAddr: 0xBC0, symBinAddr: 0x100004A10, symSize: 0xA0 }
  - { offsetInCU: 0xCFC6, offset: 0xCFC6, size: 0x8, addend: 0x0, symName: __ZNSt3__117__compressed_pairINS_16__hash_node_baseIPNS_11__hash_nodeINS_17__hash_value_typeIiiEEPvEEEENS_9allocatorIS6_EEE5firstB7v160006Ev, symObjAddr: 0xC60, symBinAddr: 0x100004AB0, symSize: 0x20 }
  - { offsetInCU: 0xCFEC, offset: 0xCFEC, size: 0x8, addend: 0x0, symName: __ZNSt3__110unique_ptrIA_PNS_16__hash_node_baseIPNS_11__hash_nodeINS_17__hash_value_typeIiiEEPvEEEENS_25__bucket_list_deallocatorINS_9allocatorIS9_EEEEED1B7v160006Ev, symObjAddr: 0xC90, symBinAddr: 0x100004AE0, symSize: 0x20 }
  - { offsetInCU: 0xD016, offset: 0xD016, size: 0x8, addend: 0x0, symName: __ZNSt3__112__hash_tableINS_17__hash_value_typeIiiEENS_22__unordered_map_hasherIiS2_NS_4hashIiEENS_8equal_toIiEELb1EEENS_21__unordered_map_equalIiS2_S7_S5_Lb1EEENS_9allocatorIS2_EEE12__node_allocB7v160006Ev, symObjAddr: 0xCB0, symBinAddr: 0x100004B00, symSize: 0x20 }
  - { offsetInCU: 0xD03C, offset: 0xD03C, size: 0x8, addend: 0x0, symName: __ZNSt3__116__hash_node_baseIPNS_11__hash_nodeINS_17__hash_value_typeIiiEEPvEEE8__upcastB7v160006Ev, symObjAddr: 0xCD0, symBinAddr: 0x100004B20, symSize: 0x20 }
  - { offsetInCU: 0xD062, offset: 0xD062, size: 0x8, addend: 0x0, symName: __ZNSt3__116allocator_traitsINS_9allocatorINS_11__hash_nodeINS_17__hash_value_typeIiiEEPvEEEEE7destroyB7v160006INS_4pairIKiiEEvvEEvRS7_PT_, symObjAddr: 0xCF0, symBinAddr: 0x100004B40, symSize: 0x20 }
  - { offsetInCU: 0xD09D, offset: 0xD09D, size: 0x8, addend: 0x0, symName: __ZNSt3__122__hash_key_value_typesINS_17__hash_value_typeIiiEEE9__get_ptrB7v160006ERS2_, symObjAddr: 0xD10, symBinAddr: 0x100004B60, symSize: 0x20 }
  - { offsetInCU: 0xD0C0, offset: 0xD0C0, size: 0x8, addend: 0x0, symName: __ZNSt3__116allocator_traitsINS_9allocatorINS_11__hash_nodeINS_17__hash_value_typeIiiEEPvEEEEE10deallocateB7v160006ERS7_PS6_m, symObjAddr: 0xD30, symBinAddr: 0x100004B80, symSize: 0x30 }
  - { offsetInCU: 0xD102, offset: 0xD102, size: 0x8, addend: 0x0, symName: __ZNSt3__117__compressed_pairINS_16__hash_node_baseIPNS_11__hash_nodeINS_17__hash_value_typeIiiEEPvEEEENS_9allocatorIS6_EEE6secondB7v160006Ev, symObjAddr: 0xD60, symBinAddr: 0x100004BB0, symSize: 0x20 }
  - { offsetInCU: 0xD128, offset: 0xD128, size: 0x8, addend: 0x0, symName: __ZNSt3__122__compressed_pair_elemINS_9allocatorINS_11__hash_nodeINS_17__hash_value_typeIiiEEPvEEEELi1ELb1EE5__getB7v160006Ev, symObjAddr: 0xD80, symBinAddr: 0x100004BD0, symSize: 0x10 }
  - { offsetInCU: 0xD14E, offset: 0xD14E, size: 0x8, addend: 0x0, symName: __ZNSt3__114pointer_traitsIPNS_16__hash_node_baseIPNS_11__hash_nodeINS_17__hash_value_typeIiiEEPvEEEEE10pointer_toB7v160006ERS8_, symObjAddr: 0xD90, symBinAddr: 0x100004BE0, symSize: 0x10 }
  - { offsetInCU: 0xD171, offset: 0xD171, size: 0x8, addend: 0x0, symName: __ZNSt3__117__hash_value_typeIiiE11__get_valueB7v160006Ev, symObjAddr: 0xDD0, symBinAddr: 0x100004C20, symSize: 0x20 }
  - { offsetInCU: 0xD197, offset: 0xD197, size: 0x8, addend: 0x0, symName: __ZNSt3__19allocatorINS_11__hash_nodeINS_17__hash_value_typeIiiEEPvEEE10deallocateB7v160006EPS5_m, symObjAddr: 0xE20, symBinAddr: 0x100004C70, symSize: 0x50 }
  - { offsetInCU: 0xD1D9, offset: 0xD1D9, size: 0x8, addend: 0x0, symName: __ZNSt3__122__compressed_pair_elemINS_16__hash_node_baseIPNS_11__hash_nodeINS_17__hash_value_typeIiiEEPvEEEELi0ELb0EE5__getB7v160006Ev, symObjAddr: 0xF90, symBinAddr: 0x100004DE0, symSize: 0x10 }
  - { offsetInCU: 0xD1FF, offset: 0xD1FF, size: 0x8, addend: 0x0, symName: __ZNSt3__110unique_ptrIA_PNS_16__hash_node_baseIPNS_11__hash_nodeINS_17__hash_value_typeIiiEEPvEEEENS_25__bucket_list_deallocatorINS_9allocatorIS9_EEEEED2B7v160006Ev, symObjAddr: 0xFA0, symBinAddr: 0x100004DF0, symSize: 0x20 }
  - { offsetInCU: 0xD229, offset: 0xD229, size: 0x8, addend: 0x0, symName: __ZNSt3__110unique_ptrIA_PNS_16__hash_node_baseIPNS_11__hash_nodeINS_17__hash_value_typeIiiEEPvEEEENS_25__bucket_list_deallocatorINS_9allocatorIS9_EEEEE5resetB7v160006EDn, symObjAddr: 0xFC0, symBinAddr: 0x100004E10, symSize: 0x60 }
  - { offsetInCU: 0xD26A, offset: 0xD26A, size: 0x8, addend: 0x0, symName: __ZNSt3__117__compressed_pairIPPNS_16__hash_node_baseIPNS_11__hash_nodeINS_17__hash_value_typeIiiEEPvEEEENS_25__bucket_list_deallocatorINS_9allocatorIS9_EEEEE5firstB7v160006Ev, symObjAddr: 0x1020, symBinAddr: 0x100004E70, symSize: 0x20 }
  - { offsetInCU: 0xD290, offset: 0xD290, size: 0x8, addend: 0x0, symName: __ZNSt3__117__compressed_pairIPPNS_16__hash_node_baseIPNS_11__hash_nodeINS_17__hash_value_typeIiiEEPvEEEENS_25__bucket_list_deallocatorINS_9allocatorIS9_EEEEE6secondB7v160006Ev, symObjAddr: 0x1040, symBinAddr: 0x100004E90, symSize: 0x20 }
  - { offsetInCU: 0xD2B6, offset: 0xD2B6, size: 0x8, addend: 0x0, symName: __ZNSt3__125__bucket_list_deallocatorINS_9allocatorIPNS_16__hash_node_baseIPNS_11__hash_nodeINS_17__hash_value_typeIiiEEPvEEEEEEEclB7v160006EPSA_, symObjAddr: 0x1060, symBinAddr: 0x100004EB0, symSize: 0x50 }
  - { offsetInCU: 0xD2EB, offset: 0xD2EB, size: 0x8, addend: 0x0, symName: __ZNSt3__122__compressed_pair_elemIPPNS_16__hash_node_baseIPNS_11__hash_nodeINS_17__hash_value_typeIiiEEPvEEEELi0ELb0EE5__getB7v160006Ev, symObjAddr: 0x10B0, symBinAddr: 0x100004F00, symSize: 0x10 }
  - { offsetInCU: 0xD311, offset: 0xD311, size: 0x8, addend: 0x0, symName: __ZNSt3__122__compressed_pair_elemINS_25__bucket_list_deallocatorINS_9allocatorIPNS_16__hash_node_baseIPNS_11__hash_nodeINS_17__hash_value_typeIiiEEPvEEEEEEEELi1ELb0EE5__getB7v160006Ev, symObjAddr: 0x10C0, symBinAddr: 0x100004F10, symSize: 0x10 }
  - { offsetInCU: 0xD337, offset: 0xD337, size: 0x8, addend: 0x0, symName: __ZNSt3__116allocator_traitsINS_9allocatorIPNS_16__hash_node_baseIPNS_11__hash_nodeINS_17__hash_value_typeIiiEEPvEEEEEEE10deallocateB7v160006ERSB_PSA_m, symObjAddr: 0x10D0, symBinAddr: 0x100004F20, symSize: 0x30 }
  - { offsetInCU: 0xD379, offset: 0xD379, size: 0x8, addend: 0x0, symName: __ZNSt3__125__bucket_list_deallocatorINS_9allocatorIPNS_16__hash_node_baseIPNS_11__hash_nodeINS_17__hash_value_typeIiiEEPvEEEEEEE7__allocB7v160006Ev, symObjAddr: 0x1100, symBinAddr: 0x100004F50, symSize: 0x20 }
  - { offsetInCU: 0xD39F, offset: 0xD39F, size: 0x8, addend: 0x0, symName: __ZNSt3__125__bucket_list_deallocatorINS_9allocatorIPNS_16__hash_node_baseIPNS_11__hash_nodeINS_17__hash_value_typeIiiEEPvEEEEEEE4sizeB7v160006Ev, symObjAddr: 0x1120, symBinAddr: 0x100004F70, symSize: 0x20 }
  - { offsetInCU: 0xD3C5, offset: 0xD3C5, size: 0x8, addend: 0x0, symName: __ZNSt3__19allocatorIPNS_16__hash_node_baseIPNS_11__hash_nodeINS_17__hash_value_typeIiiEEPvEEEEE10deallocateB7v160006EPS9_m, symObjAddr: 0x1140, symBinAddr: 0x100004F90, symSize: 0x40 }
  - { offsetInCU: 0xD407, offset: 0xD407, size: 0x8, addend: 0x0, symName: __ZNSt3__117__compressed_pairImNS_9allocatorIPNS_16__hash_node_baseIPNS_11__hash_nodeINS_17__hash_value_typeIiiEEPvEEEEEEE6secondB7v160006Ev, symObjAddr: 0x1180, symBinAddr: 0x100004FD0, symSize: 0x20 }
  - { offsetInCU: 0xD42D, offset: 0xD42D, size: 0x8, addend: 0x0, symName: __ZNSt3__122__compressed_pair_elemINS_9allocatorIPNS_16__hash_node_baseIPNS_11__hash_nodeINS_17__hash_value_typeIiiEEPvEEEEEELi1ELb1EE5__getB7v160006Ev, symObjAddr: 0x11A0, symBinAddr: 0x100004FF0, symSize: 0x10 }
  - { offsetInCU: 0xD453, offset: 0xD453, size: 0x8, addend: 0x0, symName: __ZNSt3__117__compressed_pairImNS_9allocatorIPNS_16__hash_node_baseIPNS_11__hash_nodeINS_17__hash_value_typeIiiEEPvEEEEEEE5firstB7v160006Ev, symObjAddr: 0x11B0, symBinAddr: 0x100005000, symSize: 0x20 }
  - { offsetInCU: 0xD479, offset: 0xD479, size: 0x8, addend: 0x0, symName: __ZNSt3__122__compressed_pair_elemImLi0ELb0EE5__getB7v160006Ev, symObjAddr: 0x11D0, symBinAddr: 0x100005020, symSize: 0x10 }
  - { offsetInCU: 0xD49F, offset: 0xD49F, size: 0x8, addend: 0x0, symName: __ZNSt3__112__hash_tableINS_17__hash_value_typeIiiEENS_22__unordered_map_hasherIiS2_NS_4hashIiEENS_8equal_toIiEELb1EEENS_21__unordered_map_equalIiS2_S7_S5_Lb1EEENS_9allocatorIS2_EEE15__insert_uniqueB7v160006EONS_4pairIKiiEE, symObjAddr: 0x11E0, symBinAddr: 0x100005030, symSize: 0x50 }
  - { offsetInCU: 0xD4D4, offset: 0xD4D4, size: 0x8, addend: 0x0, symName: __ZNSt3__14pairINS_19__hash_map_iteratorINS_15__hash_iteratorIPNS_11__hash_nodeINS_17__hash_value_typeIiiEEPvEEEEEEbEC1B7v160006IS9_bLS6_0EEEONS0_IT_T0_EE, symObjAddr: 0x1230, symBinAddr: 0x100005080, symSize: 0x30 }
  - { offsetInCU: 0xD525, offset: 0xD525, size: 0x8, addend: 0x0, symName: __ZNSt3__112__hash_tableINS_17__hash_value_typeIiiEENS_22__unordered_map_hasherIiS2_NS_4hashIiEENS_8equal_toIiEELb1EEENS_21__unordered_map_equalIiS2_S7_S5_Lb1EEENS_9allocatorIS2_EEE25__emplace_unique_key_argsIiJNS_4pairIKiiEEEEENSF_INS_15__hash_iteratorIPNS_11__hash_nodeIS2_PvEEEEbEERKT_DpOT0_, symObjAddr: 0x1260, symBinAddr: 0x1000050B0, symSize: 0x630 }
  - { offsetInCU: 0xD603, offset: 0xD603, size: 0x8, addend: 0x0, symName: __ZNSt3__122__hash_key_value_typesINS_17__hash_value_typeIiiEEE9__get_keyB7v160006ERKNS_4pairIKiiEE, symObjAddr: 0x1890, symBinAddr: 0x1000056E0, symSize: 0x10 }
  - { offsetInCU: 0xD626, offset: 0xD626, size: 0x8, addend: 0x0, symName: __ZNSt3__112__hash_tableINS_17__hash_value_typeIiiEENS_22__unordered_map_hasherIiS2_NS_4hashIiEENS_8equal_toIiEELb1EEENS_21__unordered_map_equalIiS2_S7_S5_Lb1EEENS_9allocatorIS2_EEE13hash_functionB7v160006Ev, symObjAddr: 0x18A0, symBinAddr: 0x1000056F0, symSize: 0x20 }
  - { offsetInCU: 0xD64C, offset: 0xD64C, size: 0x8, addend: 0x0, symName: __ZNKSt3__122__unordered_map_hasherIiNS_17__hash_value_typeIiiEENS_4hashIiEENS_8equal_toIiEELb1EEclB7v160006ERKi, symObjAddr: 0x18C0, symBinAddr: 0x100005710, symSize: 0x30 }
  - { offsetInCU: 0xD681, offset: 0xD681, size: 0x8, addend: 0x0, symName: __ZNKSt3__112__hash_tableINS_17__hash_value_typeIiiEENS_22__unordered_map_hasherIiS2_NS_4hashIiEENS_8equal_toIiEELb1EEENS_21__unordered_map_equalIiS2_S7_S5_Lb1EEENS_9allocatorIS2_EEE12bucket_countB7v160006Ev, symObjAddr: 0x18F0, symBinAddr: 0x100005740, symSize: 0x30 }
  - { offsetInCU: 0xD6A7, offset: 0xD6A7, size: 0x8, addend: 0x0, symName: __ZNKSt3__110unique_ptrIA_PNS_16__hash_node_baseIPNS_11__hash_nodeINS_17__hash_value_typeIiiEEPvEEEENS_25__bucket_list_deallocatorINS_9allocatorIS9_EEEEEixB7v160006Em, symObjAddr: 0x19A0, symBinAddr: 0x1000057F0, symSize: 0x30 }
  - { offsetInCU: 0xD6DC, offset: 0xD6DC, size: 0x8, addend: 0x0, symName: __ZNKSt3__116__hash_node_baseIPNS_11__hash_nodeINS_17__hash_value_typeIiiEEPvEEE6__hashB7v160006Ev, symObjAddr: 0x19D0, symBinAddr: 0x100005820, symSize: 0x20 }
  - { offsetInCU: 0xD702, offset: 0xD702, size: 0x8, addend: 0x0, symName: __ZNSt3__112__hash_tableINS_17__hash_value_typeIiiEENS_22__unordered_map_hasherIiS2_NS_4hashIiEENS_8equal_toIiEELb1EEENS_21__unordered_map_equalIiS2_S7_S5_Lb1EEENS_9allocatorIS2_EEE6key_eqB7v160006Ev, symObjAddr: 0x19F0, symBinAddr: 0x100005840, symSize: 0x20 }
  - { offsetInCU: 0xD728, offset: 0xD728, size: 0x8, addend: 0x0, symName: __ZNKSt3__121__unordered_map_equalIiNS_17__hash_value_typeIiiEENS_8equal_toIiEENS_4hashIiEELb1EEclB7v160006ERKS2_RKi, symObjAddr: 0x1A10, symBinAddr: 0x100005860, symSize: 0x40 }
  - { offsetInCU: 0xD76C, offset: 0xD76C, size: 0x8, addend: 0x0, symName: __ZNSt3__112__hash_tableINS_17__hash_value_typeIiiEENS_22__unordered_map_hasherIiS2_NS_4hashIiEENS_8equal_toIiEELb1EEENS_21__unordered_map_equalIiS2_S7_S5_Lb1EEENS_9allocatorIS2_EEE21__construct_node_hashINS_4pairIKiiEEJEEENS_10unique_ptrINS_11__hash_nodeIS2_PvEENS_22__hash_node_destructorINSB_ISL_EEEEEEmOT_DpOT0_, symObjAddr: 0x1A50, symBinAddr: 0x1000058A0, symSize: 0x140 }
  - { offsetInCU: 0xD7DF, offset: 0xD7DF, size: 0x8, addend: 0x0, symName: __ZNSt3__112__hash_tableINS_17__hash_value_typeIiiEENS_22__unordered_map_hasherIiS2_NS_4hashIiEENS_8equal_toIiEELb1EEENS_21__unordered_map_equalIiS2_S7_S5_Lb1EEENS_9allocatorIS2_EEE4sizeB7v160006Ev, symObjAddr: 0x1B90, symBinAddr: 0x1000059E0, symSize: 0x20 }
  - { offsetInCU: 0xD805, offset: 0xD805, size: 0x8, addend: 0x0, symName: __ZNSt3__112__hash_tableINS_17__hash_value_typeIiiEENS_22__unordered_map_hasherIiS2_NS_4hashIiEENS_8equal_toIiEELb1EEENS_21__unordered_map_equalIiS2_S7_S5_Lb1EEENS_9allocatorIS2_EEE15max_load_factorB7v160006Ev, symObjAddr: 0x1BB0, symBinAddr: 0x100005A00, symSize: 0x20 }
  - { offsetInCU: 0xD82B, offset: 0xD82B, size: 0x8, addend: 0x0, symName: __ZNSt3__112__hash_tableINS_17__hash_value_typeIiiEENS_22__unordered_map_hasherIiS2_NS_4hashIiEENS_8equal_toIiEELb1EEENS_21__unordered_map_equalIiS2_S7_S5_Lb1EEENS_9allocatorIS2_EEE15__rehash_uniqueB7v160006Em, symObjAddr: 0x1BD0, symBinAddr: 0x100005A20, symSize: 0x30 }
  - { offsetInCU: 0xD85F, offset: 0xD85F, size: 0x8, addend: 0x0, symName: __Z4ceilB7v160006f, symObjAddr: 0x1C70, symBinAddr: 0x100005AC0, symSize: 0x20 }
  - { offsetInCU: 0xD88E, offset: 0xD88E, size: 0x8, addend: 0x0, symName: __ZNSt3__116__hash_node_baseIPNS_11__hash_nodeINS_17__hash_value_typeIiiEEPvEEE5__ptrB7v160006Ev, symObjAddr: 0x1C90, symBinAddr: 0x100005AE0, symSize: 0x20 }
  - { offsetInCU: 0xD8B4, offset: 0xD8B4, size: 0x8, addend: 0x0, symName: __ZNKSt3__110unique_ptrINS_11__hash_nodeINS_17__hash_value_typeIiiEEPvEENS_22__hash_node_destructorINS_9allocatorIS5_EEEEEptB7v160006Ev, symObjAddr: 0x1CB0, symBinAddr: 0x100005B00, symSize: 0x20 }
  - { offsetInCU: 0xD8DA, offset: 0xD8DA, size: 0x8, addend: 0x0, symName: __ZNKSt3__110unique_ptrINS_11__hash_nodeINS_17__hash_value_typeIiiEEPvEENS_22__hash_node_destructorINS_9allocatorIS5_EEEEE3getB7v160006Ev, symObjAddr: 0x1CD0, symBinAddr: 0x100005B20, symSize: 0x20 }
  - { offsetInCU: 0xD900, offset: 0xD900, size: 0x8, addend: 0x0, symName: __ZNSt3__110unique_ptrINS_11__hash_nodeINS_17__hash_value_typeIiiEEPvEENS_22__hash_node_destructorINS_9allocatorIS5_EEEEE7releaseB7v160006Ev, symObjAddr: 0x1CF0, symBinAddr: 0x100005B40, symSize: 0x40 }
  - { offsetInCU: 0xD935, offset: 0xD935, size: 0x8, addend: 0x0, symName: __ZNSt3__110unique_ptrINS_11__hash_nodeINS_17__hash_value_typeIiiEEPvEENS_22__hash_node_destructorINS_9allocatorIS5_EEEEED1B7v160006Ev, symObjAddr: 0x1D30, symBinAddr: 0x100005B80, symSize: 0x20 }
  - { offsetInCU: 0xD95F, offset: 0xD95F, size: 0x8, addend: 0x0, symName: __ZNSt3__115__hash_iteratorIPNS_11__hash_nodeINS_17__hash_value_typeIiiEEPvEEEC1B7v160006EPNS_16__hash_node_baseIS6_EEPKv, symObjAddr: 0x1D50, symBinAddr: 0x100005BA0, symSize: 0x30 }
  - { offsetInCU: 0xD9B1, offset: 0xD9B1, size: 0x8, addend: 0x0, symName: __ZNSt3__14pairINS_15__hash_iteratorIPNS_11__hash_nodeINS_17__hash_value_typeIiiEEPvEEEEbEC1B7v160006IS8_RbLS5_0EEEOT_OT0_, symObjAddr: 0x1D80, symBinAddr: 0x100005BD0, symSize: 0x30 }
  - { offsetInCU: 0xDA0F, offset: 0xDA0F, size: 0x8, addend: 0x0, symName: __ZNSt3__117__compressed_pairImNS_22__unordered_map_hasherIiNS_17__hash_value_typeIiiEENS_4hashIiEENS_8equal_toIiEELb1EEEE6secondB7v160006Ev, symObjAddr: 0x1DB0, symBinAddr: 0x100005C00, symSize: 0x20 }
  - { offsetInCU: 0xDA35, offset: 0xDA35, size: 0x8, addend: 0x0, symName: __ZNSt3__122__compressed_pair_elemINS_22__unordered_map_hasherIiNS_17__hash_value_typeIiiEENS_4hashIiEENS_8equal_toIiEELb1EEELi1ELb1EE5__getB7v160006Ev, symObjAddr: 0x1DD0, symBinAddr: 0x100005C20, symSize: 0x10 }
  - { offsetInCU: 0xDA5B, offset: 0xDA5B, size: 0x8, addend: 0x0, symName: __ZNKSt3__14hashIiEclB7v160006Ei, symObjAddr: 0x1DE0, symBinAddr: 0x100005C30, symSize: 0x20 }
  - { offsetInCU: 0xDA90, offset: 0xDA90, size: 0x8, addend: 0x0, symName: __ZNKSt3__110unique_ptrIA_PNS_16__hash_node_baseIPNS_11__hash_nodeINS_17__hash_value_typeIiiEEPvEEEENS_25__bucket_list_deallocatorINS_9allocatorIS9_EEEEE11get_deleterB7v160006Ev, symObjAddr: 0x1E00, symBinAddr: 0x100005C50, symSize: 0x20 }
  - { offsetInCU: 0xDAB6, offset: 0xDAB6, size: 0x8, addend: 0x0, symName: __ZNKSt3__125__bucket_list_deallocatorINS_9allocatorIPNS_16__hash_node_baseIPNS_11__hash_nodeINS_17__hash_value_typeIiiEEPvEEEEEEE4sizeB7v160006Ev, symObjAddr: 0x1E20, symBinAddr: 0x100005C70, symSize: 0x20 }
  - { offsetInCU: 0xDADC, offset: 0xDADC, size: 0x8, addend: 0x0, symName: __ZNKSt3__117__compressed_pairIPPNS_16__hash_node_baseIPNS_11__hash_nodeINS_17__hash_value_typeIiiEEPvEEEENS_25__bucket_list_deallocatorINS_9allocatorIS9_EEEEE6secondB7v160006Ev, symObjAddr: 0x1E40, symBinAddr: 0x100005C90, symSize: 0x20 }
  - { offsetInCU: 0xDB02, offset: 0xDB02, size: 0x8, addend: 0x0, symName: __ZNKSt3__122__compressed_pair_elemINS_25__bucket_list_deallocatorINS_9allocatorIPNS_16__hash_node_baseIPNS_11__hash_nodeINS_17__hash_value_typeIiiEEPvEEEEEEEELi1ELb0EE5__getB7v160006Ev, symObjAddr: 0x1E60, symBinAddr: 0x100005CB0, symSize: 0x10 }
  - { offsetInCU: 0xDB28, offset: 0xDB28, size: 0x8, addend: 0x0, symName: __ZNKSt3__117__compressed_pairImNS_9allocatorIPNS_16__hash_node_baseIPNS_11__hash_nodeINS_17__hash_value_typeIiiEEPvEEEEEEE5firstB7v160006Ev, symObjAddr: 0x1E70, symBinAddr: 0x100005CC0, symSize: 0x20 }
  - { offsetInCU: 0xDB4E, offset: 0xDB4E, size: 0x8, addend: 0x0, symName: __ZNKSt3__122__compressed_pair_elemImLi0ELb0EE5__getB7v160006Ev, symObjAddr: 0x1E90, symBinAddr: 0x100005CE0, symSize: 0x10 }
  - { offsetInCU: 0xDB74, offset: 0xDB74, size: 0x8, addend: 0x0, symName: __ZNKSt3__117__compressed_pairIPPNS_16__hash_node_baseIPNS_11__hash_nodeINS_17__hash_value_typeIiiEEPvEEEENS_25__bucket_list_deallocatorINS_9allocatorIS9_EEEEE5firstB7v160006Ev, symObjAddr: 0x1EA0, symBinAddr: 0x100005CF0, symSize: 0x20 }
  - { offsetInCU: 0xDB9A, offset: 0xDB9A, size: 0x8, addend: 0x0, symName: __ZNKSt3__122__compressed_pair_elemIPPNS_16__hash_node_baseIPNS_11__hash_nodeINS_17__hash_value_typeIiiEEPvEEEELi0ELb0EE5__getB7v160006Ev, symObjAddr: 0x1EC0, symBinAddr: 0x100005D10, symSize: 0x10 }
  - { offsetInCU: 0xDBC0, offset: 0xDBC0, size: 0x8, addend: 0x0, symName: __ZNSt3__117__compressed_pairIfNS_21__unordered_map_equalIiNS_17__hash_value_typeIiiEENS_8equal_toIiEENS_4hashIiEELb1EEEE6secondB7v160006Ev, symObjAddr: 0x1ED0, symBinAddr: 0x100005D20, symSize: 0x20 }
  - { offsetInCU: 0xDBE6, offset: 0xDBE6, size: 0x8, addend: 0x0, symName: __ZNSt3__122__compressed_pair_elemINS_21__unordered_map_equalIiNS_17__hash_value_typeIiiEENS_8equal_toIiEENS_4hashIiEELb1EEELi1ELb1EE5__getB7v160006Ev, symObjAddr: 0x1EF0, symBinAddr: 0x100005D40, symSize: 0x10 }
  - { offsetInCU: 0xDC0C, offset: 0xDC0C, size: 0x8, addend: 0x0, symName: __ZNKSt3__18equal_toIiEclB7v160006ERKiS3_, symObjAddr: 0x1F00, symBinAddr: 0x100005D50, symSize: 0x30 }
  - { offsetInCU: 0xDC50, offset: 0xDC50, size: 0x8, addend: 0x0, symName: __ZNKSt3__117__hash_value_typeIiiE11__get_valueB7v160006Ev, symObjAddr: 0x1F30, symBinAddr: 0x100005D80, symSize: 0x20 }
  - { offsetInCU: 0xDC76, offset: 0xDC76, size: 0x8, addend: 0x0, symName: __ZNSt3__116allocator_traitsINS_9allocatorINS_11__hash_nodeINS_17__hash_value_typeIiiEEPvEEEEE8allocateB7v160006ERS7_m, symObjAddr: 0x1F80, symBinAddr: 0x100005DD0, symSize: 0x30 }
  - { offsetInCU: 0xDCA9, offset: 0xDCA9, size: 0x8, addend: 0x0, symName: __ZNSt3__122__hash_node_destructorINS_9allocatorINS_11__hash_nodeINS_17__hash_value_typeIiiEEPvEEEEEC1B7v160006ERS7_b, symObjAddr: 0x1FB0, symBinAddr: 0x100005E00, symSize: 0x40 }
  - { offsetInCU: 0xDCF6, offset: 0xDCF6, size: 0x8, addend: 0x0, symName: __ZNSt3__110unique_ptrINS_11__hash_nodeINS_17__hash_value_typeIiiEEPvEENS_22__hash_node_destructorINS_9allocatorIS5_EEEEEC1B7v160006ILb1EvEEPS5_NS_16__dependent_typeINS_27__unique_ptr_deleter_sfinaeIS9_EEXT_EE20__good_rval_ref_typeE, symObjAddr: 0x1FF0, symBinAddr: 0x100005E40, symSize: 0x30 }
  - { offsetInCU: 0xDD47, offset: 0xDD47, size: 0x8, addend: 0x0, symName: __ZNSt3__116allocator_traitsINS_9allocatorINS_11__hash_nodeINS_17__hash_value_typeIiiEEPvEEEEE9constructB7v160006INS_4pairIKiiEEJSC_EvvEEvRS7_PT_DpOT0_, symObjAddr: 0x2020, symBinAddr: 0x100005E70, symSize: 0x30 }
  - { offsetInCU: 0xDD9C, offset: 0xDD9C, size: 0x8, addend: 0x0, symName: __ZNSt3__110unique_ptrINS_11__hash_nodeINS_17__hash_value_typeIiiEEPvEENS_22__hash_node_destructorINS_9allocatorIS5_EEEEE11get_deleterB7v160006Ev, symObjAddr: 0x2050, symBinAddr: 0x100005EA0, symSize: 0x20 }
  - { offsetInCU: 0xDDC2, offset: 0xDDC2, size: 0x8, addend: 0x0, symName: __ZNSt3__19allocatorINS_11__hash_nodeINS_17__hash_value_typeIiiEEPvEEE8allocateB7v160006Em, symObjAddr: 0x2070, symBinAddr: 0x100005EC0, symSize: 0x50 }
  - { offsetInCU: 0xDE00, offset: 0xDE00, size: 0x8, addend: 0x0, symName: __ZNSt3__116allocator_traitsINS_9allocatorINS_11__hash_nodeINS_17__hash_value_typeIiiEEPvEEEEE8max_sizeB7v160006IS7_vvEEmRKS7_, symObjAddr: 0x20C0, symBinAddr: 0x100005F10, symSize: 0x30 }
  - { offsetInCU: 0xDE2C, offset: 0xDE2C, size: 0x8, addend: 0x0, symName: __ZNSt3__114numeric_limitsImE3maxB7v160006Ev, symObjAddr: 0x2190, symBinAddr: 0x100005FE0, symSize: 0x10 }
  - { offsetInCU: 0xDE40, offset: 0xDE40, size: 0x8, addend: 0x0, symName: __ZNSt3__123__libcpp_numeric_limitsImLb1EE3maxB7v160006Ev, symObjAddr: 0x21A0, symBinAddr: 0x100005FF0, symSize: 0x10 }
  - { offsetInCU: 0xDE54, offset: 0xDE54, size: 0x8, addend: 0x0, symName: __ZNSt3__122__hash_node_destructorINS_9allocatorINS_11__hash_nodeINS_17__hash_value_typeIiiEEPvEEEEEC2B7v160006ERS7_b, symObjAddr: 0x2200, symBinAddr: 0x100006050, symSize: 0x30 }
  - { offsetInCU: 0xDE9C, offset: 0xDE9C, size: 0x8, addend: 0x0, symName: __ZNSt3__110unique_ptrINS_11__hash_nodeINS_17__hash_value_typeIiiEEPvEENS_22__hash_node_destructorINS_9allocatorIS5_EEEEEC2B7v160006ILb1EvEEPS5_NS_16__dependent_typeINS_27__unique_ptr_deleter_sfinaeIS9_EEXT_EE20__good_rval_ref_typeE, symObjAddr: 0x2230, symBinAddr: 0x100006080, symSize: 0x40 }
  - { offsetInCU: 0xDEED, offset: 0xDEED, size: 0x8, addend: 0x0, symName: __ZNSt3__117__compressed_pairIPNS_11__hash_nodeINS_17__hash_value_typeIiiEEPvEENS_22__hash_node_destructorINS_9allocatorIS5_EEEEEC1B7v160006IRS6_SA_EEOT_OT0_, symObjAddr: 0x2270, symBinAddr: 0x1000060C0, symSize: 0x30 }
  - { offsetInCU: 0xDF45, offset: 0xDF45, size: 0x8, addend: 0x0, symName: __ZNSt3__117__compressed_pairIPNS_11__hash_nodeINS_17__hash_value_typeIiiEEPvEENS_22__hash_node_destructorINS_9allocatorIS5_EEEEEC2B7v160006IRS6_SA_EEOT_OT0_, symObjAddr: 0x22A0, symBinAddr: 0x1000060F0, symSize: 0x40 }
  - { offsetInCU: 0xDF9D, offset: 0xDF9D, size: 0x8, addend: 0x0, symName: __ZNSt3__122__compressed_pair_elemIPNS_11__hash_nodeINS_17__hash_value_typeIiiEEPvEELi0ELb0EEC2B7v160006IRS6_vEEOT_, symObjAddr: 0x22E0, symBinAddr: 0x100006130, symSize: 0x20 }
  - { offsetInCU: 0xDFDF, offset: 0xDFDF, size: 0x8, addend: 0x0, symName: __ZNSt3__122__compressed_pair_elemINS_22__hash_node_destructorINS_9allocatorINS_11__hash_nodeINS_17__hash_value_typeIiiEEPvEEEEEELi1ELb0EEC2B7v160006IS9_vEEOT_, symObjAddr: 0x2300, symBinAddr: 0x100006150, symSize: 0x30 }
  - { offsetInCU: 0xE021, offset: 0xE021, size: 0x8, addend: 0x0, symName: __ZNSt3__117__compressed_pairIPNS_11__hash_nodeINS_17__hash_value_typeIiiEEPvEENS_22__hash_node_destructorINS_9allocatorIS5_EEEEE6secondB7v160006Ev, symObjAddr: 0x2360, symBinAddr: 0x1000061B0, symSize: 0x20 }
  - { offsetInCU: 0xE047, offset: 0xE047, size: 0x8, addend: 0x0, symName: __ZNSt3__122__compressed_pair_elemINS_22__hash_node_destructorINS_9allocatorINS_11__hash_nodeINS_17__hash_value_typeIiiEEPvEEEEEELi1ELb0EE5__getB7v160006Ev, symObjAddr: 0x2380, symBinAddr: 0x1000061D0, symSize: 0x10 }
  - { offsetInCU: 0xE06D, offset: 0xE06D, size: 0x8, addend: 0x0, symName: __ZNSt3__117__compressed_pairImNS_22__unordered_map_hasherIiNS_17__hash_value_typeIiiEENS_4hashIiEENS_8equal_toIiEELb1EEEE5firstB7v160006Ev, symObjAddr: 0x2390, symBinAddr: 0x1000061E0, symSize: 0x20 }
  - { offsetInCU: 0xE093, offset: 0xE093, size: 0x8, addend: 0x0, symName: __ZNSt3__117__compressed_pairIfNS_21__unordered_map_equalIiNS_17__hash_value_typeIiiEENS_8equal_toIiEENS_4hashIiEELb1EEEE5firstB7v160006Ev, symObjAddr: 0x23B0, symBinAddr: 0x100006200, symSize: 0x20 }
  - { offsetInCU: 0xE0B9, offset: 0xE0B9, size: 0x8, addend: 0x0, symName: __ZNSt3__122__compressed_pair_elemIfLi0ELb0EE5__getB7v160006Ev, symObjAddr: 0x23D0, symBinAddr: 0x100006220, symSize: 0x10 }
  - { offsetInCU: 0xE0DF, offset: 0xE0DF, size: 0x8, addend: 0x0, symName: __ZNSt3__112__hash_tableINS_17__hash_value_typeIiiEENS_22__unordered_map_hasherIiS2_NS_4hashIiEENS_8equal_toIiEELb1EEENS_21__unordered_map_equalIiS2_S7_S5_Lb1EEENS_9allocatorIS2_EEE8__rehashILb1EEEvm, symObjAddr: 0x23E0, symBinAddr: 0x100006230, symSize: 0x230 }
  - { offsetInCU: 0xE12F, offset: 0xE12F, size: 0x8, addend: 0x0, symName: __ZNSt3__112__hash_tableINS_17__hash_value_typeIiiEENS_22__unordered_map_hasherIiS2_NS_4hashIiEENS_8equal_toIiEELb1EEENS_21__unordered_map_equalIiS2_S7_S5_Lb1EEENS_9allocatorIS2_EEE11__do_rehashILb1EEEvm, symObjAddr: 0x2610, symBinAddr: 0x100006460, symSize: 0x260 }
  - { offsetInCU: 0xE212, offset: 0xE212, size: 0x8, addend: 0x0, symName: __ZNSt3__110unique_ptrIA_PNS_16__hash_node_baseIPNS_11__hash_nodeINS_17__hash_value_typeIiiEEPvEEEENS_25__bucket_list_deallocatorINS_9allocatorIS9_EEEEE11get_deleterB7v160006Ev, symObjAddr: 0x28E0, symBinAddr: 0x100006730, symSize: 0x20 }
  - { offsetInCU: 0xE238, offset: 0xE238, size: 0x8, addend: 0x0, symName: __ZNSt3__110unique_ptrIA_PNS_16__hash_node_baseIPNS_11__hash_nodeINS_17__hash_value_typeIiiEEPvEEEENS_25__bucket_list_deallocatorINS_9allocatorIS9_EEEEE5resetB7v160006IPS9_EENS_9enable_ifIXsr28_CheckArrayPointerConversionIT_EE5valueEvE4typeESJ_, symObjAddr: 0x2900, symBinAddr: 0x100006750, symSize: 0x70 }
  - { offsetInCU: 0xE285, offset: 0xE285, size: 0x8, addend: 0x0, symName: __ZNSt3__116allocator_traitsINS_9allocatorIPNS_16__hash_node_baseIPNS_11__hash_nodeINS_17__hash_value_typeIiiEEPvEEEEEEE8allocateB7v160006ERSB_m, symObjAddr: 0x2970, symBinAddr: 0x1000067C0, symSize: 0x30 }
  - { offsetInCU: 0xE2B8, offset: 0xE2B8, size: 0x8, addend: 0x0, symName: __ZNSt3__19allocatorIPNS_16__hash_node_baseIPNS_11__hash_nodeINS_17__hash_value_typeIiiEEPvEEEEE8allocateB7v160006Em, symObjAddr: 0x29A0, symBinAddr: 0x1000067F0, symSize: 0x50 }
  - { offsetInCU: 0xE2F6, offset: 0xE2F6, size: 0x8, addend: 0x0, symName: __ZNSt3__116allocator_traitsINS_9allocatorIPNS_16__hash_node_baseIPNS_11__hash_nodeINS_17__hash_value_typeIiiEEPvEEEEEEE8max_sizeB7v160006ISB_vvEEmRKSB_, symObjAddr: 0x29F0, symBinAddr: 0x100006840, symSize: 0x20 }
  - { offsetInCU: 0xE32C, offset: 0xE32C, size: 0x8, addend: 0x0, symName: __ZNKSt3__16__lessImmEclB7v160006ERKmS3_, symObjAddr: 0x2A80, symBinAddr: 0x1000068D0, symSize: 0x30 }
  - { offsetInCU: 0xE36E, offset: 0xE36E, size: 0x8, addend: 0x0, symName: __ZNKSt3__117__compressed_pairIPNS_11__hash_nodeINS_17__hash_value_typeIiiEEPvEENS_22__hash_node_destructorINS_9allocatorIS5_EEEEE5firstB7v160006Ev, symObjAddr: 0x2AB0, symBinAddr: 0x100006900, symSize: 0x20 }
  - { offsetInCU: 0xE394, offset: 0xE394, size: 0x8, addend: 0x0, symName: __ZNKSt3__122__compressed_pair_elemIPNS_11__hash_nodeINS_17__hash_value_typeIiiEEPvEELi0ELb0EE5__getB7v160006Ev, symObjAddr: 0x2AD0, symBinAddr: 0x100006920, symSize: 0x10 }
  - { offsetInCU: 0xE3BA, offset: 0xE3BA, size: 0x8, addend: 0x0, symName: __ZNSt3__117__compressed_pairIPNS_11__hash_nodeINS_17__hash_value_typeIiiEEPvEENS_22__hash_node_destructorINS_9allocatorIS5_EEEEE5firstB7v160006Ev, symObjAddr: 0x2AE0, symBinAddr: 0x100006930, symSize: 0x20 }
  - { offsetInCU: 0xE3E0, offset: 0xE3E0, size: 0x8, addend: 0x0, symName: __ZNSt3__122__compressed_pair_elemIPNS_11__hash_nodeINS_17__hash_value_typeIiiEEPvEELi0ELb0EE5__getB7v160006Ev, symObjAddr: 0x2B00, symBinAddr: 0x100006950, symSize: 0x10 }
  - { offsetInCU: 0xE406, offset: 0xE406, size: 0x8, addend: 0x0, symName: __ZNSt3__110unique_ptrINS_11__hash_nodeINS_17__hash_value_typeIiiEEPvEENS_22__hash_node_destructorINS_9allocatorIS5_EEEEED2B7v160006Ev, symObjAddr: 0x2B10, symBinAddr: 0x100006960, symSize: 0x20 }
  - { offsetInCU: 0xE430, offset: 0xE430, size: 0x8, addend: 0x0, symName: __ZNSt3__110unique_ptrINS_11__hash_nodeINS_17__hash_value_typeIiiEEPvEENS_22__hash_node_destructorINS_9allocatorIS5_EEEEE5resetB7v160006EPS5_, symObjAddr: 0x2B30, symBinAddr: 0x100006980, symSize: 0x70 }
  - { offsetInCU: 0xE474, offset: 0xE474, size: 0x8, addend: 0x0, symName: __ZNSt3__122__hash_node_destructorINS_9allocatorINS_11__hash_nodeINS_17__hash_value_typeIiiEEPvEEEEEclB7v160006EPS6_, symObjAddr: 0x2BA0, symBinAddr: 0x1000069F0, symSize: 0x90 }
  - { offsetInCU: 0xE4A9, offset: 0xE4A9, size: 0x8, addend: 0x0, symName: __ZNSt3__115__hash_iteratorIPNS_11__hash_nodeINS_17__hash_value_typeIiiEEPvEEEC2B7v160006EPNS_16__hash_node_baseIS6_EEPKv, symObjAddr: 0x2C30, symBinAddr: 0x100006A80, symSize: 0x20 }
  - { offsetInCU: 0xE4F1, offset: 0xE4F1, size: 0x8, addend: 0x0, symName: __ZNSt3__14pairINS_15__hash_iteratorIPNS_11__hash_nodeINS_17__hash_value_typeIiiEEPvEEEEbEC2B7v160006IS8_RbLS5_0EEEOT_OT0_, symObjAddr: 0x2C50, symBinAddr: 0x100006AA0, symSize: 0x30 }
  - { offsetInCU: 0xE54F, offset: 0xE54F, size: 0x8, addend: 0x0, symName: __ZNSt3__14pairINS_19__hash_map_iteratorINS_15__hash_iteratorIPNS_11__hash_nodeINS_17__hash_value_typeIiiEEPvEEEEEEbEC2B7v160006IS9_bLS6_0EEEONS0_IT_T0_EE, symObjAddr: 0x2C80, symBinAddr: 0x100006AD0, symSize: 0x50 }
  - { offsetInCU: 0xE5A0, offset: 0xE5A0, size: 0x8, addend: 0x0, symName: __ZNSt3__119__hash_map_iteratorINS_15__hash_iteratorIPNS_11__hash_nodeINS_17__hash_value_typeIiiEEPvEEEEEC1B7v160006ES8_, symObjAddr: 0x2CD0, symBinAddr: 0x100006B20, symSize: 0x30 }
  - { offsetInCU: 0xE5D9, offset: 0xE5D9, size: 0x8, addend: 0x0, symName: __ZNSt3__119__hash_map_iteratorINS_15__hash_iteratorIPNS_11__hash_nodeINS_17__hash_value_typeIiiEEPvEEEEEC2B7v160006ES8_, symObjAddr: 0x2D00, symBinAddr: 0x100006B50, symSize: 0x20 }
  - { offsetInCU: 0xE612, offset: 0xE612, size: 0x8, addend: 0x0, symName: __ZNKSt3__113unordered_mapIiiNS_4hashIiEENS_8equal_toIiEENS_9allocatorINS_4pairIKiiEEEEE4findB7v160006ERS7_, symObjAddr: 0x2D50, symBinAddr: 0x100006BA0, symSize: 0x40 }
  - { offsetInCU: 0xE647, offset: 0xE647, size: 0x8, addend: 0x0, symName: __ZNKSt3__113unordered_mapIiiNS_4hashIiEENS_8equal_toIiEENS_9allocatorINS_4pairIKiiEEEEE3endB7v160006Ev, symObjAddr: 0x2D90, symBinAddr: 0x100006BE0, symSize: 0x30 }
  - { offsetInCU: 0xE66D, offset: 0xE66D, size: 0x8, addend: 0x0, symName: __ZNKSt3__112__hash_tableINS_17__hash_value_typeIiiEENS_22__unordered_map_hasherIiS2_NS_4hashIiEENS_8equal_toIiEELb1EEENS_21__unordered_map_equalIiS2_S7_S5_Lb1EEENS_9allocatorIS2_EEE4findIiEENS_21__hash_const_iteratorIPNS_11__hash_nodeIS2_PvEEEERKT_, symObjAddr: 0x2E20, symBinAddr: 0x100006C70, symSize: 0x190 }
  - { offsetInCU: 0xE6F7, offset: 0xE6F7, size: 0x8, addend: 0x0, symName: __ZNSt3__125__hash_map_const_iteratorINS_21__hash_const_iteratorIPNS_11__hash_nodeINS_17__hash_value_typeIiiEEPvEEEEEC1B7v160006ES8_, symObjAddr: 0x2FB0, symBinAddr: 0x100006E00, symSize: 0x30 }
  - { offsetInCU: 0xE730, offset: 0xE730, size: 0x8, addend: 0x0, symName: __ZNKSt3__112__hash_tableINS_17__hash_value_typeIiiEENS_22__unordered_map_hasherIiS2_NS_4hashIiEENS_8equal_toIiEELb1EEENS_21__unordered_map_equalIiS2_S7_S5_Lb1EEENS_9allocatorIS2_EEE13hash_functionB7v160006Ev, symObjAddr: 0x2FE0, symBinAddr: 0x100006E30, symSize: 0x20 }
  - { offsetInCU: 0xE756, offset: 0xE756, size: 0x8, addend: 0x0, symName: __ZNKSt3__112__hash_tableINS_17__hash_value_typeIiiEENS_22__unordered_map_hasherIiS2_NS_4hashIiEENS_8equal_toIiEELb1EEENS_21__unordered_map_equalIiS2_S7_S5_Lb1EEENS_9allocatorIS2_EEE6key_eqB7v160006Ev, symObjAddr: 0x3000, symBinAddr: 0x100006E50, symSize: 0x20 }
  - { offsetInCU: 0xE77C, offset: 0xE77C, size: 0x8, addend: 0x0, symName: __ZNSt3__121__hash_const_iteratorIPNS_11__hash_nodeINS_17__hash_value_typeIiiEEPvEEEC1B7v160006EPNS_16__hash_node_baseIS6_EEPKv, symObjAddr: 0x3020, symBinAddr: 0x100006E70, symSize: 0x30 }
  - { offsetInCU: 0xE7C4, offset: 0xE7C4, size: 0x8, addend: 0x0, symName: __ZNKSt3__112__hash_tableINS_17__hash_value_typeIiiEENS_22__unordered_map_hasherIiS2_NS_4hashIiEENS_8equal_toIiEELb1EEENS_21__unordered_map_equalIiS2_S7_S5_Lb1EEENS_9allocatorIS2_EEE3endEv, symObjAddr: 0x3050, symBinAddr: 0x100006EA0, symSize: 0x30 }
  - { offsetInCU: 0xE7EC, offset: 0xE7EC, size: 0x8, addend: 0x0, symName: __ZNKSt3__117__compressed_pairImNS_22__unordered_map_hasherIiNS_17__hash_value_typeIiiEENS_4hashIiEENS_8equal_toIiEELb1EEEE6secondB7v160006Ev, symObjAddr: 0x3080, symBinAddr: 0x100006ED0, symSize: 0x20 }
  - { offsetInCU: 0xE812, offset: 0xE812, size: 0x8, addend: 0x0, symName: __ZNKSt3__122__compressed_pair_elemINS_22__unordered_map_hasherIiNS_17__hash_value_typeIiiEENS_4hashIiEENS_8equal_toIiEELb1EEELi1ELb1EE5__getB7v160006Ev, symObjAddr: 0x30A0, symBinAddr: 0x100006EF0, symSize: 0x10 }
  - { offsetInCU: 0xE838, offset: 0xE838, size: 0x8, addend: 0x0, symName: __ZNKSt3__117__compressed_pairIfNS_21__unordered_map_equalIiNS_17__hash_value_typeIiiEENS_8equal_toIiEENS_4hashIiEELb1EEEE6secondB7v160006Ev, symObjAddr: 0x30B0, symBinAddr: 0x100006F00, symSize: 0x20 }
  - { offsetInCU: 0xE85E, offset: 0xE85E, size: 0x8, addend: 0x0, symName: __ZNKSt3__122__compressed_pair_elemINS_21__unordered_map_equalIiNS_17__hash_value_typeIiiEENS_8equal_toIiEENS_4hashIiEELb1EEELi1ELb1EE5__getB7v160006Ev, symObjAddr: 0x30D0, symBinAddr: 0x100006F20, symSize: 0x10 }
  - { offsetInCU: 0xE884, offset: 0xE884, size: 0x8, addend: 0x0, symName: __ZNSt3__121__hash_const_iteratorIPNS_11__hash_nodeINS_17__hash_value_typeIiiEEPvEEEC2B7v160006EPNS_16__hash_node_baseIS6_EEPKv, symObjAddr: 0x30E0, symBinAddr: 0x100006F30, symSize: 0x20 }
  - { offsetInCU: 0xE8CC, offset: 0xE8CC, size: 0x8, addend: 0x0, symName: __ZNSt3__125__hash_map_const_iteratorINS_21__hash_const_iteratorIPNS_11__hash_nodeINS_17__hash_value_typeIiiEEPvEEEEEC2B7v160006ES8_, symObjAddr: 0x3100, symBinAddr: 0x100006F50, symSize: 0x20 }
  - { offsetInCU: 0xE905, offset: 0xE905, size: 0x8, addend: 0x0, symName: __ZNSt3__112__hash_tableINS_17__hash_value_typeIiiEENS_22__unordered_map_hasherIiS2_NS_4hashIiEENS_8equal_toIiEELb1EEENS_21__unordered_map_equalIiS2_S7_S5_Lb1EEENS_9allocatorIS2_EEE4findIiEENS_15__hash_iteratorIPNS_11__hash_nodeIS2_PvEEEERKT_, symObjAddr: 0x3120, symBinAddr: 0x100006F70, symSize: 0x180 }
  - { offsetInCU: 0xE98F, offset: 0xE98F, size: 0x8, addend: 0x0, symName: __ZNSt3__112__hash_tableINS_17__hash_value_typeIiiEENS_22__unordered_map_hasherIiS2_NS_4hashIiEENS_8equal_toIiEELb1EEENS_21__unordered_map_equalIiS2_S7_S5_Lb1EEENS_9allocatorIS2_EEE3endEv, symObjAddr: 0x32A0, symBinAddr: 0x1000070F0, symSize: 0x30 }
  - { offsetInCU: 0xE9B7, offset: 0xE9B7, size: 0x8, addend: 0x0, symName: __ZNSt3__114pointer_traitsIPNS_4pairIKiiEEE10pointer_toB7v160006ERS3_, symObjAddr: 0x32D0, symBinAddr: 0x100007120, symSize: 0x10 }
  - { offsetInCU: 0xE9DA, offset: 0xE9DA, size: 0x8, addend: 0x0, symName: __ZNKSt3__115__hash_iteratorIPNS_11__hash_nodeINS_17__hash_value_typeIiiEEPvEEEptB7v160006Ev, symObjAddr: 0x32E0, symBinAddr: 0x100007130, symSize: 0x30 }
  - { offsetInCU: 0xEA00, offset: 0xEA00, size: 0x8, addend: 0x0, symName: __ZNSt3__114pointer_traitsIPNS_17__hash_value_typeIiiEEE10pointer_toB7v160006ERS2_, symObjAddr: 0x3310, symBinAddr: 0x100007160, symSize: 0x10 }
  - { offsetInCU: 0xEA23, offset: 0xEA23, size: 0x8, addend: 0x0, symName: __ZNSt3__111char_traitsIcE6lengthEPKc, symObjAddr: 0x3510, symBinAddr: 0x100007360, symSize: 0x30 }
  - { offsetInCU: 0xEA64, offset: 0xEA64, size: 0x8, addend: 0x0, symName: __ZNKSt3__113basic_ostreamIcNS_11char_traitsIcEEE6sentrycvbB7v160006Ev, symObjAddr: 0x3540, symBinAddr: 0x100007390, symSize: 0x20 }
  - { offsetInCU: 0xEA8A, offset: 0xEA8A, size: 0x8, addend: 0x0, symName: __ZNSt3__119ostreambuf_iteratorIcNS_11char_traitsIcEEEC1B7v160006ERNS_13basic_ostreamIcS2_EE, symObjAddr: 0x3780, symBinAddr: 0x1000075D0, symSize: 0x30 }
  - { offsetInCU: 0xEAC2, offset: 0xEAC2, size: 0x8, addend: 0x0, symName: __ZNKSt3__18ios_base5flagsB7v160006Ev, symObjAddr: 0x37B0, symBinAddr: 0x100007600, symSize: 0x20 }
  - { offsetInCU: 0xEAEA, offset: 0xEAEA, size: 0x8, addend: 0x0, symName: __ZNKSt3__19basic_iosIcNS_11char_traitsIcEEE4fillB7v160006Ev, symObjAddr: 0x37D0, symBinAddr: 0x100007620, symSize: 0x70 }
  - { offsetInCU: 0xEB12, offset: 0xEB12, size: 0x8, addend: 0x0, symName: __ZNKSt3__119ostreambuf_iteratorIcNS_11char_traitsIcEEE6failedB7v160006Ev, symObjAddr: 0x3840, symBinAddr: 0x100007690, symSize: 0x20 }
  - { offsetInCU: 0xEB38, offset: 0xEB38, size: 0x8, addend: 0x0, symName: __ZNSt3__19basic_iosIcNS_11char_traitsIcEEE8setstateB7v160006Ej, symObjAddr: 0x3860, symBinAddr: 0x1000076B0, symSize: 0x30 }
  - { offsetInCU: 0xEB6D, offset: 0xEB6D, size: 0x8, addend: 0x0, symName: __ZNKSt3__18ios_base5widthB7v160006Ev, symObjAddr: 0x3890, symBinAddr: 0x1000076E0, symSize: 0x20 }
  - { offsetInCU: 0xEB95, offset: 0xEB95, size: 0x8, addend: 0x0, symName: __ZNSt3__115basic_streambufIcNS_11char_traitsIcEEE5sputnB7v160006EPKcl, symObjAddr: 0x38B0, symBinAddr: 0x100007700, symSize: 0x30 }
  - { offsetInCU: 0xEBD7, offset: 0xEBD7, size: 0x8, addend: 0x0, symName: __ZNSt3__112basic_stringIcNS_11char_traitsIcEENS_9allocatorIcEEEC1B7v160006Emc, symObjAddr: 0x38E0, symBinAddr: 0x100007730, symSize: 0x30 }
  - { offsetInCU: 0xEC1F, offset: 0xEC1F, size: 0x8, addend: 0x0, symName: __ZNSt3__112basic_stringIcNS_11char_traitsIcEENS_9allocatorIcEEE4dataB7v160006Ev, symObjAddr: 0x3910, symBinAddr: 0x100007760, symSize: 0x30 }
  - { offsetInCU: 0xEC45, offset: 0xEC45, size: 0x8, addend: 0x0, symName: __ZNSt3__18ios_base5widthB7v160006El, symObjAddr: 0x3940, symBinAddr: 0x100007790, symSize: 0x30 }
  - { offsetInCU: 0xEC8B, offset: 0xEC8B, size: 0x8, addend: 0x0, symName: __ZNSt3__112basic_stringIcNS_11char_traitsIcEENS_9allocatorIcEEEC2B7v160006Emc, symObjAddr: 0x3970, symBinAddr: 0x1000077C0, symSize: 0x50 }
  - { offsetInCU: 0xECD3, offset: 0xECD3, size: 0x8, addend: 0x0, symName: __ZNSt3__117__compressed_pairINS_12basic_stringIcNS_11char_traitsIcEENS_9allocatorIcEEE5__repES5_EC1B7v160006INS_18__default_init_tagESA_EEOT_OT0_, symObjAddr: 0x39C0, symBinAddr: 0x100007810, symSize: 0x30 }
  - { offsetInCU: 0xED2B, offset: 0xED2B, size: 0x8, addend: 0x0, symName: __ZNSt3__117__compressed_pairINS_12basic_stringIcNS_11char_traitsIcEENS_9allocatorIcEEE5__repES5_EC2B7v160006INS_18__default_init_tagESA_EEOT_OT0_, symObjAddr: 0x3A00, symBinAddr: 0x100007850, symSize: 0x30 }
  - { offsetInCU: 0xED83, offset: 0xED83, size: 0x8, addend: 0x0, symName: __ZNSt3__122__compressed_pair_elemINS_12basic_stringIcNS_11char_traitsIcEENS_9allocatorIcEEE5__repELi0ELb0EEC2B7v160006ENS_18__default_init_tagE, symObjAddr: 0x3A30, symBinAddr: 0x100007880, symSize: 0x10 }
  - { offsetInCU: 0xEDB8, offset: 0xEDB8, size: 0x8, addend: 0x0, symName: __ZNSt3__122__compressed_pair_elemINS_9allocatorIcEELi1ELb1EEC2B7v160006ENS_18__default_init_tagE, symObjAddr: 0x3A40, symBinAddr: 0x100007890, symSize: 0x20 }
  - { offsetInCU: 0xEDED, offset: 0xEDED, size: 0x8, addend: 0x0, symName: __ZNSt3__19allocatorIcEC2B7v160006Ev, symObjAddr: 0x3A60, symBinAddr: 0x1000078B0, symSize: 0x20 }
  - { offsetInCU: 0xEE17, offset: 0xEE17, size: 0x8, addend: 0x0, symName: __ZNSt3__116__non_trivial_ifILb1ENS_9allocatorIcEEEC2B7v160006Ev, symObjAddr: 0x3A80, symBinAddr: 0x1000078D0, symSize: 0x10 }
  - { offsetInCU: 0xEE41, offset: 0xEE41, size: 0x8, addend: 0x0, symName: __ZNSt3__112basic_stringIcNS_11char_traitsIcEENS_9allocatorIcEEE13__get_pointerB7v160006Ev, symObjAddr: 0x3AA0, symBinAddr: 0x1000078F0, symSize: 0x50 }
  - { offsetInCU: 0xEE67, offset: 0xEE67, size: 0x8, addend: 0x0, symName: __ZNKSt3__112basic_stringIcNS_11char_traitsIcEENS_9allocatorIcEEE9__is_longB7v160006Ev, symObjAddr: 0x3AF0, symBinAddr: 0x100007940, symSize: 0x30 }
  - { offsetInCU: 0xEE8D, offset: 0xEE8D, size: 0x8, addend: 0x0, symName: __ZNSt3__112basic_stringIcNS_11char_traitsIcEENS_9allocatorIcEEE18__get_long_pointerB7v160006Ev, symObjAddr: 0x3B20, symBinAddr: 0x100007970, symSize: 0x20 }
  - { offsetInCU: 0xEEB3, offset: 0xEEB3, size: 0x8, addend: 0x0, symName: __ZNSt3__112basic_stringIcNS_11char_traitsIcEENS_9allocatorIcEEE19__get_short_pointerB7v160006Ev, symObjAddr: 0x3B40, symBinAddr: 0x100007990, symSize: 0x30 }
  - { offsetInCU: 0xEED9, offset: 0xEED9, size: 0x8, addend: 0x0, symName: __ZNKSt3__117__compressed_pairINS_12basic_stringIcNS_11char_traitsIcEENS_9allocatorIcEEE5__repES5_E5firstB7v160006Ev, symObjAddr: 0x3B70, symBinAddr: 0x1000079C0, symSize: 0x20 }
  - { offsetInCU: 0xEEFF, offset: 0xEEFF, size: 0x8, addend: 0x0, symName: __ZNKSt3__122__compressed_pair_elemINS_12basic_stringIcNS_11char_traitsIcEENS_9allocatorIcEEE5__repELi0ELb0EE5__getB7v160006Ev, symObjAddr: 0x3B90, symBinAddr: 0x1000079E0, symSize: 0x10 }
  - { offsetInCU: 0xEF25, offset: 0xEF25, size: 0x8, addend: 0x0, symName: __ZNSt3__117__compressed_pairINS_12basic_stringIcNS_11char_traitsIcEENS_9allocatorIcEEE5__repES5_E5firstB7v160006Ev, symObjAddr: 0x3BA0, symBinAddr: 0x1000079F0, symSize: 0x20 }
  - { offsetInCU: 0xEF4B, offset: 0xEF4B, size: 0x8, addend: 0x0, symName: __ZNSt3__122__compressed_pair_elemINS_12basic_stringIcNS_11char_traitsIcEENS_9allocatorIcEEE5__repELi0ELb0EE5__getB7v160006Ev, symObjAddr: 0x3BC0, symBinAddr: 0x100007A10, symSize: 0x10 }
  - { offsetInCU: 0xEF71, offset: 0xEF71, size: 0x8, addend: 0x0, symName: __ZNSt3__114pointer_traitsIPcE10pointer_toB7v160006ERc, symObjAddr: 0x3BD0, symBinAddr: 0x100007A20, symSize: 0x10 }
  - { offsetInCU: 0xEF94, offset: 0xEF94, size: 0x8, addend: 0x0, symName: __ZNSt3__119ostreambuf_iteratorIcNS_11char_traitsIcEEEC2B7v160006ERNS_13basic_ostreamIcS2_EE, symObjAddr: 0x3BE0, symBinAddr: 0x100007A30, symSize: 0x50 }
  - { offsetInCU: 0xEFCC, offset: 0xEFCC, size: 0x8, addend: 0x0, symName: __ZNKSt3__19basic_iosIcNS_11char_traitsIcEEE5rdbufB7v160006Ev, symObjAddr: 0x3C30, symBinAddr: 0x100007A80, symSize: 0x20 }
  - { offsetInCU: 0xEFF4, offset: 0xEFF4, size: 0x8, addend: 0x0, symName: __ZNKSt3__18ios_base5rdbufB7v160006Ev, symObjAddr: 0x3C50, symBinAddr: 0x100007AA0, symSize: 0x20 }
  - { offsetInCU: 0xF01A, offset: 0xF01A, size: 0x8, addend: 0x0, symName: __ZNSt3__111char_traitsIcE11eq_int_typeEii, symObjAddr: 0x3C70, symBinAddr: 0x100007AC0, symSize: 0x20 }
  - { offsetInCU: 0xF04B, offset: 0xF04B, size: 0x8, addend: 0x0, symName: __ZNSt3__111char_traitsIcE3eofEv, symObjAddr: 0x3C90, symBinAddr: 0x100007AE0, symSize: 0x10 }
  - { offsetInCU: 0xF05F, offset: 0xF05F, size: 0x8, addend: 0x0, symName: __ZNKSt3__19basic_iosIcNS_11char_traitsIcEEE5widenB7v160006Ec, symObjAddr: 0x3CA0, symBinAddr: 0x100007AF0, symSize: 0x80 }
  - { offsetInCU: 0xF0CD, offset: 0xF0CD, size: 0x8, addend: 0x0, symName: __ZNKSt3__15ctypeIcE5widenB7v160006Ec, symObjAddr: 0x3D50, symBinAddr: 0x100007BA0, symSize: 0x30 }
  - { offsetInCU: 0xF102, offset: 0xF102, size: 0x8, addend: 0x0, symName: __ZNSt3__18ios_base8setstateB7v160006Ej, symObjAddr: 0x3D80, symBinAddr: 0x100007BD0, symSize: 0x30 }
...
